
Impulsator_2.0.elf:     file format elf32-littlearm

Sections:
Idx Name          Size      VMA       LMA       File off  Algn
  0 .isr_vector   000000c0  08000000  08000000  00010000  2**0
                  CONTENTS, ALLOC, LOAD, READONLY, DATA
  1 .text         00006e24  080000c0  080000c0  000100c0  2**2
                  CONTENTS, ALLOC, LOAD, READONLY, CODE
  2 .rodata       0000042c  08006ee4  08006ee4  00016ee4  2**2
                  CONTENTS, ALLOC, LOAD, READONLY, DATA
  3 .ARM.extab    00000000  08007310  08007310  0002020c  2**0
                  CONTENTS
  4 .ARM          00000008  08007310  08007310  00017310  2**2
                  CONTENTS, ALLOC, LOAD, READONLY, DATA
  5 .preinit_array 00000000  08007318  08007318  0002020c  2**0
                  CONTENTS, ALLOC, LOAD, DATA
  6 .init_array   00000004  08007318  08007318  00017318  2**2
                  CONTENTS, ALLOC, LOAD, DATA
  7 .fini_array   00000004  0800731c  0800731c  0001731c  2**2
                  CONTENTS, ALLOC, LOAD, DATA
  8 .data         0000020c  20000000  08007320  00020000  2**2
                  CONTENTS, ALLOC, LOAD, DATA
  9 .bss          000002e4  2000020c  0800752c  0002020c  2**2
                  ALLOC
 10 ._user_heap_stack 00000600  200004f0  0800752c  000204f0  2**0
                  ALLOC
 11 .ARM.attributes 00000028  00000000  00000000  0002020c  2**0
                  CONTENTS, READONLY
 12 .comment      00000043  00000000  00000000  00020234  2**0
                  CONTENTS, READONLY
 13 .debug_info   0000d350  00000000  00000000  00020277  2**0
                  CONTENTS, READONLY, DEBUGGING, OCTETS
 14 .debug_abbrev 00002bbc  00000000  00000000  0002d5c7  2**0
                  CONTENTS, READONLY, DEBUGGING, OCTETS
 15 .debug_aranges 00000b90  00000000  00000000  00030188  2**3
                  CONTENTS, READONLY, DEBUGGING, OCTETS
 16 .debug_rnglists 000008b7  00000000  00000000  00030d18  2**0
                  CONTENTS, READONLY, DEBUGGING, OCTETS
 17 .debug_macro  000163f8  00000000  00000000  000315cf  2**0
                  CONTENTS, READONLY, DEBUGGING, OCTETS
 18 .debug_line   00010641  00000000  00000000  000479c7  2**0
                  CONTENTS, READONLY, DEBUGGING, OCTETS
 19 .debug_str    0008053a  00000000  00000000  00058008  2**0
                  CONTENTS, READONLY, DEBUGGING, OCTETS
 20 .debug_frame  00003470  00000000  00000000  000d8544  2**2
                  CONTENTS, READONLY, DEBUGGING, OCTETS
 21 .debug_line_str 0000004b  00000000  00000000  000db9b4  2**0
                  CONTENTS, READONLY, DEBUGGING, OCTETS

Disassembly of section .text:

080000c0 <__do_global_dtors_aux>:
 80000c0:	b510      	push	{r4, lr}
 80000c2:	4c06      	ldr	r4, [pc, #24]	; (80000dc <__do_global_dtors_aux+0x1c>)
 80000c4:	7823      	ldrb	r3, [r4, #0]
 80000c6:	2b00      	cmp	r3, #0
 80000c8:	d107      	bne.n	80000da <__do_global_dtors_aux+0x1a>
 80000ca:	4b05      	ldr	r3, [pc, #20]	; (80000e0 <__do_global_dtors_aux+0x20>)
 80000cc:	2b00      	cmp	r3, #0
 80000ce:	d002      	beq.n	80000d6 <__do_global_dtors_aux+0x16>
 80000d0:	4804      	ldr	r0, [pc, #16]	; (80000e4 <__do_global_dtors_aux+0x24>)
 80000d2:	e000      	b.n	80000d6 <__do_global_dtors_aux+0x16>
 80000d4:	bf00      	nop
 80000d6:	2301      	movs	r3, #1
 80000d8:	7023      	strb	r3, [r4, #0]
 80000da:	bd10      	pop	{r4, pc}
 80000dc:	2000020c 	.word	0x2000020c
 80000e0:	00000000 	.word	0x00000000
 80000e4:	08006ecc 	.word	0x08006ecc

080000e8 <frame_dummy>:
 80000e8:	4b04      	ldr	r3, [pc, #16]	; (80000fc <frame_dummy+0x14>)
 80000ea:	b510      	push	{r4, lr}
 80000ec:	2b00      	cmp	r3, #0
 80000ee:	d003      	beq.n	80000f8 <frame_dummy+0x10>
 80000f0:	4903      	ldr	r1, [pc, #12]	; (8000100 <frame_dummy+0x18>)
 80000f2:	4804      	ldr	r0, [pc, #16]	; (8000104 <frame_dummy+0x1c>)
 80000f4:	e000      	b.n	80000f8 <frame_dummy+0x10>
 80000f6:	bf00      	nop
 80000f8:	bd10      	pop	{r4, pc}
 80000fa:	46c0      	nop			; (mov r8, r8)
 80000fc:	00000000 	.word	0x00000000
 8000100:	20000210 	.word	0x20000210
 8000104:	08006ecc 	.word	0x08006ecc

08000108 <strcmp>:
 8000108:	7802      	ldrb	r2, [r0, #0]
 800010a:	780b      	ldrb	r3, [r1, #0]
 800010c:	2a00      	cmp	r2, #0
 800010e:	d003      	beq.n	8000118 <strcmp+0x10>
 8000110:	3001      	adds	r0, #1
 8000112:	3101      	adds	r1, #1
 8000114:	429a      	cmp	r2, r3
 8000116:	d0f7      	beq.n	8000108 <strcmp>
 8000118:	1ad0      	subs	r0, r2, r3
 800011a:	4770      	bx	lr

0800011c <strlen>:
 800011c:	2300      	movs	r3, #0
 800011e:	5cc2      	ldrb	r2, [r0, r3]
 8000120:	3301      	adds	r3, #1
 8000122:	2a00      	cmp	r2, #0
 8000124:	d1fb      	bne.n	800011e <strlen+0x2>
 8000126:	1e58      	subs	r0, r3, #1
 8000128:	4770      	bx	lr
	...

0800012c <__gnu_thumb1_case_shi>:
 800012c:	b403      	push	{r0, r1}
 800012e:	4671      	mov	r1, lr
 8000130:	0849      	lsrs	r1, r1, #1
 8000132:	0040      	lsls	r0, r0, #1
 8000134:	0049      	lsls	r1, r1, #1
 8000136:	5e09      	ldrsh	r1, [r1, r0]
 8000138:	0049      	lsls	r1, r1, #1
 800013a:	448e      	add	lr, r1
 800013c:	bc03      	pop	{r0, r1}
 800013e:	4770      	bx	lr

08000140 <__udivsi3>:
 8000140:	2200      	movs	r2, #0
 8000142:	0843      	lsrs	r3, r0, #1
 8000144:	428b      	cmp	r3, r1
 8000146:	d374      	bcc.n	8000232 <__udivsi3+0xf2>
 8000148:	0903      	lsrs	r3, r0, #4
 800014a:	428b      	cmp	r3, r1
 800014c:	d35f      	bcc.n	800020e <__udivsi3+0xce>
 800014e:	0a03      	lsrs	r3, r0, #8
 8000150:	428b      	cmp	r3, r1
 8000152:	d344      	bcc.n	80001de <__udivsi3+0x9e>
 8000154:	0b03      	lsrs	r3, r0, #12
 8000156:	428b      	cmp	r3, r1
 8000158:	d328      	bcc.n	80001ac <__udivsi3+0x6c>
 800015a:	0c03      	lsrs	r3, r0, #16
 800015c:	428b      	cmp	r3, r1
 800015e:	d30d      	bcc.n	800017c <__udivsi3+0x3c>
 8000160:	22ff      	movs	r2, #255	; 0xff
 8000162:	0209      	lsls	r1, r1, #8
 8000164:	ba12      	rev	r2, r2
 8000166:	0c03      	lsrs	r3, r0, #16
 8000168:	428b      	cmp	r3, r1
 800016a:	d302      	bcc.n	8000172 <__udivsi3+0x32>
 800016c:	1212      	asrs	r2, r2, #8
 800016e:	0209      	lsls	r1, r1, #8
 8000170:	d065      	beq.n	800023e <__udivsi3+0xfe>
 8000172:	0b03      	lsrs	r3, r0, #12
 8000174:	428b      	cmp	r3, r1
 8000176:	d319      	bcc.n	80001ac <__udivsi3+0x6c>
 8000178:	e000      	b.n	800017c <__udivsi3+0x3c>
 800017a:	0a09      	lsrs	r1, r1, #8
 800017c:	0bc3      	lsrs	r3, r0, #15
 800017e:	428b      	cmp	r3, r1
 8000180:	d301      	bcc.n	8000186 <__udivsi3+0x46>
 8000182:	03cb      	lsls	r3, r1, #15
 8000184:	1ac0      	subs	r0, r0, r3
 8000186:	4152      	adcs	r2, r2
 8000188:	0b83      	lsrs	r3, r0, #14
 800018a:	428b      	cmp	r3, r1
 800018c:	d301      	bcc.n	8000192 <__udivsi3+0x52>
 800018e:	038b      	lsls	r3, r1, #14
 8000190:	1ac0      	subs	r0, r0, r3
 8000192:	4152      	adcs	r2, r2
 8000194:	0b43      	lsrs	r3, r0, #13
 8000196:	428b      	cmp	r3, r1
 8000198:	d301      	bcc.n	800019e <__udivsi3+0x5e>
 800019a:	034b      	lsls	r3, r1, #13
 800019c:	1ac0      	subs	r0, r0, r3
 800019e:	4152      	adcs	r2, r2
 80001a0:	0b03      	lsrs	r3, r0, #12
 80001a2:	428b      	cmp	r3, r1
 80001a4:	d301      	bcc.n	80001aa <__udivsi3+0x6a>
 80001a6:	030b      	lsls	r3, r1, #12
 80001a8:	1ac0      	subs	r0, r0, r3
 80001aa:	4152      	adcs	r2, r2
 80001ac:	0ac3      	lsrs	r3, r0, #11
 80001ae:	428b      	cmp	r3, r1
 80001b0:	d301      	bcc.n	80001b6 <__udivsi3+0x76>
 80001b2:	02cb      	lsls	r3, r1, #11
 80001b4:	1ac0      	subs	r0, r0, r3
 80001b6:	4152      	adcs	r2, r2
 80001b8:	0a83      	lsrs	r3, r0, #10
 80001ba:	428b      	cmp	r3, r1
 80001bc:	d301      	bcc.n	80001c2 <__udivsi3+0x82>
 80001be:	028b      	lsls	r3, r1, #10
 80001c0:	1ac0      	subs	r0, r0, r3
 80001c2:	4152      	adcs	r2, r2
 80001c4:	0a43      	lsrs	r3, r0, #9
 80001c6:	428b      	cmp	r3, r1
 80001c8:	d301      	bcc.n	80001ce <__udivsi3+0x8e>
 80001ca:	024b      	lsls	r3, r1, #9
 80001cc:	1ac0      	subs	r0, r0, r3
 80001ce:	4152      	adcs	r2, r2
 80001d0:	0a03      	lsrs	r3, r0, #8
 80001d2:	428b      	cmp	r3, r1
 80001d4:	d301      	bcc.n	80001da <__udivsi3+0x9a>
 80001d6:	020b      	lsls	r3, r1, #8
 80001d8:	1ac0      	subs	r0, r0, r3
 80001da:	4152      	adcs	r2, r2
 80001dc:	d2cd      	bcs.n	800017a <__udivsi3+0x3a>
 80001de:	09c3      	lsrs	r3, r0, #7
 80001e0:	428b      	cmp	r3, r1
 80001e2:	d301      	bcc.n	80001e8 <__udivsi3+0xa8>
 80001e4:	01cb      	lsls	r3, r1, #7
 80001e6:	1ac0      	subs	r0, r0, r3
 80001e8:	4152      	adcs	r2, r2
 80001ea:	0983      	lsrs	r3, r0, #6
 80001ec:	428b      	cmp	r3, r1
 80001ee:	d301      	bcc.n	80001f4 <__udivsi3+0xb4>
 80001f0:	018b      	lsls	r3, r1, #6
 80001f2:	1ac0      	subs	r0, r0, r3
 80001f4:	4152      	adcs	r2, r2
 80001f6:	0943      	lsrs	r3, r0, #5
 80001f8:	428b      	cmp	r3, r1
 80001fa:	d301      	bcc.n	8000200 <__udivsi3+0xc0>
 80001fc:	014b      	lsls	r3, r1, #5
 80001fe:	1ac0      	subs	r0, r0, r3
 8000200:	4152      	adcs	r2, r2
 8000202:	0903      	lsrs	r3, r0, #4
 8000204:	428b      	cmp	r3, r1
 8000206:	d301      	bcc.n	800020c <__udivsi3+0xcc>
 8000208:	010b      	lsls	r3, r1, #4
 800020a:	1ac0      	subs	r0, r0, r3
 800020c:	4152      	adcs	r2, r2
 800020e:	08c3      	lsrs	r3, r0, #3
 8000210:	428b      	cmp	r3, r1
 8000212:	d301      	bcc.n	8000218 <__udivsi3+0xd8>
 8000214:	00cb      	lsls	r3, r1, #3
 8000216:	1ac0      	subs	r0, r0, r3
 8000218:	4152      	adcs	r2, r2
 800021a:	0883      	lsrs	r3, r0, #2
 800021c:	428b      	cmp	r3, r1
 800021e:	d301      	bcc.n	8000224 <__udivsi3+0xe4>
 8000220:	008b      	lsls	r3, r1, #2
 8000222:	1ac0      	subs	r0, r0, r3
 8000224:	4152      	adcs	r2, r2
 8000226:	0843      	lsrs	r3, r0, #1
 8000228:	428b      	cmp	r3, r1
 800022a:	d301      	bcc.n	8000230 <__udivsi3+0xf0>
 800022c:	004b      	lsls	r3, r1, #1
 800022e:	1ac0      	subs	r0, r0, r3
 8000230:	4152      	adcs	r2, r2
 8000232:	1a41      	subs	r1, r0, r1
 8000234:	d200      	bcs.n	8000238 <__udivsi3+0xf8>
 8000236:	4601      	mov	r1, r0
 8000238:	4152      	adcs	r2, r2
 800023a:	4610      	mov	r0, r2
 800023c:	4770      	bx	lr
 800023e:	e7ff      	b.n	8000240 <__udivsi3+0x100>
 8000240:	b501      	push	{r0, lr}
 8000242:	2000      	movs	r0, #0
 8000244:	f000 f806 	bl	8000254 <__aeabi_idiv0>
 8000248:	bd02      	pop	{r1, pc}
 800024a:	46c0      	nop			; (mov r8, r8)

0800024c <__aeabi_uidivmod>:
 800024c:	2900      	cmp	r1, #0
 800024e:	d0f7      	beq.n	8000240 <__udivsi3+0x100>
 8000250:	e776      	b.n	8000140 <__udivsi3>
 8000252:	4770      	bx	lr

08000254 <__aeabi_idiv0>:
 8000254:	4770      	bx	lr
 8000256:	46c0      	nop			; (mov r8, r8)

08000258 <__aeabi_uldivmod>:
 8000258:	2b00      	cmp	r3, #0
 800025a:	d111      	bne.n	8000280 <__aeabi_uldivmod+0x28>
 800025c:	2a00      	cmp	r2, #0
 800025e:	d10f      	bne.n	8000280 <__aeabi_uldivmod+0x28>
 8000260:	2900      	cmp	r1, #0
 8000262:	d100      	bne.n	8000266 <__aeabi_uldivmod+0xe>
 8000264:	2800      	cmp	r0, #0
 8000266:	d002      	beq.n	800026e <__aeabi_uldivmod+0x16>
 8000268:	2100      	movs	r1, #0
 800026a:	43c9      	mvns	r1, r1
 800026c:	0008      	movs	r0, r1
 800026e:	b407      	push	{r0, r1, r2}
 8000270:	4802      	ldr	r0, [pc, #8]	; (800027c <__aeabi_uldivmod+0x24>)
 8000272:	a102      	add	r1, pc, #8	; (adr r1, 800027c <__aeabi_uldivmod+0x24>)
 8000274:	1840      	adds	r0, r0, r1
 8000276:	9002      	str	r0, [sp, #8]
 8000278:	bd03      	pop	{r0, r1, pc}
 800027a:	46c0      	nop			; (mov r8, r8)
 800027c:	ffffffd9 	.word	0xffffffd9
 8000280:	b403      	push	{r0, r1}
 8000282:	4668      	mov	r0, sp
 8000284:	b501      	push	{r0, lr}
 8000286:	9802      	ldr	r0, [sp, #8]
 8000288:	f000 f84c 	bl	8000324 <__udivmoddi4>
 800028c:	9b01      	ldr	r3, [sp, #4]
 800028e:	469e      	mov	lr, r3
 8000290:	b002      	add	sp, #8
 8000292:	bc0c      	pop	{r2, r3}
 8000294:	4770      	bx	lr
 8000296:	46c0      	nop			; (mov r8, r8)

08000298 <__aeabi_lmul>:
 8000298:	b5f0      	push	{r4, r5, r6, r7, lr}
 800029a:	46ce      	mov	lr, r9
 800029c:	4699      	mov	r9, r3
 800029e:	0c03      	lsrs	r3, r0, #16
 80002a0:	469c      	mov	ip, r3
 80002a2:	0413      	lsls	r3, r2, #16
 80002a4:	4647      	mov	r7, r8
 80002a6:	0c1b      	lsrs	r3, r3, #16
 80002a8:	001d      	movs	r5, r3
 80002aa:	000e      	movs	r6, r1
 80002ac:	4661      	mov	r1, ip
 80002ae:	0404      	lsls	r4, r0, #16
 80002b0:	0c24      	lsrs	r4, r4, #16
 80002b2:	b580      	push	{r7, lr}
 80002b4:	0007      	movs	r7, r0
 80002b6:	0c10      	lsrs	r0, r2, #16
 80002b8:	434b      	muls	r3, r1
 80002ba:	4365      	muls	r5, r4
 80002bc:	4341      	muls	r1, r0
 80002be:	4360      	muls	r0, r4
 80002c0:	0c2c      	lsrs	r4, r5, #16
 80002c2:	18c0      	adds	r0, r0, r3
 80002c4:	1820      	adds	r0, r4, r0
 80002c6:	468c      	mov	ip, r1
 80002c8:	4283      	cmp	r3, r0
 80002ca:	d903      	bls.n	80002d4 <__aeabi_lmul+0x3c>
 80002cc:	2380      	movs	r3, #128	; 0x80
 80002ce:	025b      	lsls	r3, r3, #9
 80002d0:	4698      	mov	r8, r3
 80002d2:	44c4      	add	ip, r8
 80002d4:	4649      	mov	r1, r9
 80002d6:	4379      	muls	r1, r7
 80002d8:	4356      	muls	r6, r2
 80002da:	0c03      	lsrs	r3, r0, #16
 80002dc:	042d      	lsls	r5, r5, #16
 80002de:	0c2d      	lsrs	r5, r5, #16
 80002e0:	1989      	adds	r1, r1, r6
 80002e2:	4463      	add	r3, ip
 80002e4:	0400      	lsls	r0, r0, #16
 80002e6:	1940      	adds	r0, r0, r5
 80002e8:	18c9      	adds	r1, r1, r3
 80002ea:	bcc0      	pop	{r6, r7}
 80002ec:	46b9      	mov	r9, r7
 80002ee:	46b0      	mov	r8, r6
 80002f0:	bdf0      	pop	{r4, r5, r6, r7, pc}
 80002f2:	46c0      	nop			; (mov r8, r8)

080002f4 <__aeabi_f2uiz>:
 80002f4:	219e      	movs	r1, #158	; 0x9e
 80002f6:	b510      	push	{r4, lr}
 80002f8:	05c9      	lsls	r1, r1, #23
 80002fa:	1c04      	adds	r4, r0, #0
 80002fc:	f000 fd7e 	bl	8000dfc <__aeabi_fcmpge>
 8000300:	2800      	cmp	r0, #0
 8000302:	d103      	bne.n	800030c <__aeabi_f2uiz+0x18>
 8000304:	1c20      	adds	r0, r4, #0
 8000306:	f000 fce1 	bl	8000ccc <__aeabi_f2iz>
 800030a:	bd10      	pop	{r4, pc}
 800030c:	219e      	movs	r1, #158	; 0x9e
 800030e:	1c20      	adds	r0, r4, #0
 8000310:	05c9      	lsls	r1, r1, #23
 8000312:	f000 fb3b 	bl	800098c <__aeabi_fsub>
 8000316:	f000 fcd9 	bl	8000ccc <__aeabi_f2iz>
 800031a:	2380      	movs	r3, #128	; 0x80
 800031c:	061b      	lsls	r3, r3, #24
 800031e:	469c      	mov	ip, r3
 8000320:	4460      	add	r0, ip
 8000322:	e7f2      	b.n	800030a <__aeabi_f2uiz+0x16>

08000324 <__udivmoddi4>:
 8000324:	b5f0      	push	{r4, r5, r6, r7, lr}
 8000326:	4657      	mov	r7, sl
 8000328:	464e      	mov	r6, r9
 800032a:	4645      	mov	r5, r8
 800032c:	46de      	mov	lr, fp
 800032e:	b5e0      	push	{r5, r6, r7, lr}
 8000330:	0004      	movs	r4, r0
 8000332:	000d      	movs	r5, r1
 8000334:	4692      	mov	sl, r2
 8000336:	4699      	mov	r9, r3
 8000338:	b083      	sub	sp, #12
 800033a:	428b      	cmp	r3, r1
 800033c:	d830      	bhi.n	80003a0 <__udivmoddi4+0x7c>
 800033e:	d02d      	beq.n	800039c <__udivmoddi4+0x78>
 8000340:	4649      	mov	r1, r9
 8000342:	4650      	mov	r0, sl
 8000344:	f000 fd82 	bl	8000e4c <__clzdi2>
 8000348:	0029      	movs	r1, r5
 800034a:	0006      	movs	r6, r0
 800034c:	0020      	movs	r0, r4
 800034e:	f000 fd7d 	bl	8000e4c <__clzdi2>
 8000352:	1a33      	subs	r3, r6, r0
 8000354:	4698      	mov	r8, r3
 8000356:	3b20      	subs	r3, #32
 8000358:	d434      	bmi.n	80003c4 <__udivmoddi4+0xa0>
 800035a:	469b      	mov	fp, r3
 800035c:	4653      	mov	r3, sl
 800035e:	465a      	mov	r2, fp
 8000360:	4093      	lsls	r3, r2
 8000362:	4642      	mov	r2, r8
 8000364:	001f      	movs	r7, r3
 8000366:	4653      	mov	r3, sl
 8000368:	4093      	lsls	r3, r2
 800036a:	001e      	movs	r6, r3
 800036c:	42af      	cmp	r7, r5
 800036e:	d83b      	bhi.n	80003e8 <__udivmoddi4+0xc4>
 8000370:	42af      	cmp	r7, r5
 8000372:	d100      	bne.n	8000376 <__udivmoddi4+0x52>
 8000374:	e079      	b.n	800046a <__udivmoddi4+0x146>
 8000376:	465b      	mov	r3, fp
 8000378:	1ba4      	subs	r4, r4, r6
 800037a:	41bd      	sbcs	r5, r7
 800037c:	2b00      	cmp	r3, #0
 800037e:	da00      	bge.n	8000382 <__udivmoddi4+0x5e>
 8000380:	e076      	b.n	8000470 <__udivmoddi4+0x14c>
 8000382:	2200      	movs	r2, #0
 8000384:	2300      	movs	r3, #0
 8000386:	9200      	str	r2, [sp, #0]
 8000388:	9301      	str	r3, [sp, #4]
 800038a:	2301      	movs	r3, #1
 800038c:	465a      	mov	r2, fp
 800038e:	4093      	lsls	r3, r2
 8000390:	9301      	str	r3, [sp, #4]
 8000392:	2301      	movs	r3, #1
 8000394:	4642      	mov	r2, r8
 8000396:	4093      	lsls	r3, r2
 8000398:	9300      	str	r3, [sp, #0]
 800039a:	e029      	b.n	80003f0 <__udivmoddi4+0xcc>
 800039c:	4282      	cmp	r2, r0
 800039e:	d9cf      	bls.n	8000340 <__udivmoddi4+0x1c>
 80003a0:	2200      	movs	r2, #0
 80003a2:	2300      	movs	r3, #0
 80003a4:	9200      	str	r2, [sp, #0]
 80003a6:	9301      	str	r3, [sp, #4]
 80003a8:	9b0c      	ldr	r3, [sp, #48]	; 0x30
 80003aa:	2b00      	cmp	r3, #0
 80003ac:	d001      	beq.n	80003b2 <__udivmoddi4+0x8e>
 80003ae:	601c      	str	r4, [r3, #0]
 80003b0:	605d      	str	r5, [r3, #4]
 80003b2:	9800      	ldr	r0, [sp, #0]
 80003b4:	9901      	ldr	r1, [sp, #4]
 80003b6:	b003      	add	sp, #12
 80003b8:	bcf0      	pop	{r4, r5, r6, r7}
 80003ba:	46bb      	mov	fp, r7
 80003bc:	46b2      	mov	sl, r6
 80003be:	46a9      	mov	r9, r5
 80003c0:	46a0      	mov	r8, r4
 80003c2:	bdf0      	pop	{r4, r5, r6, r7, pc}
 80003c4:	4642      	mov	r2, r8
 80003c6:	469b      	mov	fp, r3
 80003c8:	2320      	movs	r3, #32
 80003ca:	1a9b      	subs	r3, r3, r2
 80003cc:	4652      	mov	r2, sl
 80003ce:	40da      	lsrs	r2, r3
 80003d0:	4641      	mov	r1, r8
 80003d2:	0013      	movs	r3, r2
 80003d4:	464a      	mov	r2, r9
 80003d6:	408a      	lsls	r2, r1
 80003d8:	0017      	movs	r7, r2
 80003da:	4642      	mov	r2, r8
 80003dc:	431f      	orrs	r7, r3
 80003de:	4653      	mov	r3, sl
 80003e0:	4093      	lsls	r3, r2
 80003e2:	001e      	movs	r6, r3
 80003e4:	42af      	cmp	r7, r5
 80003e6:	d9c3      	bls.n	8000370 <__udivmoddi4+0x4c>
 80003e8:	2200      	movs	r2, #0
 80003ea:	2300      	movs	r3, #0
 80003ec:	9200      	str	r2, [sp, #0]
 80003ee:	9301      	str	r3, [sp, #4]
 80003f0:	4643      	mov	r3, r8
 80003f2:	2b00      	cmp	r3, #0
 80003f4:	d0d8      	beq.n	80003a8 <__udivmoddi4+0x84>
 80003f6:	07fb      	lsls	r3, r7, #31
 80003f8:	0872      	lsrs	r2, r6, #1
 80003fa:	431a      	orrs	r2, r3
 80003fc:	4646      	mov	r6, r8
 80003fe:	087b      	lsrs	r3, r7, #1
 8000400:	e00e      	b.n	8000420 <__udivmoddi4+0xfc>
 8000402:	42ab      	cmp	r3, r5
 8000404:	d101      	bne.n	800040a <__udivmoddi4+0xe6>
 8000406:	42a2      	cmp	r2, r4
 8000408:	d80c      	bhi.n	8000424 <__udivmoddi4+0x100>
 800040a:	1aa4      	subs	r4, r4, r2
 800040c:	419d      	sbcs	r5, r3
 800040e:	2001      	movs	r0, #1
 8000410:	1924      	adds	r4, r4, r4
 8000412:	416d      	adcs	r5, r5
 8000414:	2100      	movs	r1, #0
 8000416:	3e01      	subs	r6, #1
 8000418:	1824      	adds	r4, r4, r0
 800041a:	414d      	adcs	r5, r1
 800041c:	2e00      	cmp	r6, #0
 800041e:	d006      	beq.n	800042e <__udivmoddi4+0x10a>
 8000420:	42ab      	cmp	r3, r5
 8000422:	d9ee      	bls.n	8000402 <__udivmoddi4+0xde>
 8000424:	3e01      	subs	r6, #1
 8000426:	1924      	adds	r4, r4, r4
 8000428:	416d      	adcs	r5, r5
 800042a:	2e00      	cmp	r6, #0
 800042c:	d1f8      	bne.n	8000420 <__udivmoddi4+0xfc>
 800042e:	9800      	ldr	r0, [sp, #0]
 8000430:	9901      	ldr	r1, [sp, #4]
 8000432:	465b      	mov	r3, fp
 8000434:	1900      	adds	r0, r0, r4
 8000436:	4169      	adcs	r1, r5
 8000438:	2b00      	cmp	r3, #0
 800043a:	db24      	blt.n	8000486 <__udivmoddi4+0x162>
 800043c:	002b      	movs	r3, r5
 800043e:	465a      	mov	r2, fp
 8000440:	4644      	mov	r4, r8
 8000442:	40d3      	lsrs	r3, r2
 8000444:	002a      	movs	r2, r5
 8000446:	40e2      	lsrs	r2, r4
 8000448:	001c      	movs	r4, r3
 800044a:	465b      	mov	r3, fp
 800044c:	0015      	movs	r5, r2
 800044e:	2b00      	cmp	r3, #0
 8000450:	db2a      	blt.n	80004a8 <__udivmoddi4+0x184>
 8000452:	0026      	movs	r6, r4
 8000454:	409e      	lsls	r6, r3
 8000456:	0033      	movs	r3, r6
 8000458:	0026      	movs	r6, r4
 800045a:	4647      	mov	r7, r8
 800045c:	40be      	lsls	r6, r7
 800045e:	0032      	movs	r2, r6
 8000460:	1a80      	subs	r0, r0, r2
 8000462:	4199      	sbcs	r1, r3
 8000464:	9000      	str	r0, [sp, #0]
 8000466:	9101      	str	r1, [sp, #4]
 8000468:	e79e      	b.n	80003a8 <__udivmoddi4+0x84>
 800046a:	42a3      	cmp	r3, r4
 800046c:	d8bc      	bhi.n	80003e8 <__udivmoddi4+0xc4>
 800046e:	e782      	b.n	8000376 <__udivmoddi4+0x52>
 8000470:	4642      	mov	r2, r8
 8000472:	2320      	movs	r3, #32
 8000474:	2100      	movs	r1, #0
 8000476:	1a9b      	subs	r3, r3, r2
 8000478:	2200      	movs	r2, #0
 800047a:	9100      	str	r1, [sp, #0]
 800047c:	9201      	str	r2, [sp, #4]
 800047e:	2201      	movs	r2, #1
 8000480:	40da      	lsrs	r2, r3
 8000482:	9201      	str	r2, [sp, #4]
 8000484:	e785      	b.n	8000392 <__udivmoddi4+0x6e>
 8000486:	4642      	mov	r2, r8
 8000488:	2320      	movs	r3, #32
 800048a:	1a9b      	subs	r3, r3, r2
 800048c:	002a      	movs	r2, r5
 800048e:	4646      	mov	r6, r8
 8000490:	409a      	lsls	r2, r3
 8000492:	0023      	movs	r3, r4
 8000494:	40f3      	lsrs	r3, r6
 8000496:	4644      	mov	r4, r8
 8000498:	4313      	orrs	r3, r2
 800049a:	002a      	movs	r2, r5
 800049c:	40e2      	lsrs	r2, r4
 800049e:	001c      	movs	r4, r3
 80004a0:	465b      	mov	r3, fp
 80004a2:	0015      	movs	r5, r2
 80004a4:	2b00      	cmp	r3, #0
 80004a6:	dad4      	bge.n	8000452 <__udivmoddi4+0x12e>
 80004a8:	4642      	mov	r2, r8
 80004aa:	002f      	movs	r7, r5
 80004ac:	2320      	movs	r3, #32
 80004ae:	0026      	movs	r6, r4
 80004b0:	4097      	lsls	r7, r2
 80004b2:	1a9b      	subs	r3, r3, r2
 80004b4:	40de      	lsrs	r6, r3
 80004b6:	003b      	movs	r3, r7
 80004b8:	4333      	orrs	r3, r6
 80004ba:	e7cd      	b.n	8000458 <__udivmoddi4+0x134>

080004bc <__aeabi_fdiv>:
 80004bc:	b5f0      	push	{r4, r5, r6, r7, lr}
 80004be:	464f      	mov	r7, r9
 80004c0:	4646      	mov	r6, r8
 80004c2:	46d6      	mov	lr, sl
 80004c4:	0245      	lsls	r5, r0, #9
 80004c6:	b5c0      	push	{r6, r7, lr}
 80004c8:	0047      	lsls	r7, r0, #1
 80004ca:	1c0c      	adds	r4, r1, #0
 80004cc:	0a6d      	lsrs	r5, r5, #9
 80004ce:	0e3f      	lsrs	r7, r7, #24
 80004d0:	0fc6      	lsrs	r6, r0, #31
 80004d2:	2f00      	cmp	r7, #0
 80004d4:	d100      	bne.n	80004d8 <__aeabi_fdiv+0x1c>
 80004d6:	e06f      	b.n	80005b8 <__aeabi_fdiv+0xfc>
 80004d8:	2fff      	cmp	r7, #255	; 0xff
 80004da:	d100      	bne.n	80004de <__aeabi_fdiv+0x22>
 80004dc:	e074      	b.n	80005c8 <__aeabi_fdiv+0x10c>
 80004de:	2300      	movs	r3, #0
 80004e0:	2280      	movs	r2, #128	; 0x80
 80004e2:	4699      	mov	r9, r3
 80004e4:	469a      	mov	sl, r3
 80004e6:	00ed      	lsls	r5, r5, #3
 80004e8:	04d2      	lsls	r2, r2, #19
 80004ea:	4315      	orrs	r5, r2
 80004ec:	3f7f      	subs	r7, #127	; 0x7f
 80004ee:	0263      	lsls	r3, r4, #9
 80004f0:	0a5b      	lsrs	r3, r3, #9
 80004f2:	4698      	mov	r8, r3
 80004f4:	0063      	lsls	r3, r4, #1
 80004f6:	0e1b      	lsrs	r3, r3, #24
 80004f8:	0fe4      	lsrs	r4, r4, #31
 80004fa:	2b00      	cmp	r3, #0
 80004fc:	d04d      	beq.n	800059a <__aeabi_fdiv+0xde>
 80004fe:	2bff      	cmp	r3, #255	; 0xff
 8000500:	d045      	beq.n	800058e <__aeabi_fdiv+0xd2>
 8000502:	4642      	mov	r2, r8
 8000504:	2180      	movs	r1, #128	; 0x80
 8000506:	00d2      	lsls	r2, r2, #3
 8000508:	04c9      	lsls	r1, r1, #19
 800050a:	4311      	orrs	r1, r2
 800050c:	4688      	mov	r8, r1
 800050e:	2200      	movs	r2, #0
 8000510:	3b7f      	subs	r3, #127	; 0x7f
 8000512:	0031      	movs	r1, r6
 8000514:	1aff      	subs	r7, r7, r3
 8000516:	464b      	mov	r3, r9
 8000518:	4061      	eors	r1, r4
 800051a:	b2c9      	uxtb	r1, r1
 800051c:	2b0f      	cmp	r3, #15
 800051e:	d900      	bls.n	8000522 <__aeabi_fdiv+0x66>
 8000520:	e0b8      	b.n	8000694 <__aeabi_fdiv+0x1d8>
 8000522:	4870      	ldr	r0, [pc, #448]	; (80006e4 <__aeabi_fdiv+0x228>)
 8000524:	009b      	lsls	r3, r3, #2
 8000526:	58c3      	ldr	r3, [r0, r3]
 8000528:	469f      	mov	pc, r3
 800052a:	2300      	movs	r3, #0
 800052c:	4698      	mov	r8, r3
 800052e:	0026      	movs	r6, r4
 8000530:	4645      	mov	r5, r8
 8000532:	4692      	mov	sl, r2
 8000534:	4653      	mov	r3, sl
 8000536:	2b02      	cmp	r3, #2
 8000538:	d100      	bne.n	800053c <__aeabi_fdiv+0x80>
 800053a:	e08d      	b.n	8000658 <__aeabi_fdiv+0x19c>
 800053c:	2b03      	cmp	r3, #3
 800053e:	d100      	bne.n	8000542 <__aeabi_fdiv+0x86>
 8000540:	e0a1      	b.n	8000686 <__aeabi_fdiv+0x1ca>
 8000542:	2b01      	cmp	r3, #1
 8000544:	d018      	beq.n	8000578 <__aeabi_fdiv+0xbc>
 8000546:	003b      	movs	r3, r7
 8000548:	337f      	adds	r3, #127	; 0x7f
 800054a:	2b00      	cmp	r3, #0
 800054c:	dd6d      	ble.n	800062a <__aeabi_fdiv+0x16e>
 800054e:	076a      	lsls	r2, r5, #29
 8000550:	d004      	beq.n	800055c <__aeabi_fdiv+0xa0>
 8000552:	220f      	movs	r2, #15
 8000554:	402a      	ands	r2, r5
 8000556:	2a04      	cmp	r2, #4
 8000558:	d000      	beq.n	800055c <__aeabi_fdiv+0xa0>
 800055a:	3504      	adds	r5, #4
 800055c:	012a      	lsls	r2, r5, #4
 800055e:	d503      	bpl.n	8000568 <__aeabi_fdiv+0xac>
 8000560:	4b61      	ldr	r3, [pc, #388]	; (80006e8 <__aeabi_fdiv+0x22c>)
 8000562:	401d      	ands	r5, r3
 8000564:	003b      	movs	r3, r7
 8000566:	3380      	adds	r3, #128	; 0x80
 8000568:	2bfe      	cmp	r3, #254	; 0xfe
 800056a:	dd00      	ble.n	800056e <__aeabi_fdiv+0xb2>
 800056c:	e074      	b.n	8000658 <__aeabi_fdiv+0x19c>
 800056e:	01aa      	lsls	r2, r5, #6
 8000570:	0a52      	lsrs	r2, r2, #9
 8000572:	b2d8      	uxtb	r0, r3
 8000574:	e002      	b.n	800057c <__aeabi_fdiv+0xc0>
 8000576:	000e      	movs	r6, r1
 8000578:	2000      	movs	r0, #0
 800057a:	2200      	movs	r2, #0
 800057c:	05c0      	lsls	r0, r0, #23
 800057e:	07f6      	lsls	r6, r6, #31
 8000580:	4310      	orrs	r0, r2
 8000582:	4330      	orrs	r0, r6
 8000584:	bce0      	pop	{r5, r6, r7}
 8000586:	46ba      	mov	sl, r7
 8000588:	46b1      	mov	r9, r6
 800058a:	46a8      	mov	r8, r5
 800058c:	bdf0      	pop	{r4, r5, r6, r7, pc}
 800058e:	4643      	mov	r3, r8
 8000590:	2b00      	cmp	r3, #0
 8000592:	d13f      	bne.n	8000614 <__aeabi_fdiv+0x158>
 8000594:	2202      	movs	r2, #2
 8000596:	3fff      	subs	r7, #255	; 0xff
 8000598:	e003      	b.n	80005a2 <__aeabi_fdiv+0xe6>
 800059a:	4643      	mov	r3, r8
 800059c:	2b00      	cmp	r3, #0
 800059e:	d12d      	bne.n	80005fc <__aeabi_fdiv+0x140>
 80005a0:	2201      	movs	r2, #1
 80005a2:	0031      	movs	r1, r6
 80005a4:	464b      	mov	r3, r9
 80005a6:	4061      	eors	r1, r4
 80005a8:	b2c9      	uxtb	r1, r1
 80005aa:	4313      	orrs	r3, r2
 80005ac:	2b0f      	cmp	r3, #15
 80005ae:	d838      	bhi.n	8000622 <__aeabi_fdiv+0x166>
 80005b0:	484e      	ldr	r0, [pc, #312]	; (80006ec <__aeabi_fdiv+0x230>)
 80005b2:	009b      	lsls	r3, r3, #2
 80005b4:	58c3      	ldr	r3, [r0, r3]
 80005b6:	469f      	mov	pc, r3
 80005b8:	2d00      	cmp	r5, #0
 80005ba:	d113      	bne.n	80005e4 <__aeabi_fdiv+0x128>
 80005bc:	2304      	movs	r3, #4
 80005be:	4699      	mov	r9, r3
 80005c0:	3b03      	subs	r3, #3
 80005c2:	2700      	movs	r7, #0
 80005c4:	469a      	mov	sl, r3
 80005c6:	e792      	b.n	80004ee <__aeabi_fdiv+0x32>
 80005c8:	2d00      	cmp	r5, #0
 80005ca:	d105      	bne.n	80005d8 <__aeabi_fdiv+0x11c>
 80005cc:	2308      	movs	r3, #8
 80005ce:	4699      	mov	r9, r3
 80005d0:	3b06      	subs	r3, #6
 80005d2:	27ff      	movs	r7, #255	; 0xff
 80005d4:	469a      	mov	sl, r3
 80005d6:	e78a      	b.n	80004ee <__aeabi_fdiv+0x32>
 80005d8:	230c      	movs	r3, #12
 80005da:	4699      	mov	r9, r3
 80005dc:	3b09      	subs	r3, #9
 80005de:	27ff      	movs	r7, #255	; 0xff
 80005e0:	469a      	mov	sl, r3
 80005e2:	e784      	b.n	80004ee <__aeabi_fdiv+0x32>
 80005e4:	0028      	movs	r0, r5
 80005e6:	f000 fc13 	bl	8000e10 <__clzsi2>
 80005ea:	2776      	movs	r7, #118	; 0x76
 80005ec:	1f43      	subs	r3, r0, #5
 80005ee:	409d      	lsls	r5, r3
 80005f0:	2300      	movs	r3, #0
 80005f2:	427f      	negs	r7, r7
 80005f4:	4699      	mov	r9, r3
 80005f6:	469a      	mov	sl, r3
 80005f8:	1a3f      	subs	r7, r7, r0
 80005fa:	e778      	b.n	80004ee <__aeabi_fdiv+0x32>
 80005fc:	4640      	mov	r0, r8
 80005fe:	f000 fc07 	bl	8000e10 <__clzsi2>
 8000602:	4642      	mov	r2, r8
 8000604:	1f43      	subs	r3, r0, #5
 8000606:	409a      	lsls	r2, r3
 8000608:	2376      	movs	r3, #118	; 0x76
 800060a:	425b      	negs	r3, r3
 800060c:	4690      	mov	r8, r2
 800060e:	1a1b      	subs	r3, r3, r0
 8000610:	2200      	movs	r2, #0
 8000612:	e77e      	b.n	8000512 <__aeabi_fdiv+0x56>
 8000614:	2303      	movs	r3, #3
 8000616:	464a      	mov	r2, r9
 8000618:	431a      	orrs	r2, r3
 800061a:	4691      	mov	r9, r2
 800061c:	33fc      	adds	r3, #252	; 0xfc
 800061e:	2203      	movs	r2, #3
 8000620:	e777      	b.n	8000512 <__aeabi_fdiv+0x56>
 8000622:	000e      	movs	r6, r1
 8000624:	20ff      	movs	r0, #255	; 0xff
 8000626:	2200      	movs	r2, #0
 8000628:	e7a8      	b.n	800057c <__aeabi_fdiv+0xc0>
 800062a:	2201      	movs	r2, #1
 800062c:	1ad3      	subs	r3, r2, r3
 800062e:	2b1b      	cmp	r3, #27
 8000630:	dca2      	bgt.n	8000578 <__aeabi_fdiv+0xbc>
 8000632:	379e      	adds	r7, #158	; 0x9e
 8000634:	002a      	movs	r2, r5
 8000636:	40bd      	lsls	r5, r7
 8000638:	40da      	lsrs	r2, r3
 800063a:	1e6b      	subs	r3, r5, #1
 800063c:	419d      	sbcs	r5, r3
 800063e:	4315      	orrs	r5, r2
 8000640:	076a      	lsls	r2, r5, #29
 8000642:	d004      	beq.n	800064e <__aeabi_fdiv+0x192>
 8000644:	220f      	movs	r2, #15
 8000646:	402a      	ands	r2, r5
 8000648:	2a04      	cmp	r2, #4
 800064a:	d000      	beq.n	800064e <__aeabi_fdiv+0x192>
 800064c:	3504      	adds	r5, #4
 800064e:	016a      	lsls	r2, r5, #5
 8000650:	d544      	bpl.n	80006dc <__aeabi_fdiv+0x220>
 8000652:	2001      	movs	r0, #1
 8000654:	2200      	movs	r2, #0
 8000656:	e791      	b.n	800057c <__aeabi_fdiv+0xc0>
 8000658:	20ff      	movs	r0, #255	; 0xff
 800065a:	2200      	movs	r2, #0
 800065c:	e78e      	b.n	800057c <__aeabi_fdiv+0xc0>
 800065e:	2280      	movs	r2, #128	; 0x80
 8000660:	2600      	movs	r6, #0
 8000662:	20ff      	movs	r0, #255	; 0xff
 8000664:	03d2      	lsls	r2, r2, #15
 8000666:	e789      	b.n	800057c <__aeabi_fdiv+0xc0>
 8000668:	2300      	movs	r3, #0
 800066a:	4698      	mov	r8, r3
 800066c:	2280      	movs	r2, #128	; 0x80
 800066e:	03d2      	lsls	r2, r2, #15
 8000670:	4215      	tst	r5, r2
 8000672:	d008      	beq.n	8000686 <__aeabi_fdiv+0x1ca>
 8000674:	4643      	mov	r3, r8
 8000676:	4213      	tst	r3, r2
 8000678:	d105      	bne.n	8000686 <__aeabi_fdiv+0x1ca>
 800067a:	431a      	orrs	r2, r3
 800067c:	0252      	lsls	r2, r2, #9
 800067e:	0026      	movs	r6, r4
 8000680:	20ff      	movs	r0, #255	; 0xff
 8000682:	0a52      	lsrs	r2, r2, #9
 8000684:	e77a      	b.n	800057c <__aeabi_fdiv+0xc0>
 8000686:	2280      	movs	r2, #128	; 0x80
 8000688:	03d2      	lsls	r2, r2, #15
 800068a:	432a      	orrs	r2, r5
 800068c:	0252      	lsls	r2, r2, #9
 800068e:	20ff      	movs	r0, #255	; 0xff
 8000690:	0a52      	lsrs	r2, r2, #9
 8000692:	e773      	b.n	800057c <__aeabi_fdiv+0xc0>
 8000694:	4642      	mov	r2, r8
 8000696:	016b      	lsls	r3, r5, #5
 8000698:	0155      	lsls	r5, r2, #5
 800069a:	42ab      	cmp	r3, r5
 800069c:	d21a      	bcs.n	80006d4 <__aeabi_fdiv+0x218>
 800069e:	201b      	movs	r0, #27
 80006a0:	2200      	movs	r2, #0
 80006a2:	3f01      	subs	r7, #1
 80006a4:	2601      	movs	r6, #1
 80006a6:	001c      	movs	r4, r3
 80006a8:	0052      	lsls	r2, r2, #1
 80006aa:	005b      	lsls	r3, r3, #1
 80006ac:	2c00      	cmp	r4, #0
 80006ae:	db01      	blt.n	80006b4 <__aeabi_fdiv+0x1f8>
 80006b0:	429d      	cmp	r5, r3
 80006b2:	d801      	bhi.n	80006b8 <__aeabi_fdiv+0x1fc>
 80006b4:	1b5b      	subs	r3, r3, r5
 80006b6:	4332      	orrs	r2, r6
 80006b8:	3801      	subs	r0, #1
 80006ba:	2800      	cmp	r0, #0
 80006bc:	d1f3      	bne.n	80006a6 <__aeabi_fdiv+0x1ea>
 80006be:	1e58      	subs	r0, r3, #1
 80006c0:	4183      	sbcs	r3, r0
 80006c2:	4313      	orrs	r3, r2
 80006c4:	001d      	movs	r5, r3
 80006c6:	003b      	movs	r3, r7
 80006c8:	337f      	adds	r3, #127	; 0x7f
 80006ca:	000e      	movs	r6, r1
 80006cc:	2b00      	cmp	r3, #0
 80006ce:	dd00      	ble.n	80006d2 <__aeabi_fdiv+0x216>
 80006d0:	e73d      	b.n	800054e <__aeabi_fdiv+0x92>
 80006d2:	e7aa      	b.n	800062a <__aeabi_fdiv+0x16e>
 80006d4:	201a      	movs	r0, #26
 80006d6:	2201      	movs	r2, #1
 80006d8:	1b5b      	subs	r3, r3, r5
 80006da:	e7e3      	b.n	80006a4 <__aeabi_fdiv+0x1e8>
 80006dc:	01aa      	lsls	r2, r5, #6
 80006de:	2000      	movs	r0, #0
 80006e0:	0a52      	lsrs	r2, r2, #9
 80006e2:	e74b      	b.n	800057c <__aeabi_fdiv+0xc0>
 80006e4:	08007028 	.word	0x08007028
 80006e8:	f7ffffff 	.word	0xf7ffffff
 80006ec:	08007068 	.word	0x08007068

080006f0 <__aeabi_fmul>:
 80006f0:	0243      	lsls	r3, r0, #9
 80006f2:	0a5b      	lsrs	r3, r3, #9
 80006f4:	b5f0      	push	{r4, r5, r6, r7, lr}
 80006f6:	464f      	mov	r7, r9
 80006f8:	4646      	mov	r6, r8
 80006fa:	4699      	mov	r9, r3
 80006fc:	46d6      	mov	lr, sl
 80006fe:	0fc3      	lsrs	r3, r0, #31
 8000700:	0045      	lsls	r5, r0, #1
 8000702:	4698      	mov	r8, r3
 8000704:	b5c0      	push	{r6, r7, lr}
 8000706:	464b      	mov	r3, r9
 8000708:	1c0f      	adds	r7, r1, #0
 800070a:	0e2d      	lsrs	r5, r5, #24
 800070c:	d100      	bne.n	8000710 <__aeabi_fmul+0x20>
 800070e:	e0cb      	b.n	80008a8 <__aeabi_fmul+0x1b8>
 8000710:	2dff      	cmp	r5, #255	; 0xff
 8000712:	d100      	bne.n	8000716 <__aeabi_fmul+0x26>
 8000714:	e0cf      	b.n	80008b6 <__aeabi_fmul+0x1c6>
 8000716:	2280      	movs	r2, #128	; 0x80
 8000718:	00db      	lsls	r3, r3, #3
 800071a:	04d2      	lsls	r2, r2, #19
 800071c:	431a      	orrs	r2, r3
 800071e:	2300      	movs	r3, #0
 8000720:	4691      	mov	r9, r2
 8000722:	2600      	movs	r6, #0
 8000724:	469a      	mov	sl, r3
 8000726:	3d7f      	subs	r5, #127	; 0x7f
 8000728:	027c      	lsls	r4, r7, #9
 800072a:	007b      	lsls	r3, r7, #1
 800072c:	0a64      	lsrs	r4, r4, #9
 800072e:	0e1b      	lsrs	r3, r3, #24
 8000730:	0fff      	lsrs	r7, r7, #31
 8000732:	2b00      	cmp	r3, #0
 8000734:	d100      	bne.n	8000738 <__aeabi_fmul+0x48>
 8000736:	e0a9      	b.n	800088c <__aeabi_fmul+0x19c>
 8000738:	2bff      	cmp	r3, #255	; 0xff
 800073a:	d011      	beq.n	8000760 <__aeabi_fmul+0x70>
 800073c:	2280      	movs	r2, #128	; 0x80
 800073e:	00e4      	lsls	r4, r4, #3
 8000740:	04d2      	lsls	r2, r2, #19
 8000742:	4314      	orrs	r4, r2
 8000744:	4642      	mov	r2, r8
 8000746:	3b7f      	subs	r3, #127	; 0x7f
 8000748:	195b      	adds	r3, r3, r5
 800074a:	407a      	eors	r2, r7
 800074c:	2000      	movs	r0, #0
 800074e:	b2d2      	uxtb	r2, r2
 8000750:	1c5d      	adds	r5, r3, #1
 8000752:	2e0a      	cmp	r6, #10
 8000754:	dd13      	ble.n	800077e <__aeabi_fmul+0x8e>
 8000756:	003a      	movs	r2, r7
 8000758:	2e0b      	cmp	r6, #11
 800075a:	d047      	beq.n	80007ec <__aeabi_fmul+0xfc>
 800075c:	4647      	mov	r7, r8
 800075e:	e03f      	b.n	80007e0 <__aeabi_fmul+0xf0>
 8000760:	002b      	movs	r3, r5
 8000762:	33ff      	adds	r3, #255	; 0xff
 8000764:	2c00      	cmp	r4, #0
 8000766:	d11e      	bne.n	80007a6 <__aeabi_fmul+0xb6>
 8000768:	2202      	movs	r2, #2
 800076a:	4316      	orrs	r6, r2
 800076c:	4642      	mov	r2, r8
 800076e:	3501      	adds	r5, #1
 8000770:	407a      	eors	r2, r7
 8000772:	b2d2      	uxtb	r2, r2
 8000774:	35ff      	adds	r5, #255	; 0xff
 8000776:	2e0a      	cmp	r6, #10
 8000778:	dd00      	ble.n	800077c <__aeabi_fmul+0x8c>
 800077a:	e0e4      	b.n	8000946 <__aeabi_fmul+0x256>
 800077c:	2002      	movs	r0, #2
 800077e:	2e02      	cmp	r6, #2
 8000780:	dc1c      	bgt.n	80007bc <__aeabi_fmul+0xcc>
 8000782:	3e01      	subs	r6, #1
 8000784:	2e01      	cmp	r6, #1
 8000786:	d842      	bhi.n	800080e <__aeabi_fmul+0x11e>
 8000788:	2802      	cmp	r0, #2
 800078a:	d03d      	beq.n	8000808 <__aeabi_fmul+0x118>
 800078c:	2801      	cmp	r0, #1
 800078e:	d166      	bne.n	800085e <__aeabi_fmul+0x16e>
 8000790:	2000      	movs	r0, #0
 8000792:	2100      	movs	r1, #0
 8000794:	05c0      	lsls	r0, r0, #23
 8000796:	4308      	orrs	r0, r1
 8000798:	07d2      	lsls	r2, r2, #31
 800079a:	4310      	orrs	r0, r2
 800079c:	bce0      	pop	{r5, r6, r7}
 800079e:	46ba      	mov	sl, r7
 80007a0:	46b1      	mov	r9, r6
 80007a2:	46a8      	mov	r8, r5
 80007a4:	bdf0      	pop	{r4, r5, r6, r7, pc}
 80007a6:	2203      	movs	r2, #3
 80007a8:	4316      	orrs	r6, r2
 80007aa:	4642      	mov	r2, r8
 80007ac:	3501      	adds	r5, #1
 80007ae:	407a      	eors	r2, r7
 80007b0:	b2d2      	uxtb	r2, r2
 80007b2:	35ff      	adds	r5, #255	; 0xff
 80007b4:	2e0a      	cmp	r6, #10
 80007b6:	dd00      	ble.n	80007ba <__aeabi_fmul+0xca>
 80007b8:	e0e4      	b.n	8000984 <__aeabi_fmul+0x294>
 80007ba:	2003      	movs	r0, #3
 80007bc:	2101      	movs	r1, #1
 80007be:	40b1      	lsls	r1, r6
 80007c0:	26a6      	movs	r6, #166	; 0xa6
 80007c2:	00f6      	lsls	r6, r6, #3
 80007c4:	4231      	tst	r1, r6
 80007c6:	d10a      	bne.n	80007de <__aeabi_fmul+0xee>
 80007c8:	2690      	movs	r6, #144	; 0x90
 80007ca:	00b6      	lsls	r6, r6, #2
 80007cc:	4231      	tst	r1, r6
 80007ce:	d116      	bne.n	80007fe <__aeabi_fmul+0x10e>
 80007d0:	3eb9      	subs	r6, #185	; 0xb9
 80007d2:	3eff      	subs	r6, #255	; 0xff
 80007d4:	420e      	tst	r6, r1
 80007d6:	d01a      	beq.n	800080e <__aeabi_fmul+0x11e>
 80007d8:	46a1      	mov	r9, r4
 80007da:	4682      	mov	sl, r0
 80007dc:	e000      	b.n	80007e0 <__aeabi_fmul+0xf0>
 80007de:	0017      	movs	r7, r2
 80007e0:	4653      	mov	r3, sl
 80007e2:	003a      	movs	r2, r7
 80007e4:	2b02      	cmp	r3, #2
 80007e6:	d00f      	beq.n	8000808 <__aeabi_fmul+0x118>
 80007e8:	464c      	mov	r4, r9
 80007ea:	4650      	mov	r0, sl
 80007ec:	2803      	cmp	r0, #3
 80007ee:	d1cd      	bne.n	800078c <__aeabi_fmul+0x9c>
 80007f0:	2180      	movs	r1, #128	; 0x80
 80007f2:	03c9      	lsls	r1, r1, #15
 80007f4:	4321      	orrs	r1, r4
 80007f6:	0249      	lsls	r1, r1, #9
 80007f8:	20ff      	movs	r0, #255	; 0xff
 80007fa:	0a49      	lsrs	r1, r1, #9
 80007fc:	e7ca      	b.n	8000794 <__aeabi_fmul+0xa4>
 80007fe:	2180      	movs	r1, #128	; 0x80
 8000800:	2200      	movs	r2, #0
 8000802:	20ff      	movs	r0, #255	; 0xff
 8000804:	03c9      	lsls	r1, r1, #15
 8000806:	e7c5      	b.n	8000794 <__aeabi_fmul+0xa4>
 8000808:	20ff      	movs	r0, #255	; 0xff
 800080a:	2100      	movs	r1, #0
 800080c:	e7c2      	b.n	8000794 <__aeabi_fmul+0xa4>
 800080e:	0c20      	lsrs	r0, r4, #16
 8000810:	4649      	mov	r1, r9
 8000812:	0424      	lsls	r4, r4, #16
 8000814:	0c24      	lsrs	r4, r4, #16
 8000816:	0027      	movs	r7, r4
 8000818:	0c0e      	lsrs	r6, r1, #16
 800081a:	0409      	lsls	r1, r1, #16
 800081c:	0c09      	lsrs	r1, r1, #16
 800081e:	4374      	muls	r4, r6
 8000820:	434f      	muls	r7, r1
 8000822:	4346      	muls	r6, r0
 8000824:	4348      	muls	r0, r1
 8000826:	0c39      	lsrs	r1, r7, #16
 8000828:	1900      	adds	r0, r0, r4
 800082a:	1809      	adds	r1, r1, r0
 800082c:	428c      	cmp	r4, r1
 800082e:	d903      	bls.n	8000838 <__aeabi_fmul+0x148>
 8000830:	2080      	movs	r0, #128	; 0x80
 8000832:	0240      	lsls	r0, r0, #9
 8000834:	4684      	mov	ip, r0
 8000836:	4466      	add	r6, ip
 8000838:	043f      	lsls	r7, r7, #16
 800083a:	0408      	lsls	r0, r1, #16
 800083c:	0c3f      	lsrs	r7, r7, #16
 800083e:	19c0      	adds	r0, r0, r7
 8000840:	0184      	lsls	r4, r0, #6
 8000842:	1e67      	subs	r7, r4, #1
 8000844:	41bc      	sbcs	r4, r7
 8000846:	0c09      	lsrs	r1, r1, #16
 8000848:	0e80      	lsrs	r0, r0, #26
 800084a:	1989      	adds	r1, r1, r6
 800084c:	4304      	orrs	r4, r0
 800084e:	0189      	lsls	r1, r1, #6
 8000850:	430c      	orrs	r4, r1
 8000852:	0109      	lsls	r1, r1, #4
 8000854:	d571      	bpl.n	800093a <__aeabi_fmul+0x24a>
 8000856:	2301      	movs	r3, #1
 8000858:	0861      	lsrs	r1, r4, #1
 800085a:	401c      	ands	r4, r3
 800085c:	430c      	orrs	r4, r1
 800085e:	002b      	movs	r3, r5
 8000860:	337f      	adds	r3, #127	; 0x7f
 8000862:	2b00      	cmp	r3, #0
 8000864:	dd51      	ble.n	800090a <__aeabi_fmul+0x21a>
 8000866:	0761      	lsls	r1, r4, #29
 8000868:	d004      	beq.n	8000874 <__aeabi_fmul+0x184>
 800086a:	210f      	movs	r1, #15
 800086c:	4021      	ands	r1, r4
 800086e:	2904      	cmp	r1, #4
 8000870:	d000      	beq.n	8000874 <__aeabi_fmul+0x184>
 8000872:	3404      	adds	r4, #4
 8000874:	0121      	lsls	r1, r4, #4
 8000876:	d503      	bpl.n	8000880 <__aeabi_fmul+0x190>
 8000878:	4b43      	ldr	r3, [pc, #268]	; (8000988 <__aeabi_fmul+0x298>)
 800087a:	401c      	ands	r4, r3
 800087c:	002b      	movs	r3, r5
 800087e:	3380      	adds	r3, #128	; 0x80
 8000880:	2bfe      	cmp	r3, #254	; 0xfe
 8000882:	dcc1      	bgt.n	8000808 <__aeabi_fmul+0x118>
 8000884:	01a1      	lsls	r1, r4, #6
 8000886:	0a49      	lsrs	r1, r1, #9
 8000888:	b2d8      	uxtb	r0, r3
 800088a:	e783      	b.n	8000794 <__aeabi_fmul+0xa4>
 800088c:	2c00      	cmp	r4, #0
 800088e:	d12c      	bne.n	80008ea <__aeabi_fmul+0x1fa>
 8000890:	2301      	movs	r3, #1
 8000892:	4642      	mov	r2, r8
 8000894:	431e      	orrs	r6, r3
 8000896:	002b      	movs	r3, r5
 8000898:	407a      	eors	r2, r7
 800089a:	2001      	movs	r0, #1
 800089c:	b2d2      	uxtb	r2, r2
 800089e:	1c5d      	adds	r5, r3, #1
 80008a0:	2e0a      	cmp	r6, #10
 80008a2:	dd00      	ble.n	80008a6 <__aeabi_fmul+0x1b6>
 80008a4:	e757      	b.n	8000756 <__aeabi_fmul+0x66>
 80008a6:	e76a      	b.n	800077e <__aeabi_fmul+0x8e>
 80008a8:	2b00      	cmp	r3, #0
 80008aa:	d110      	bne.n	80008ce <__aeabi_fmul+0x1de>
 80008ac:	2301      	movs	r3, #1
 80008ae:	2604      	movs	r6, #4
 80008b0:	2500      	movs	r5, #0
 80008b2:	469a      	mov	sl, r3
 80008b4:	e738      	b.n	8000728 <__aeabi_fmul+0x38>
 80008b6:	2b00      	cmp	r3, #0
 80008b8:	d104      	bne.n	80008c4 <__aeabi_fmul+0x1d4>
 80008ba:	2302      	movs	r3, #2
 80008bc:	2608      	movs	r6, #8
 80008be:	25ff      	movs	r5, #255	; 0xff
 80008c0:	469a      	mov	sl, r3
 80008c2:	e731      	b.n	8000728 <__aeabi_fmul+0x38>
 80008c4:	2303      	movs	r3, #3
 80008c6:	260c      	movs	r6, #12
 80008c8:	25ff      	movs	r5, #255	; 0xff
 80008ca:	469a      	mov	sl, r3
 80008cc:	e72c      	b.n	8000728 <__aeabi_fmul+0x38>
 80008ce:	4648      	mov	r0, r9
 80008d0:	f000 fa9e 	bl	8000e10 <__clzsi2>
 80008d4:	464a      	mov	r2, r9
 80008d6:	1f43      	subs	r3, r0, #5
 80008d8:	2576      	movs	r5, #118	; 0x76
 80008da:	409a      	lsls	r2, r3
 80008dc:	2300      	movs	r3, #0
 80008de:	426d      	negs	r5, r5
 80008e0:	4691      	mov	r9, r2
 80008e2:	2600      	movs	r6, #0
 80008e4:	469a      	mov	sl, r3
 80008e6:	1a2d      	subs	r5, r5, r0
 80008e8:	e71e      	b.n	8000728 <__aeabi_fmul+0x38>
 80008ea:	0020      	movs	r0, r4
 80008ec:	f000 fa90 	bl	8000e10 <__clzsi2>
 80008f0:	4642      	mov	r2, r8
 80008f2:	1f43      	subs	r3, r0, #5
 80008f4:	409c      	lsls	r4, r3
 80008f6:	1a2b      	subs	r3, r5, r0
 80008f8:	3b76      	subs	r3, #118	; 0x76
 80008fa:	407a      	eors	r2, r7
 80008fc:	2000      	movs	r0, #0
 80008fe:	b2d2      	uxtb	r2, r2
 8000900:	1c5d      	adds	r5, r3, #1
 8000902:	2e0a      	cmp	r6, #10
 8000904:	dd00      	ble.n	8000908 <__aeabi_fmul+0x218>
 8000906:	e726      	b.n	8000756 <__aeabi_fmul+0x66>
 8000908:	e739      	b.n	800077e <__aeabi_fmul+0x8e>
 800090a:	2101      	movs	r1, #1
 800090c:	1acb      	subs	r3, r1, r3
 800090e:	2b1b      	cmp	r3, #27
 8000910:	dd00      	ble.n	8000914 <__aeabi_fmul+0x224>
 8000912:	e73d      	b.n	8000790 <__aeabi_fmul+0xa0>
 8000914:	359e      	adds	r5, #158	; 0x9e
 8000916:	0021      	movs	r1, r4
 8000918:	40ac      	lsls	r4, r5
 800091a:	40d9      	lsrs	r1, r3
 800091c:	1e63      	subs	r3, r4, #1
 800091e:	419c      	sbcs	r4, r3
 8000920:	4321      	orrs	r1, r4
 8000922:	074b      	lsls	r3, r1, #29
 8000924:	d004      	beq.n	8000930 <__aeabi_fmul+0x240>
 8000926:	230f      	movs	r3, #15
 8000928:	400b      	ands	r3, r1
 800092a:	2b04      	cmp	r3, #4
 800092c:	d000      	beq.n	8000930 <__aeabi_fmul+0x240>
 800092e:	3104      	adds	r1, #4
 8000930:	014b      	lsls	r3, r1, #5
 8000932:	d504      	bpl.n	800093e <__aeabi_fmul+0x24e>
 8000934:	2001      	movs	r0, #1
 8000936:	2100      	movs	r1, #0
 8000938:	e72c      	b.n	8000794 <__aeabi_fmul+0xa4>
 800093a:	001d      	movs	r5, r3
 800093c:	e78f      	b.n	800085e <__aeabi_fmul+0x16e>
 800093e:	0189      	lsls	r1, r1, #6
 8000940:	2000      	movs	r0, #0
 8000942:	0a49      	lsrs	r1, r1, #9
 8000944:	e726      	b.n	8000794 <__aeabi_fmul+0xa4>
 8000946:	2302      	movs	r3, #2
 8000948:	2e0f      	cmp	r6, #15
 800094a:	d10c      	bne.n	8000966 <__aeabi_fmul+0x276>
 800094c:	2180      	movs	r1, #128	; 0x80
 800094e:	464b      	mov	r3, r9
 8000950:	03c9      	lsls	r1, r1, #15
 8000952:	420b      	tst	r3, r1
 8000954:	d00d      	beq.n	8000972 <__aeabi_fmul+0x282>
 8000956:	420c      	tst	r4, r1
 8000958:	d10b      	bne.n	8000972 <__aeabi_fmul+0x282>
 800095a:	4321      	orrs	r1, r4
 800095c:	0249      	lsls	r1, r1, #9
 800095e:	003a      	movs	r2, r7
 8000960:	20ff      	movs	r0, #255	; 0xff
 8000962:	0a49      	lsrs	r1, r1, #9
 8000964:	e716      	b.n	8000794 <__aeabi_fmul+0xa4>
 8000966:	2e0b      	cmp	r6, #11
 8000968:	d000      	beq.n	800096c <__aeabi_fmul+0x27c>
 800096a:	e6f7      	b.n	800075c <__aeabi_fmul+0x6c>
 800096c:	46a1      	mov	r9, r4
 800096e:	469a      	mov	sl, r3
 8000970:	e736      	b.n	80007e0 <__aeabi_fmul+0xf0>
 8000972:	2180      	movs	r1, #128	; 0x80
 8000974:	464b      	mov	r3, r9
 8000976:	03c9      	lsls	r1, r1, #15
 8000978:	4319      	orrs	r1, r3
 800097a:	0249      	lsls	r1, r1, #9
 800097c:	4642      	mov	r2, r8
 800097e:	20ff      	movs	r0, #255	; 0xff
 8000980:	0a49      	lsrs	r1, r1, #9
 8000982:	e707      	b.n	8000794 <__aeabi_fmul+0xa4>
 8000984:	2303      	movs	r3, #3
 8000986:	e7df      	b.n	8000948 <__aeabi_fmul+0x258>
 8000988:	f7ffffff 	.word	0xf7ffffff

0800098c <__aeabi_fsub>:
 800098c:	b5f0      	push	{r4, r5, r6, r7, lr}
 800098e:	46c6      	mov	lr, r8
 8000990:	0243      	lsls	r3, r0, #9
 8000992:	0a5b      	lsrs	r3, r3, #9
 8000994:	0045      	lsls	r5, r0, #1
 8000996:	00da      	lsls	r2, r3, #3
 8000998:	0fc4      	lsrs	r4, r0, #31
 800099a:	0248      	lsls	r0, r1, #9
 800099c:	004f      	lsls	r7, r1, #1
 800099e:	4694      	mov	ip, r2
 80009a0:	0a42      	lsrs	r2, r0, #9
 80009a2:	001e      	movs	r6, r3
 80009a4:	4690      	mov	r8, r2
 80009a6:	b500      	push	{lr}
 80009a8:	0e2d      	lsrs	r5, r5, #24
 80009aa:	0e3f      	lsrs	r7, r7, #24
 80009ac:	0fc9      	lsrs	r1, r1, #31
 80009ae:	0980      	lsrs	r0, r0, #6
 80009b0:	2fff      	cmp	r7, #255	; 0xff
 80009b2:	d059      	beq.n	8000a68 <__aeabi_fsub+0xdc>
 80009b4:	2201      	movs	r2, #1
 80009b6:	4051      	eors	r1, r2
 80009b8:	428c      	cmp	r4, r1
 80009ba:	d039      	beq.n	8000a30 <__aeabi_fsub+0xa4>
 80009bc:	1bea      	subs	r2, r5, r7
 80009be:	2a00      	cmp	r2, #0
 80009c0:	dd58      	ble.n	8000a74 <__aeabi_fsub+0xe8>
 80009c2:	2f00      	cmp	r7, #0
 80009c4:	d068      	beq.n	8000a98 <__aeabi_fsub+0x10c>
 80009c6:	2dff      	cmp	r5, #255	; 0xff
 80009c8:	d100      	bne.n	80009cc <__aeabi_fsub+0x40>
 80009ca:	e0d1      	b.n	8000b70 <__aeabi_fsub+0x1e4>
 80009cc:	2380      	movs	r3, #128	; 0x80
 80009ce:	04db      	lsls	r3, r3, #19
 80009d0:	4318      	orrs	r0, r3
 80009d2:	2a1b      	cmp	r2, #27
 80009d4:	dc00      	bgt.n	80009d8 <__aeabi_fsub+0x4c>
 80009d6:	e0e3      	b.n	8000ba0 <__aeabi_fsub+0x214>
 80009d8:	2301      	movs	r3, #1
 80009da:	4662      	mov	r2, ip
 80009dc:	1ad3      	subs	r3, r2, r3
 80009de:	015a      	lsls	r2, r3, #5
 80009e0:	d400      	bmi.n	80009e4 <__aeabi_fsub+0x58>
 80009e2:	e0ac      	b.n	8000b3e <__aeabi_fsub+0x1b2>
 80009e4:	019b      	lsls	r3, r3, #6
 80009e6:	099e      	lsrs	r6, r3, #6
 80009e8:	0030      	movs	r0, r6
 80009ea:	f000 fa11 	bl	8000e10 <__clzsi2>
 80009ee:	0033      	movs	r3, r6
 80009f0:	3805      	subs	r0, #5
 80009f2:	4083      	lsls	r3, r0
 80009f4:	4285      	cmp	r5, r0
 80009f6:	dc00      	bgt.n	80009fa <__aeabi_fsub+0x6e>
 80009f8:	e0c6      	b.n	8000b88 <__aeabi_fsub+0x1fc>
 80009fa:	4ab2      	ldr	r2, [pc, #712]	; (8000cc4 <__aeabi_fsub+0x338>)
 80009fc:	1a2d      	subs	r5, r5, r0
 80009fe:	4013      	ands	r3, r2
 8000a00:	075a      	lsls	r2, r3, #29
 8000a02:	d004      	beq.n	8000a0e <__aeabi_fsub+0x82>
 8000a04:	220f      	movs	r2, #15
 8000a06:	401a      	ands	r2, r3
 8000a08:	2a04      	cmp	r2, #4
 8000a0a:	d000      	beq.n	8000a0e <__aeabi_fsub+0x82>
 8000a0c:	3304      	adds	r3, #4
 8000a0e:	015a      	lsls	r2, r3, #5
 8000a10:	d400      	bmi.n	8000a14 <__aeabi_fsub+0x88>
 8000a12:	e097      	b.n	8000b44 <__aeabi_fsub+0x1b8>
 8000a14:	1c6a      	adds	r2, r5, #1
 8000a16:	2dfe      	cmp	r5, #254	; 0xfe
 8000a18:	d100      	bne.n	8000a1c <__aeabi_fsub+0x90>
 8000a1a:	e084      	b.n	8000b26 <__aeabi_fsub+0x19a>
 8000a1c:	019b      	lsls	r3, r3, #6
 8000a1e:	0a5e      	lsrs	r6, r3, #9
 8000a20:	b2d2      	uxtb	r2, r2
 8000a22:	05d0      	lsls	r0, r2, #23
 8000a24:	4330      	orrs	r0, r6
 8000a26:	07e4      	lsls	r4, r4, #31
 8000a28:	4320      	orrs	r0, r4
 8000a2a:	bc80      	pop	{r7}
 8000a2c:	46b8      	mov	r8, r7
 8000a2e:	bdf0      	pop	{r4, r5, r6, r7, pc}
 8000a30:	1bea      	subs	r2, r5, r7
 8000a32:	2a00      	cmp	r2, #0
 8000a34:	dd41      	ble.n	8000aba <__aeabi_fsub+0x12e>
 8000a36:	2f00      	cmp	r7, #0
 8000a38:	d06b      	beq.n	8000b12 <__aeabi_fsub+0x186>
 8000a3a:	2dff      	cmp	r5, #255	; 0xff
 8000a3c:	d100      	bne.n	8000a40 <__aeabi_fsub+0xb4>
 8000a3e:	e097      	b.n	8000b70 <__aeabi_fsub+0x1e4>
 8000a40:	2380      	movs	r3, #128	; 0x80
 8000a42:	04db      	lsls	r3, r3, #19
 8000a44:	4318      	orrs	r0, r3
 8000a46:	2a1b      	cmp	r2, #27
 8000a48:	dc00      	bgt.n	8000a4c <__aeabi_fsub+0xc0>
 8000a4a:	e0cc      	b.n	8000be6 <__aeabi_fsub+0x25a>
 8000a4c:	2301      	movs	r3, #1
 8000a4e:	4463      	add	r3, ip
 8000a50:	015a      	lsls	r2, r3, #5
 8000a52:	d574      	bpl.n	8000b3e <__aeabi_fsub+0x1b2>
 8000a54:	3501      	adds	r5, #1
 8000a56:	2dff      	cmp	r5, #255	; 0xff
 8000a58:	d065      	beq.n	8000b26 <__aeabi_fsub+0x19a>
 8000a5a:	2201      	movs	r2, #1
 8000a5c:	499a      	ldr	r1, [pc, #616]	; (8000cc8 <__aeabi_fsub+0x33c>)
 8000a5e:	401a      	ands	r2, r3
 8000a60:	085b      	lsrs	r3, r3, #1
 8000a62:	400b      	ands	r3, r1
 8000a64:	4313      	orrs	r3, r2
 8000a66:	e7cb      	b.n	8000a00 <__aeabi_fsub+0x74>
 8000a68:	2800      	cmp	r0, #0
 8000a6a:	d01f      	beq.n	8000aac <__aeabi_fsub+0x120>
 8000a6c:	428c      	cmp	r4, r1
 8000a6e:	d022      	beq.n	8000ab6 <__aeabi_fsub+0x12a>
 8000a70:	002a      	movs	r2, r5
 8000a72:	3aff      	subs	r2, #255	; 0xff
 8000a74:	2a00      	cmp	r2, #0
 8000a76:	d035      	beq.n	8000ae4 <__aeabi_fsub+0x158>
 8000a78:	1b7a      	subs	r2, r7, r5
 8000a7a:	2d00      	cmp	r5, #0
 8000a7c:	d000      	beq.n	8000a80 <__aeabi_fsub+0xf4>
 8000a7e:	e099      	b.n	8000bb4 <__aeabi_fsub+0x228>
 8000a80:	4663      	mov	r3, ip
 8000a82:	2b00      	cmp	r3, #0
 8000a84:	d100      	bne.n	8000a88 <__aeabi_fsub+0xfc>
 8000a86:	e0dd      	b.n	8000c44 <__aeabi_fsub+0x2b8>
 8000a88:	1e53      	subs	r3, r2, #1
 8000a8a:	2a01      	cmp	r2, #1
 8000a8c:	d100      	bne.n	8000a90 <__aeabi_fsub+0x104>
 8000a8e:	e105      	b.n	8000c9c <__aeabi_fsub+0x310>
 8000a90:	2aff      	cmp	r2, #255	; 0xff
 8000a92:	d06b      	beq.n	8000b6c <__aeabi_fsub+0x1e0>
 8000a94:	001a      	movs	r2, r3
 8000a96:	e094      	b.n	8000bc2 <__aeabi_fsub+0x236>
 8000a98:	2800      	cmp	r0, #0
 8000a9a:	d073      	beq.n	8000b84 <__aeabi_fsub+0x1f8>
 8000a9c:	1e51      	subs	r1, r2, #1
 8000a9e:	2a01      	cmp	r2, #1
 8000aa0:	d100      	bne.n	8000aa4 <__aeabi_fsub+0x118>
 8000aa2:	e0df      	b.n	8000c64 <__aeabi_fsub+0x2d8>
 8000aa4:	2aff      	cmp	r2, #255	; 0xff
 8000aa6:	d063      	beq.n	8000b70 <__aeabi_fsub+0x1e4>
 8000aa8:	000a      	movs	r2, r1
 8000aaa:	e792      	b.n	80009d2 <__aeabi_fsub+0x46>
 8000aac:	2201      	movs	r2, #1
 8000aae:	4051      	eors	r1, r2
 8000ab0:	42a1      	cmp	r1, r4
 8000ab2:	d000      	beq.n	8000ab6 <__aeabi_fsub+0x12a>
 8000ab4:	e782      	b.n	80009bc <__aeabi_fsub+0x30>
 8000ab6:	002a      	movs	r2, r5
 8000ab8:	3aff      	subs	r2, #255	; 0xff
 8000aba:	2a00      	cmp	r2, #0
 8000abc:	d036      	beq.n	8000b2c <__aeabi_fsub+0x1a0>
 8000abe:	1b7a      	subs	r2, r7, r5
 8000ac0:	2d00      	cmp	r5, #0
 8000ac2:	d100      	bne.n	8000ac6 <__aeabi_fsub+0x13a>
 8000ac4:	e0aa      	b.n	8000c1c <__aeabi_fsub+0x290>
 8000ac6:	2fff      	cmp	r7, #255	; 0xff
 8000ac8:	d100      	bne.n	8000acc <__aeabi_fsub+0x140>
 8000aca:	e0da      	b.n	8000c82 <__aeabi_fsub+0x2f6>
 8000acc:	2380      	movs	r3, #128	; 0x80
 8000ace:	4661      	mov	r1, ip
 8000ad0:	04db      	lsls	r3, r3, #19
 8000ad2:	4319      	orrs	r1, r3
 8000ad4:	468c      	mov	ip, r1
 8000ad6:	2a1b      	cmp	r2, #27
 8000ad8:	dc00      	bgt.n	8000adc <__aeabi_fsub+0x150>
 8000ada:	e0d4      	b.n	8000c86 <__aeabi_fsub+0x2fa>
 8000adc:	2301      	movs	r3, #1
 8000ade:	003d      	movs	r5, r7
 8000ae0:	181b      	adds	r3, r3, r0
 8000ae2:	e7b5      	b.n	8000a50 <__aeabi_fsub+0xc4>
 8000ae4:	27fe      	movs	r7, #254	; 0xfe
 8000ae6:	1c6a      	adds	r2, r5, #1
 8000ae8:	4217      	tst	r7, r2
 8000aea:	d171      	bne.n	8000bd0 <__aeabi_fsub+0x244>
 8000aec:	2d00      	cmp	r5, #0
 8000aee:	d000      	beq.n	8000af2 <__aeabi_fsub+0x166>
 8000af0:	e09e      	b.n	8000c30 <__aeabi_fsub+0x2a4>
 8000af2:	4663      	mov	r3, ip
 8000af4:	2b00      	cmp	r3, #0
 8000af6:	d100      	bne.n	8000afa <__aeabi_fsub+0x16e>
 8000af8:	e0d5      	b.n	8000ca6 <__aeabi_fsub+0x31a>
 8000afa:	2200      	movs	r2, #0
 8000afc:	2800      	cmp	r0, #0
 8000afe:	d100      	bne.n	8000b02 <__aeabi_fsub+0x176>
 8000b00:	e78f      	b.n	8000a22 <__aeabi_fsub+0x96>
 8000b02:	1a1b      	subs	r3, r3, r0
 8000b04:	015e      	lsls	r6, r3, #5
 8000b06:	d400      	bmi.n	8000b0a <__aeabi_fsub+0x17e>
 8000b08:	e0d6      	b.n	8000cb8 <__aeabi_fsub+0x32c>
 8000b0a:	4663      	mov	r3, ip
 8000b0c:	000c      	movs	r4, r1
 8000b0e:	1ac3      	subs	r3, r0, r3
 8000b10:	e776      	b.n	8000a00 <__aeabi_fsub+0x74>
 8000b12:	2800      	cmp	r0, #0
 8000b14:	d036      	beq.n	8000b84 <__aeabi_fsub+0x1f8>
 8000b16:	1e51      	subs	r1, r2, #1
 8000b18:	2a01      	cmp	r2, #1
 8000b1a:	d100      	bne.n	8000b1e <__aeabi_fsub+0x192>
 8000b1c:	e09a      	b.n	8000c54 <__aeabi_fsub+0x2c8>
 8000b1e:	2aff      	cmp	r2, #255	; 0xff
 8000b20:	d026      	beq.n	8000b70 <__aeabi_fsub+0x1e4>
 8000b22:	000a      	movs	r2, r1
 8000b24:	e78f      	b.n	8000a46 <__aeabi_fsub+0xba>
 8000b26:	22ff      	movs	r2, #255	; 0xff
 8000b28:	2600      	movs	r6, #0
 8000b2a:	e77a      	b.n	8000a22 <__aeabi_fsub+0x96>
 8000b2c:	27fe      	movs	r7, #254	; 0xfe
 8000b2e:	1c6a      	adds	r2, r5, #1
 8000b30:	4217      	tst	r7, r2
 8000b32:	d062      	beq.n	8000bfa <__aeabi_fsub+0x26e>
 8000b34:	2aff      	cmp	r2, #255	; 0xff
 8000b36:	d0f6      	beq.n	8000b26 <__aeabi_fsub+0x19a>
 8000b38:	0015      	movs	r5, r2
 8000b3a:	4460      	add	r0, ip
 8000b3c:	0843      	lsrs	r3, r0, #1
 8000b3e:	075a      	lsls	r2, r3, #29
 8000b40:	d000      	beq.n	8000b44 <__aeabi_fsub+0x1b8>
 8000b42:	e75f      	b.n	8000a04 <__aeabi_fsub+0x78>
 8000b44:	08db      	lsrs	r3, r3, #3
 8000b46:	2dff      	cmp	r5, #255	; 0xff
 8000b48:	d012      	beq.n	8000b70 <__aeabi_fsub+0x1e4>
 8000b4a:	025b      	lsls	r3, r3, #9
 8000b4c:	0a5e      	lsrs	r6, r3, #9
 8000b4e:	b2ea      	uxtb	r2, r5
 8000b50:	e767      	b.n	8000a22 <__aeabi_fsub+0x96>
 8000b52:	4662      	mov	r2, ip
 8000b54:	2a00      	cmp	r2, #0
 8000b56:	d100      	bne.n	8000b5a <__aeabi_fsub+0x1ce>
 8000b58:	e093      	b.n	8000c82 <__aeabi_fsub+0x2f6>
 8000b5a:	2800      	cmp	r0, #0
 8000b5c:	d008      	beq.n	8000b70 <__aeabi_fsub+0x1e4>
 8000b5e:	2280      	movs	r2, #128	; 0x80
 8000b60:	03d2      	lsls	r2, r2, #15
 8000b62:	4213      	tst	r3, r2
 8000b64:	d004      	beq.n	8000b70 <__aeabi_fsub+0x1e4>
 8000b66:	4640      	mov	r0, r8
 8000b68:	4210      	tst	r0, r2
 8000b6a:	d101      	bne.n	8000b70 <__aeabi_fsub+0x1e4>
 8000b6c:	000c      	movs	r4, r1
 8000b6e:	4643      	mov	r3, r8
 8000b70:	2b00      	cmp	r3, #0
 8000b72:	d0d8      	beq.n	8000b26 <__aeabi_fsub+0x19a>
 8000b74:	2680      	movs	r6, #128	; 0x80
 8000b76:	03f6      	lsls	r6, r6, #15
 8000b78:	431e      	orrs	r6, r3
 8000b7a:	0276      	lsls	r6, r6, #9
 8000b7c:	22ff      	movs	r2, #255	; 0xff
 8000b7e:	0a76      	lsrs	r6, r6, #9
 8000b80:	e74f      	b.n	8000a22 <__aeabi_fsub+0x96>
 8000b82:	4643      	mov	r3, r8
 8000b84:	0015      	movs	r5, r2
 8000b86:	e7de      	b.n	8000b46 <__aeabi_fsub+0x1ba>
 8000b88:	2220      	movs	r2, #32
 8000b8a:	1b40      	subs	r0, r0, r5
 8000b8c:	3001      	adds	r0, #1
 8000b8e:	1a12      	subs	r2, r2, r0
 8000b90:	0019      	movs	r1, r3
 8000b92:	4093      	lsls	r3, r2
 8000b94:	40c1      	lsrs	r1, r0
 8000b96:	1e5a      	subs	r2, r3, #1
 8000b98:	4193      	sbcs	r3, r2
 8000b9a:	2500      	movs	r5, #0
 8000b9c:	430b      	orrs	r3, r1
 8000b9e:	e72f      	b.n	8000a00 <__aeabi_fsub+0x74>
 8000ba0:	2320      	movs	r3, #32
 8000ba2:	1a9b      	subs	r3, r3, r2
 8000ba4:	0001      	movs	r1, r0
 8000ba6:	4098      	lsls	r0, r3
 8000ba8:	0003      	movs	r3, r0
 8000baa:	40d1      	lsrs	r1, r2
 8000bac:	1e5a      	subs	r2, r3, #1
 8000bae:	4193      	sbcs	r3, r2
 8000bb0:	430b      	orrs	r3, r1
 8000bb2:	e712      	b.n	80009da <__aeabi_fsub+0x4e>
 8000bb4:	2fff      	cmp	r7, #255	; 0xff
 8000bb6:	d0d9      	beq.n	8000b6c <__aeabi_fsub+0x1e0>
 8000bb8:	2380      	movs	r3, #128	; 0x80
 8000bba:	4664      	mov	r4, ip
 8000bbc:	04db      	lsls	r3, r3, #19
 8000bbe:	431c      	orrs	r4, r3
 8000bc0:	46a4      	mov	ip, r4
 8000bc2:	2a1b      	cmp	r2, #27
 8000bc4:	dd52      	ble.n	8000c6c <__aeabi_fsub+0x2e0>
 8000bc6:	2301      	movs	r3, #1
 8000bc8:	000c      	movs	r4, r1
 8000bca:	003d      	movs	r5, r7
 8000bcc:	1ac3      	subs	r3, r0, r3
 8000bce:	e706      	b.n	80009de <__aeabi_fsub+0x52>
 8000bd0:	4663      	mov	r3, ip
 8000bd2:	1a1e      	subs	r6, r3, r0
 8000bd4:	0173      	lsls	r3, r6, #5
 8000bd6:	d439      	bmi.n	8000c4c <__aeabi_fsub+0x2c0>
 8000bd8:	2e00      	cmp	r6, #0
 8000bda:	d000      	beq.n	8000bde <__aeabi_fsub+0x252>
 8000bdc:	e704      	b.n	80009e8 <__aeabi_fsub+0x5c>
 8000bde:	2400      	movs	r4, #0
 8000be0:	2200      	movs	r2, #0
 8000be2:	2600      	movs	r6, #0
 8000be4:	e71d      	b.n	8000a22 <__aeabi_fsub+0x96>
 8000be6:	2320      	movs	r3, #32
 8000be8:	1a9b      	subs	r3, r3, r2
 8000bea:	0001      	movs	r1, r0
 8000bec:	4098      	lsls	r0, r3
 8000bee:	0003      	movs	r3, r0
 8000bf0:	40d1      	lsrs	r1, r2
 8000bf2:	1e5a      	subs	r2, r3, #1
 8000bf4:	4193      	sbcs	r3, r2
 8000bf6:	430b      	orrs	r3, r1
 8000bf8:	e729      	b.n	8000a4e <__aeabi_fsub+0xc2>
 8000bfa:	2d00      	cmp	r5, #0
 8000bfc:	d1a9      	bne.n	8000b52 <__aeabi_fsub+0x1c6>
 8000bfe:	4663      	mov	r3, ip
 8000c00:	2b00      	cmp	r3, #0
 8000c02:	d056      	beq.n	8000cb2 <__aeabi_fsub+0x326>
 8000c04:	2200      	movs	r2, #0
 8000c06:	2800      	cmp	r0, #0
 8000c08:	d100      	bne.n	8000c0c <__aeabi_fsub+0x280>
 8000c0a:	e70a      	b.n	8000a22 <__aeabi_fsub+0x96>
 8000c0c:	0003      	movs	r3, r0
 8000c0e:	4463      	add	r3, ip
 8000c10:	015a      	lsls	r2, r3, #5
 8000c12:	d594      	bpl.n	8000b3e <__aeabi_fsub+0x1b2>
 8000c14:	4a2b      	ldr	r2, [pc, #172]	; (8000cc4 <__aeabi_fsub+0x338>)
 8000c16:	3501      	adds	r5, #1
 8000c18:	4013      	ands	r3, r2
 8000c1a:	e790      	b.n	8000b3e <__aeabi_fsub+0x1b2>
 8000c1c:	4663      	mov	r3, ip
 8000c1e:	2b00      	cmp	r3, #0
 8000c20:	d0af      	beq.n	8000b82 <__aeabi_fsub+0x1f6>
 8000c22:	1e53      	subs	r3, r2, #1
 8000c24:	2a01      	cmp	r2, #1
 8000c26:	d015      	beq.n	8000c54 <__aeabi_fsub+0x2c8>
 8000c28:	2aff      	cmp	r2, #255	; 0xff
 8000c2a:	d02a      	beq.n	8000c82 <__aeabi_fsub+0x2f6>
 8000c2c:	001a      	movs	r2, r3
 8000c2e:	e752      	b.n	8000ad6 <__aeabi_fsub+0x14a>
 8000c30:	4662      	mov	r2, ip
 8000c32:	2a00      	cmp	r2, #0
 8000c34:	d191      	bne.n	8000b5a <__aeabi_fsub+0x1ce>
 8000c36:	2800      	cmp	r0, #0
 8000c38:	d198      	bne.n	8000b6c <__aeabi_fsub+0x1e0>
 8000c3a:	2680      	movs	r6, #128	; 0x80
 8000c3c:	2400      	movs	r4, #0
 8000c3e:	22ff      	movs	r2, #255	; 0xff
 8000c40:	03f6      	lsls	r6, r6, #15
 8000c42:	e6ee      	b.n	8000a22 <__aeabi_fsub+0x96>
 8000c44:	000c      	movs	r4, r1
 8000c46:	4643      	mov	r3, r8
 8000c48:	0015      	movs	r5, r2
 8000c4a:	e77c      	b.n	8000b46 <__aeabi_fsub+0x1ba>
 8000c4c:	4663      	mov	r3, ip
 8000c4e:	000c      	movs	r4, r1
 8000c50:	1ac6      	subs	r6, r0, r3
 8000c52:	e6c9      	b.n	80009e8 <__aeabi_fsub+0x5c>
 8000c54:	0003      	movs	r3, r0
 8000c56:	4463      	add	r3, ip
 8000c58:	2501      	movs	r5, #1
 8000c5a:	015a      	lsls	r2, r3, #5
 8000c5c:	d400      	bmi.n	8000c60 <__aeabi_fsub+0x2d4>
 8000c5e:	e76e      	b.n	8000b3e <__aeabi_fsub+0x1b2>
 8000c60:	2502      	movs	r5, #2
 8000c62:	e6fa      	b.n	8000a5a <__aeabi_fsub+0xce>
 8000c64:	4663      	mov	r3, ip
 8000c66:	2501      	movs	r5, #1
 8000c68:	1a1b      	subs	r3, r3, r0
 8000c6a:	e6b8      	b.n	80009de <__aeabi_fsub+0x52>
 8000c6c:	4664      	mov	r4, ip
 8000c6e:	2320      	movs	r3, #32
 8000c70:	40d4      	lsrs	r4, r2
 8000c72:	1a9b      	subs	r3, r3, r2
 8000c74:	4662      	mov	r2, ip
 8000c76:	409a      	lsls	r2, r3
 8000c78:	0013      	movs	r3, r2
 8000c7a:	1e5a      	subs	r2, r3, #1
 8000c7c:	4193      	sbcs	r3, r2
 8000c7e:	4323      	orrs	r3, r4
 8000c80:	e7a2      	b.n	8000bc8 <__aeabi_fsub+0x23c>
 8000c82:	4643      	mov	r3, r8
 8000c84:	e774      	b.n	8000b70 <__aeabi_fsub+0x1e4>
 8000c86:	4661      	mov	r1, ip
 8000c88:	2320      	movs	r3, #32
 8000c8a:	40d1      	lsrs	r1, r2
 8000c8c:	1a9b      	subs	r3, r3, r2
 8000c8e:	4662      	mov	r2, ip
 8000c90:	409a      	lsls	r2, r3
 8000c92:	0013      	movs	r3, r2
 8000c94:	1e5a      	subs	r2, r3, #1
 8000c96:	4193      	sbcs	r3, r2
 8000c98:	430b      	orrs	r3, r1
 8000c9a:	e720      	b.n	8000ade <__aeabi_fsub+0x152>
 8000c9c:	4663      	mov	r3, ip
 8000c9e:	000c      	movs	r4, r1
 8000ca0:	2501      	movs	r5, #1
 8000ca2:	1ac3      	subs	r3, r0, r3
 8000ca4:	e69b      	b.n	80009de <__aeabi_fsub+0x52>
 8000ca6:	2800      	cmp	r0, #0
 8000ca8:	d099      	beq.n	8000bde <__aeabi_fsub+0x252>
 8000caa:	000c      	movs	r4, r1
 8000cac:	4646      	mov	r6, r8
 8000cae:	2200      	movs	r2, #0
 8000cb0:	e6b7      	b.n	8000a22 <__aeabi_fsub+0x96>
 8000cb2:	4646      	mov	r6, r8
 8000cb4:	2200      	movs	r2, #0
 8000cb6:	e6b4      	b.n	8000a22 <__aeabi_fsub+0x96>
 8000cb8:	2b00      	cmp	r3, #0
 8000cba:	d000      	beq.n	8000cbe <__aeabi_fsub+0x332>
 8000cbc:	e73f      	b.n	8000b3e <__aeabi_fsub+0x1b2>
 8000cbe:	2400      	movs	r4, #0
 8000cc0:	2600      	movs	r6, #0
 8000cc2:	e6ae      	b.n	8000a22 <__aeabi_fsub+0x96>
 8000cc4:	fbffffff 	.word	0xfbffffff
 8000cc8:	7dffffff 	.word	0x7dffffff

08000ccc <__aeabi_f2iz>:
 8000ccc:	0241      	lsls	r1, r0, #9
 8000cce:	0042      	lsls	r2, r0, #1
 8000cd0:	0fc3      	lsrs	r3, r0, #31
 8000cd2:	0a49      	lsrs	r1, r1, #9
 8000cd4:	2000      	movs	r0, #0
 8000cd6:	0e12      	lsrs	r2, r2, #24
 8000cd8:	2a7e      	cmp	r2, #126	; 0x7e
 8000cda:	dd03      	ble.n	8000ce4 <__aeabi_f2iz+0x18>
 8000cdc:	2a9d      	cmp	r2, #157	; 0x9d
 8000cde:	dd02      	ble.n	8000ce6 <__aeabi_f2iz+0x1a>
 8000ce0:	4a09      	ldr	r2, [pc, #36]	; (8000d08 <__aeabi_f2iz+0x3c>)
 8000ce2:	1898      	adds	r0, r3, r2
 8000ce4:	4770      	bx	lr
 8000ce6:	2080      	movs	r0, #128	; 0x80
 8000ce8:	0400      	lsls	r0, r0, #16
 8000cea:	4301      	orrs	r1, r0
 8000cec:	2a95      	cmp	r2, #149	; 0x95
 8000cee:	dc07      	bgt.n	8000d00 <__aeabi_f2iz+0x34>
 8000cf0:	2096      	movs	r0, #150	; 0x96
 8000cf2:	1a82      	subs	r2, r0, r2
 8000cf4:	40d1      	lsrs	r1, r2
 8000cf6:	4248      	negs	r0, r1
 8000cf8:	2b00      	cmp	r3, #0
 8000cfa:	d1f3      	bne.n	8000ce4 <__aeabi_f2iz+0x18>
 8000cfc:	0008      	movs	r0, r1
 8000cfe:	e7f1      	b.n	8000ce4 <__aeabi_f2iz+0x18>
 8000d00:	3a96      	subs	r2, #150	; 0x96
 8000d02:	4091      	lsls	r1, r2
 8000d04:	e7f7      	b.n	8000cf6 <__aeabi_f2iz+0x2a>
 8000d06:	46c0      	nop			; (mov r8, r8)
 8000d08:	7fffffff 	.word	0x7fffffff

08000d0c <__aeabi_ui2f>:
 8000d0c:	b570      	push	{r4, r5, r6, lr}
 8000d0e:	1e04      	subs	r4, r0, #0
 8000d10:	d00e      	beq.n	8000d30 <__aeabi_ui2f+0x24>
 8000d12:	f000 f87d 	bl	8000e10 <__clzsi2>
 8000d16:	239e      	movs	r3, #158	; 0x9e
 8000d18:	0001      	movs	r1, r0
 8000d1a:	1a1b      	subs	r3, r3, r0
 8000d1c:	2b96      	cmp	r3, #150	; 0x96
 8000d1e:	dc0c      	bgt.n	8000d3a <__aeabi_ui2f+0x2e>
 8000d20:	2808      	cmp	r0, #8
 8000d22:	d02c      	beq.n	8000d7e <__aeabi_ui2f+0x72>
 8000d24:	3908      	subs	r1, #8
 8000d26:	408c      	lsls	r4, r1
 8000d28:	0264      	lsls	r4, r4, #9
 8000d2a:	0a64      	lsrs	r4, r4, #9
 8000d2c:	b2d8      	uxtb	r0, r3
 8000d2e:	e001      	b.n	8000d34 <__aeabi_ui2f+0x28>
 8000d30:	2000      	movs	r0, #0
 8000d32:	2400      	movs	r4, #0
 8000d34:	05c0      	lsls	r0, r0, #23
 8000d36:	4320      	orrs	r0, r4
 8000d38:	bd70      	pop	{r4, r5, r6, pc}
 8000d3a:	2b99      	cmp	r3, #153	; 0x99
 8000d3c:	dd0a      	ble.n	8000d54 <__aeabi_ui2f+0x48>
 8000d3e:	0002      	movs	r2, r0
 8000d40:	0020      	movs	r0, r4
 8000d42:	321b      	adds	r2, #27
 8000d44:	4090      	lsls	r0, r2
 8000d46:	0002      	movs	r2, r0
 8000d48:	1e50      	subs	r0, r2, #1
 8000d4a:	4182      	sbcs	r2, r0
 8000d4c:	2005      	movs	r0, #5
 8000d4e:	1a40      	subs	r0, r0, r1
 8000d50:	40c4      	lsrs	r4, r0
 8000d52:	4314      	orrs	r4, r2
 8000d54:	2905      	cmp	r1, #5
 8000d56:	dc16      	bgt.n	8000d86 <__aeabi_ui2f+0x7a>
 8000d58:	0022      	movs	r2, r4
 8000d5a:	480f      	ldr	r0, [pc, #60]	; (8000d98 <__aeabi_ui2f+0x8c>)
 8000d5c:	4002      	ands	r2, r0
 8000d5e:	0765      	lsls	r5, r4, #29
 8000d60:	d009      	beq.n	8000d76 <__aeabi_ui2f+0x6a>
 8000d62:	250f      	movs	r5, #15
 8000d64:	402c      	ands	r4, r5
 8000d66:	2c04      	cmp	r4, #4
 8000d68:	d005      	beq.n	8000d76 <__aeabi_ui2f+0x6a>
 8000d6a:	3204      	adds	r2, #4
 8000d6c:	0154      	lsls	r4, r2, #5
 8000d6e:	d502      	bpl.n	8000d76 <__aeabi_ui2f+0x6a>
 8000d70:	239f      	movs	r3, #159	; 0x9f
 8000d72:	4002      	ands	r2, r0
 8000d74:	1a5b      	subs	r3, r3, r1
 8000d76:	0192      	lsls	r2, r2, #6
 8000d78:	0a54      	lsrs	r4, r2, #9
 8000d7a:	b2d8      	uxtb	r0, r3
 8000d7c:	e7da      	b.n	8000d34 <__aeabi_ui2f+0x28>
 8000d7e:	0264      	lsls	r4, r4, #9
 8000d80:	2096      	movs	r0, #150	; 0x96
 8000d82:	0a64      	lsrs	r4, r4, #9
 8000d84:	e7d6      	b.n	8000d34 <__aeabi_ui2f+0x28>
 8000d86:	1f4a      	subs	r2, r1, #5
 8000d88:	4094      	lsls	r4, r2
 8000d8a:	0022      	movs	r2, r4
 8000d8c:	4802      	ldr	r0, [pc, #8]	; (8000d98 <__aeabi_ui2f+0x8c>)
 8000d8e:	4002      	ands	r2, r0
 8000d90:	0765      	lsls	r5, r4, #29
 8000d92:	d0f0      	beq.n	8000d76 <__aeabi_ui2f+0x6a>
 8000d94:	e7e5      	b.n	8000d62 <__aeabi_ui2f+0x56>
 8000d96:	46c0      	nop			; (mov r8, r8)
 8000d98:	fbffffff 	.word	0xfbffffff

08000d9c <__aeabi_cfrcmple>:
 8000d9c:	4684      	mov	ip, r0
 8000d9e:	0008      	movs	r0, r1
 8000da0:	4661      	mov	r1, ip
 8000da2:	e7ff      	b.n	8000da4 <__aeabi_cfcmpeq>

08000da4 <__aeabi_cfcmpeq>:
 8000da4:	b51f      	push	{r0, r1, r2, r3, r4, lr}
 8000da6:	f000 f8c9 	bl	8000f3c <__lesf2>
 8000daa:	2800      	cmp	r0, #0
 8000dac:	d401      	bmi.n	8000db2 <__aeabi_cfcmpeq+0xe>
 8000dae:	2100      	movs	r1, #0
 8000db0:	42c8      	cmn	r0, r1
 8000db2:	bd1f      	pop	{r0, r1, r2, r3, r4, pc}

08000db4 <__aeabi_fcmpeq>:
 8000db4:	b510      	push	{r4, lr}
 8000db6:	f000 f855 	bl	8000e64 <__eqsf2>
 8000dba:	4240      	negs	r0, r0
 8000dbc:	3001      	adds	r0, #1
 8000dbe:	bd10      	pop	{r4, pc}

08000dc0 <__aeabi_fcmplt>:
 8000dc0:	b510      	push	{r4, lr}
 8000dc2:	f000 f8bb 	bl	8000f3c <__lesf2>
 8000dc6:	2800      	cmp	r0, #0
 8000dc8:	db01      	blt.n	8000dce <__aeabi_fcmplt+0xe>
 8000dca:	2000      	movs	r0, #0
 8000dcc:	bd10      	pop	{r4, pc}
 8000dce:	2001      	movs	r0, #1
 8000dd0:	bd10      	pop	{r4, pc}
 8000dd2:	46c0      	nop			; (mov r8, r8)

08000dd4 <__aeabi_fcmple>:
 8000dd4:	b510      	push	{r4, lr}
 8000dd6:	f000 f8b1 	bl	8000f3c <__lesf2>
 8000dda:	2800      	cmp	r0, #0
 8000ddc:	dd01      	ble.n	8000de2 <__aeabi_fcmple+0xe>
 8000dde:	2000      	movs	r0, #0
 8000de0:	bd10      	pop	{r4, pc}
 8000de2:	2001      	movs	r0, #1
 8000de4:	bd10      	pop	{r4, pc}
 8000de6:	46c0      	nop			; (mov r8, r8)

08000de8 <__aeabi_fcmpgt>:
 8000de8:	b510      	push	{r4, lr}
 8000dea:	f000 f861 	bl	8000eb0 <__gesf2>
 8000dee:	2800      	cmp	r0, #0
 8000df0:	dc01      	bgt.n	8000df6 <__aeabi_fcmpgt+0xe>
 8000df2:	2000      	movs	r0, #0
 8000df4:	bd10      	pop	{r4, pc}
 8000df6:	2001      	movs	r0, #1
 8000df8:	bd10      	pop	{r4, pc}
 8000dfa:	46c0      	nop			; (mov r8, r8)

08000dfc <__aeabi_fcmpge>:
 8000dfc:	b510      	push	{r4, lr}
 8000dfe:	f000 f857 	bl	8000eb0 <__gesf2>
 8000e02:	2800      	cmp	r0, #0
 8000e04:	da01      	bge.n	8000e0a <__aeabi_fcmpge+0xe>
 8000e06:	2000      	movs	r0, #0
 8000e08:	bd10      	pop	{r4, pc}
 8000e0a:	2001      	movs	r0, #1
 8000e0c:	bd10      	pop	{r4, pc}
 8000e0e:	46c0      	nop			; (mov r8, r8)

08000e10 <__clzsi2>:
 8000e10:	211c      	movs	r1, #28
 8000e12:	2301      	movs	r3, #1
 8000e14:	041b      	lsls	r3, r3, #16
 8000e16:	4298      	cmp	r0, r3
 8000e18:	d301      	bcc.n	8000e1e <__clzsi2+0xe>
 8000e1a:	0c00      	lsrs	r0, r0, #16
 8000e1c:	3910      	subs	r1, #16
 8000e1e:	0a1b      	lsrs	r3, r3, #8
 8000e20:	4298      	cmp	r0, r3
 8000e22:	d301      	bcc.n	8000e28 <__clzsi2+0x18>
 8000e24:	0a00      	lsrs	r0, r0, #8
 8000e26:	3908      	subs	r1, #8
 8000e28:	091b      	lsrs	r3, r3, #4
 8000e2a:	4298      	cmp	r0, r3
 8000e2c:	d301      	bcc.n	8000e32 <__clzsi2+0x22>
 8000e2e:	0900      	lsrs	r0, r0, #4
 8000e30:	3904      	subs	r1, #4
 8000e32:	a202      	add	r2, pc, #8	; (adr r2, 8000e3c <__clzsi2+0x2c>)
 8000e34:	5c10      	ldrb	r0, [r2, r0]
 8000e36:	1840      	adds	r0, r0, r1
 8000e38:	4770      	bx	lr
 8000e3a:	46c0      	nop			; (mov r8, r8)
 8000e3c:	02020304 	.word	0x02020304
 8000e40:	01010101 	.word	0x01010101
	...

08000e4c <__clzdi2>:
 8000e4c:	b510      	push	{r4, lr}
 8000e4e:	2900      	cmp	r1, #0
 8000e50:	d103      	bne.n	8000e5a <__clzdi2+0xe>
 8000e52:	f7ff ffdd 	bl	8000e10 <__clzsi2>
 8000e56:	3020      	adds	r0, #32
 8000e58:	e002      	b.n	8000e60 <__clzdi2+0x14>
 8000e5a:	0008      	movs	r0, r1
 8000e5c:	f7ff ffd8 	bl	8000e10 <__clzsi2>
 8000e60:	bd10      	pop	{r4, pc}
 8000e62:	46c0      	nop			; (mov r8, r8)

08000e64 <__eqsf2>:
 8000e64:	b570      	push	{r4, r5, r6, lr}
 8000e66:	0042      	lsls	r2, r0, #1
 8000e68:	0245      	lsls	r5, r0, #9
 8000e6a:	024e      	lsls	r6, r1, #9
 8000e6c:	004c      	lsls	r4, r1, #1
 8000e6e:	0fc3      	lsrs	r3, r0, #31
 8000e70:	0a6d      	lsrs	r5, r5, #9
 8000e72:	2001      	movs	r0, #1
 8000e74:	0e12      	lsrs	r2, r2, #24
 8000e76:	0a76      	lsrs	r6, r6, #9
 8000e78:	0e24      	lsrs	r4, r4, #24
 8000e7a:	0fc9      	lsrs	r1, r1, #31
 8000e7c:	2aff      	cmp	r2, #255	; 0xff
 8000e7e:	d006      	beq.n	8000e8e <__eqsf2+0x2a>
 8000e80:	2cff      	cmp	r4, #255	; 0xff
 8000e82:	d003      	beq.n	8000e8c <__eqsf2+0x28>
 8000e84:	42a2      	cmp	r2, r4
 8000e86:	d101      	bne.n	8000e8c <__eqsf2+0x28>
 8000e88:	42b5      	cmp	r5, r6
 8000e8a:	d006      	beq.n	8000e9a <__eqsf2+0x36>
 8000e8c:	bd70      	pop	{r4, r5, r6, pc}
 8000e8e:	2d00      	cmp	r5, #0
 8000e90:	d1fc      	bne.n	8000e8c <__eqsf2+0x28>
 8000e92:	2cff      	cmp	r4, #255	; 0xff
 8000e94:	d1fa      	bne.n	8000e8c <__eqsf2+0x28>
 8000e96:	2e00      	cmp	r6, #0
 8000e98:	d1f8      	bne.n	8000e8c <__eqsf2+0x28>
 8000e9a:	428b      	cmp	r3, r1
 8000e9c:	d006      	beq.n	8000eac <__eqsf2+0x48>
 8000e9e:	2001      	movs	r0, #1
 8000ea0:	2a00      	cmp	r2, #0
 8000ea2:	d1f3      	bne.n	8000e8c <__eqsf2+0x28>
 8000ea4:	0028      	movs	r0, r5
 8000ea6:	1e43      	subs	r3, r0, #1
 8000ea8:	4198      	sbcs	r0, r3
 8000eaa:	e7ef      	b.n	8000e8c <__eqsf2+0x28>
 8000eac:	2000      	movs	r0, #0
 8000eae:	e7ed      	b.n	8000e8c <__eqsf2+0x28>

08000eb0 <__gesf2>:
 8000eb0:	b570      	push	{r4, r5, r6, lr}
 8000eb2:	0042      	lsls	r2, r0, #1
 8000eb4:	0245      	lsls	r5, r0, #9
 8000eb6:	024e      	lsls	r6, r1, #9
 8000eb8:	004c      	lsls	r4, r1, #1
 8000eba:	0fc3      	lsrs	r3, r0, #31
 8000ebc:	0a6d      	lsrs	r5, r5, #9
 8000ebe:	0e12      	lsrs	r2, r2, #24
 8000ec0:	0a76      	lsrs	r6, r6, #9
 8000ec2:	0e24      	lsrs	r4, r4, #24
 8000ec4:	0fc8      	lsrs	r0, r1, #31
 8000ec6:	2aff      	cmp	r2, #255	; 0xff
 8000ec8:	d01b      	beq.n	8000f02 <__gesf2+0x52>
 8000eca:	2cff      	cmp	r4, #255	; 0xff
 8000ecc:	d00e      	beq.n	8000eec <__gesf2+0x3c>
 8000ece:	2a00      	cmp	r2, #0
 8000ed0:	d11b      	bne.n	8000f0a <__gesf2+0x5a>
 8000ed2:	2c00      	cmp	r4, #0
 8000ed4:	d101      	bne.n	8000eda <__gesf2+0x2a>
 8000ed6:	2e00      	cmp	r6, #0
 8000ed8:	d01c      	beq.n	8000f14 <__gesf2+0x64>
 8000eda:	2d00      	cmp	r5, #0
 8000edc:	d00c      	beq.n	8000ef8 <__gesf2+0x48>
 8000ede:	4283      	cmp	r3, r0
 8000ee0:	d01c      	beq.n	8000f1c <__gesf2+0x6c>
 8000ee2:	2102      	movs	r1, #2
 8000ee4:	1e58      	subs	r0, r3, #1
 8000ee6:	4008      	ands	r0, r1
 8000ee8:	3801      	subs	r0, #1
 8000eea:	bd70      	pop	{r4, r5, r6, pc}
 8000eec:	2e00      	cmp	r6, #0
 8000eee:	d122      	bne.n	8000f36 <__gesf2+0x86>
 8000ef0:	2a00      	cmp	r2, #0
 8000ef2:	d1f4      	bne.n	8000ede <__gesf2+0x2e>
 8000ef4:	2d00      	cmp	r5, #0
 8000ef6:	d1f2      	bne.n	8000ede <__gesf2+0x2e>
 8000ef8:	2800      	cmp	r0, #0
 8000efa:	d1f6      	bne.n	8000eea <__gesf2+0x3a>
 8000efc:	2001      	movs	r0, #1
 8000efe:	4240      	negs	r0, r0
 8000f00:	e7f3      	b.n	8000eea <__gesf2+0x3a>
 8000f02:	2d00      	cmp	r5, #0
 8000f04:	d117      	bne.n	8000f36 <__gesf2+0x86>
 8000f06:	2cff      	cmp	r4, #255	; 0xff
 8000f08:	d0f0      	beq.n	8000eec <__gesf2+0x3c>
 8000f0a:	2c00      	cmp	r4, #0
 8000f0c:	d1e7      	bne.n	8000ede <__gesf2+0x2e>
 8000f0e:	2e00      	cmp	r6, #0
 8000f10:	d1e5      	bne.n	8000ede <__gesf2+0x2e>
 8000f12:	e7e6      	b.n	8000ee2 <__gesf2+0x32>
 8000f14:	2000      	movs	r0, #0
 8000f16:	2d00      	cmp	r5, #0
 8000f18:	d0e7      	beq.n	8000eea <__gesf2+0x3a>
 8000f1a:	e7e2      	b.n	8000ee2 <__gesf2+0x32>
 8000f1c:	42a2      	cmp	r2, r4
 8000f1e:	dc05      	bgt.n	8000f2c <__gesf2+0x7c>
 8000f20:	dbea      	blt.n	8000ef8 <__gesf2+0x48>
 8000f22:	42b5      	cmp	r5, r6
 8000f24:	d802      	bhi.n	8000f2c <__gesf2+0x7c>
 8000f26:	d3e7      	bcc.n	8000ef8 <__gesf2+0x48>
 8000f28:	2000      	movs	r0, #0
 8000f2a:	e7de      	b.n	8000eea <__gesf2+0x3a>
 8000f2c:	4243      	negs	r3, r0
 8000f2e:	4158      	adcs	r0, r3
 8000f30:	0040      	lsls	r0, r0, #1
 8000f32:	3801      	subs	r0, #1
 8000f34:	e7d9      	b.n	8000eea <__gesf2+0x3a>
 8000f36:	2002      	movs	r0, #2
 8000f38:	4240      	negs	r0, r0
 8000f3a:	e7d6      	b.n	8000eea <__gesf2+0x3a>

08000f3c <__lesf2>:
 8000f3c:	b570      	push	{r4, r5, r6, lr}
 8000f3e:	0042      	lsls	r2, r0, #1
 8000f40:	0245      	lsls	r5, r0, #9
 8000f42:	024e      	lsls	r6, r1, #9
 8000f44:	004c      	lsls	r4, r1, #1
 8000f46:	0fc3      	lsrs	r3, r0, #31
 8000f48:	0a6d      	lsrs	r5, r5, #9
 8000f4a:	0e12      	lsrs	r2, r2, #24
 8000f4c:	0a76      	lsrs	r6, r6, #9
 8000f4e:	0e24      	lsrs	r4, r4, #24
 8000f50:	0fc8      	lsrs	r0, r1, #31
 8000f52:	2aff      	cmp	r2, #255	; 0xff
 8000f54:	d00b      	beq.n	8000f6e <__lesf2+0x32>
 8000f56:	2cff      	cmp	r4, #255	; 0xff
 8000f58:	d00d      	beq.n	8000f76 <__lesf2+0x3a>
 8000f5a:	2a00      	cmp	r2, #0
 8000f5c:	d11f      	bne.n	8000f9e <__lesf2+0x62>
 8000f5e:	2c00      	cmp	r4, #0
 8000f60:	d116      	bne.n	8000f90 <__lesf2+0x54>
 8000f62:	2e00      	cmp	r6, #0
 8000f64:	d114      	bne.n	8000f90 <__lesf2+0x54>
 8000f66:	2000      	movs	r0, #0
 8000f68:	2d00      	cmp	r5, #0
 8000f6a:	d010      	beq.n	8000f8e <__lesf2+0x52>
 8000f6c:	e009      	b.n	8000f82 <__lesf2+0x46>
 8000f6e:	2d00      	cmp	r5, #0
 8000f70:	d10c      	bne.n	8000f8c <__lesf2+0x50>
 8000f72:	2cff      	cmp	r4, #255	; 0xff
 8000f74:	d113      	bne.n	8000f9e <__lesf2+0x62>
 8000f76:	2e00      	cmp	r6, #0
 8000f78:	d108      	bne.n	8000f8c <__lesf2+0x50>
 8000f7a:	2a00      	cmp	r2, #0
 8000f7c:	d008      	beq.n	8000f90 <__lesf2+0x54>
 8000f7e:	4283      	cmp	r3, r0
 8000f80:	d012      	beq.n	8000fa8 <__lesf2+0x6c>
 8000f82:	2102      	movs	r1, #2
 8000f84:	1e58      	subs	r0, r3, #1
 8000f86:	4008      	ands	r0, r1
 8000f88:	3801      	subs	r0, #1
 8000f8a:	e000      	b.n	8000f8e <__lesf2+0x52>
 8000f8c:	2002      	movs	r0, #2
 8000f8e:	bd70      	pop	{r4, r5, r6, pc}
 8000f90:	2d00      	cmp	r5, #0
 8000f92:	d1f4      	bne.n	8000f7e <__lesf2+0x42>
 8000f94:	2800      	cmp	r0, #0
 8000f96:	d1fa      	bne.n	8000f8e <__lesf2+0x52>
 8000f98:	2001      	movs	r0, #1
 8000f9a:	4240      	negs	r0, r0
 8000f9c:	e7f7      	b.n	8000f8e <__lesf2+0x52>
 8000f9e:	2c00      	cmp	r4, #0
 8000fa0:	d1ed      	bne.n	8000f7e <__lesf2+0x42>
 8000fa2:	2e00      	cmp	r6, #0
 8000fa4:	d1eb      	bne.n	8000f7e <__lesf2+0x42>
 8000fa6:	e7ec      	b.n	8000f82 <__lesf2+0x46>
 8000fa8:	42a2      	cmp	r2, r4
 8000faa:	dc05      	bgt.n	8000fb8 <__lesf2+0x7c>
 8000fac:	dbf2      	blt.n	8000f94 <__lesf2+0x58>
 8000fae:	42b5      	cmp	r5, r6
 8000fb0:	d802      	bhi.n	8000fb8 <__lesf2+0x7c>
 8000fb2:	d3ef      	bcc.n	8000f94 <__lesf2+0x58>
 8000fb4:	2000      	movs	r0, #0
 8000fb6:	e7ea      	b.n	8000f8e <__lesf2+0x52>
 8000fb8:	4243      	negs	r3, r0
 8000fba:	4158      	adcs	r0, r3
 8000fbc:	0040      	lsls	r0, r0, #1
 8000fbe:	3801      	subs	r0, #1
 8000fc0:	e7e5      	b.n	8000f8e <__lesf2+0x52>
 8000fc2:	46c0      	nop			; (mov r8, r8)

08000fc4 <save_data_1>:
 8000fc4:	b580      	push	{r7, lr}
 8000fc6:	b082      	sub	sp, #8
 8000fc8:	af00      	add	r7, sp, #0
 8000fca:	6078      	str	r0, [r7, #4]
 8000fcc:	6039      	str	r1, [r7, #0]
 8000fce:	f001 fd71 	bl	8002ab4 <HAL_FLASH_Unlock>
 8000fd2:	683a      	ldr	r2, [r7, #0]
 8000fd4:	687b      	ldr	r3, [r7, #4]
 8000fd6:	0019      	movs	r1, r3
 8000fd8:	2002      	movs	r0, #2
 8000fda:	f001 fd2f 	bl	8002a3c <HAL_FLASH_Program>
 8000fde:	f001 fdbd 	bl	8002b5c <HAL_FLASH_Lock>
 8000fe2:	46c0      	nop			; (mov r8, r8)
 8000fe4:	46bd      	mov	sp, r7
 8000fe6:	b002      	add	sp, #8
 8000fe8:	bd80      	pop	{r7, pc}

08000fea <save_data_2>:
 8000fea:	b580      	push	{r7, lr}
 8000fec:	b08c      	sub	sp, #48	; 0x30
 8000fee:	af00      	add	r7, sp, #0
 8000ff0:	60f8      	str	r0, [r7, #12]
 8000ff2:	60b9      	str	r1, [r7, #8]
 8000ff4:	607a      	str	r2, [r7, #4]
 8000ff6:	603b      	str	r3, [r7, #0]
 8000ff8:	2110      	movs	r1, #16
 8000ffa:	187b      	adds	r3, r7, r1
 8000ffc:	68ba      	ldr	r2, [r7, #8]
 8000ffe:	601a      	str	r2, [r3, #0]
 8001000:	187b      	adds	r3, r7, r1
 8001002:	687a      	ldr	r2, [r7, #4]
 8001004:	605a      	str	r2, [r3, #4]
 8001006:	187b      	adds	r3, r7, r1
 8001008:	683a      	ldr	r2, [r7, #0]
 800100a:	609a      	str	r2, [r3, #8]
 800100c:	187b      	adds	r3, r7, r1
 800100e:	6bba      	ldr	r2, [r7, #56]	; 0x38
 8001010:	60da      	str	r2, [r3, #12]
 8001012:	187b      	adds	r3, r7, r1
 8001014:	6bfa      	ldr	r2, [r7, #60]	; 0x3c
 8001016:	611a      	str	r2, [r3, #16]
 8001018:	187b      	adds	r3, r7, r1
 800101a:	6c3a      	ldr	r2, [r7, #64]	; 0x40
 800101c:	615a      	str	r2, [r3, #20]
 800101e:	187b      	adds	r3, r7, r1
 8001020:	62bb      	str	r3, [r7, #40]	; 0x28
 8001022:	f001 fd47 	bl	8002ab4 <HAL_FLASH_Unlock>
 8001026:	2300      	movs	r3, #0
 8001028:	62fb      	str	r3, [r7, #44]	; 0x2c
 800102a:	e010      	b.n	800104e <save_data_2+0x64>
 800102c:	6afb      	ldr	r3, [r7, #44]	; 0x2c
 800102e:	011b      	lsls	r3, r3, #4
 8001030:	001a      	movs	r2, r3
 8001032:	68fb      	ldr	r3, [r7, #12]
 8001034:	18d1      	adds	r1, r2, r3
 8001036:	6afb      	ldr	r3, [r7, #44]	; 0x2c
 8001038:	009b      	lsls	r3, r3, #2
 800103a:	6aba      	ldr	r2, [r7, #40]	; 0x28
 800103c:	18d3      	adds	r3, r2, r3
 800103e:	681b      	ldr	r3, [r3, #0]
 8001040:	001a      	movs	r2, r3
 8001042:	2002      	movs	r0, #2
 8001044:	f001 fcfa 	bl	8002a3c <HAL_FLASH_Program>
 8001048:	6afb      	ldr	r3, [r7, #44]	; 0x2c
 800104a:	3301      	adds	r3, #1
 800104c:	62fb      	str	r3, [r7, #44]	; 0x2c
 800104e:	6afb      	ldr	r3, [r7, #44]	; 0x2c
 8001050:	2b05      	cmp	r3, #5
 8001052:	ddeb      	ble.n	800102c <save_data_2+0x42>
 8001054:	f001 fd82 	bl	8002b5c <HAL_FLASH_Lock>
 8001058:	46c0      	nop			; (mov r8, r8)
 800105a:	46bd      	mov	sp, r7
 800105c:	b00c      	add	sp, #48	; 0x30
 800105e:	bd80      	pop	{r7, pc}

08001060 <read_data>:
 8001060:	b580      	push	{r7, lr}
 8001062:	b084      	sub	sp, #16
 8001064:	af00      	add	r7, sp, #0
 8001066:	6078      	str	r0, [r7, #4]
 8001068:	687b      	ldr	r3, [r7, #4]
 800106a:	681b      	ldr	r3, [r3, #0]
 800106c:	60fb      	str	r3, [r7, #12]
 800106e:	68fb      	ldr	r3, [r7, #12]
 8001070:	0018      	movs	r0, r3
 8001072:	46bd      	mov	sp, r7
 8001074:	b004      	add	sp, #16
 8001076:	bd80      	pop	{r7, pc}

08001078 <erase_data>:
 8001078:	b580      	push	{r7, lr}
 800107a:	b086      	sub	sp, #24
 800107c:	af00      	add	r7, sp, #0
 800107e:	6078      	str	r0, [r7, #4]
 8001080:	f001 fd18 	bl	8002ab4 <HAL_FLASH_Unlock>
 8001084:	210c      	movs	r1, #12
 8001086:	187b      	adds	r3, r7, r1
 8001088:	2200      	movs	r2, #0
 800108a:	601a      	str	r2, [r3, #0]
 800108c:	187b      	adds	r3, r7, r1
 800108e:	687a      	ldr	r2, [r7, #4]
 8001090:	605a      	str	r2, [r3, #4]
 8001092:	187b      	adds	r3, r7, r1
 8001094:	2201      	movs	r2, #1
 8001096:	609a      	str	r2, [r3, #8]
 8001098:	2308      	movs	r3, #8
 800109a:	18fa      	adds	r2, r7, r3
 800109c:	187b      	adds	r3, r7, r1
 800109e:	0011      	movs	r1, r2
 80010a0:	0018      	movs	r0, r3
 80010a2:	f001 fe7d 	bl	8002da0 <HAL_FLASHEx_Erase>
 80010a6:	1e03      	subs	r3, r0, #0
 80010a8:	d102      	bne.n	80010b0 <erase_data+0x38>
 80010aa:	f001 fd57 	bl	8002b5c <HAL_FLASH_Lock>
 80010ae:	e000      	b.n	80010b2 <erase_data+0x3a>
 80010b0:	46c0      	nop			; (mov r8, r8)
 80010b2:	46bd      	mov	sp, r7
 80010b4:	b006      	add	sp, #24
 80010b6:	bd80      	pop	{r7, pc}

080010b8 <MX_GPIO_Init>:
 80010b8:	b590      	push	{r4, r7, lr}
 80010ba:	b089      	sub	sp, #36	; 0x24
 80010bc:	af00      	add	r7, sp, #0
 80010be:	240c      	movs	r4, #12
 80010c0:	193b      	adds	r3, r7, r4
 80010c2:	0018      	movs	r0, r3
 80010c4:	2314      	movs	r3, #20
 80010c6:	001a      	movs	r2, r3
 80010c8:	2100      	movs	r1, #0
 80010ca:	f004 fe8b 	bl	8005de4 <memset>
 80010ce:	4b20      	ldr	r3, [pc, #128]	; (8001150 <MX_GPIO_Init+0x98>)
 80010d0:	6ada      	ldr	r2, [r3, #44]	; 0x2c
 80010d2:	4b1f      	ldr	r3, [pc, #124]	; (8001150 <MX_GPIO_Init+0x98>)
 80010d4:	2104      	movs	r1, #4
 80010d6:	430a      	orrs	r2, r1
 80010d8:	62da      	str	r2, [r3, #44]	; 0x2c
 80010da:	4b1d      	ldr	r3, [pc, #116]	; (8001150 <MX_GPIO_Init+0x98>)
 80010dc:	6adb      	ldr	r3, [r3, #44]	; 0x2c
 80010de:	2204      	movs	r2, #4
 80010e0:	4013      	ands	r3, r2
 80010e2:	60bb      	str	r3, [r7, #8]
 80010e4:	68bb      	ldr	r3, [r7, #8]
 80010e6:	4b1a      	ldr	r3, [pc, #104]	; (8001150 <MX_GPIO_Init+0x98>)
 80010e8:	6ada      	ldr	r2, [r3, #44]	; 0x2c
 80010ea:	4b19      	ldr	r3, [pc, #100]	; (8001150 <MX_GPIO_Init+0x98>)
 80010ec:	2180      	movs	r1, #128	; 0x80
 80010ee:	430a      	orrs	r2, r1
 80010f0:	62da      	str	r2, [r3, #44]	; 0x2c
 80010f2:	4b17      	ldr	r3, [pc, #92]	; (8001150 <MX_GPIO_Init+0x98>)
 80010f4:	6adb      	ldr	r3, [r3, #44]	; 0x2c
 80010f6:	2280      	movs	r2, #128	; 0x80
 80010f8:	4013      	ands	r3, r2
 80010fa:	607b      	str	r3, [r7, #4]
 80010fc:	687b      	ldr	r3, [r7, #4]
 80010fe:	4b14      	ldr	r3, [pc, #80]	; (8001150 <MX_GPIO_Init+0x98>)
 8001100:	6ada      	ldr	r2, [r3, #44]	; 0x2c
 8001102:	4b13      	ldr	r3, [pc, #76]	; (8001150 <MX_GPIO_Init+0x98>)
 8001104:	2101      	movs	r1, #1
 8001106:	430a      	orrs	r2, r1
 8001108:	62da      	str	r2, [r3, #44]	; 0x2c
 800110a:	4b11      	ldr	r3, [pc, #68]	; (8001150 <MX_GPIO_Init+0x98>)
 800110c:	6adb      	ldr	r3, [r3, #44]	; 0x2c
 800110e:	2201      	movs	r2, #1
 8001110:	4013      	ands	r3, r2
 8001112:	603b      	str	r3, [r7, #0]
 8001114:	683b      	ldr	r3, [r7, #0]
 8001116:	193b      	adds	r3, r7, r4
 8001118:	2280      	movs	r2, #128	; 0x80
 800111a:	0192      	lsls	r2, r2, #6
 800111c:	601a      	str	r2, [r3, #0]
 800111e:	193b      	adds	r3, r7, r4
 8001120:	2288      	movs	r2, #136	; 0x88
 8001122:	0352      	lsls	r2, r2, #13
 8001124:	605a      	str	r2, [r3, #4]
 8001126:	193b      	adds	r3, r7, r4
 8001128:	2200      	movs	r2, #0
 800112a:	609a      	str	r2, [r3, #8]
 800112c:	193b      	adds	r3, r7, r4
 800112e:	4a09      	ldr	r2, [pc, #36]	; (8001154 <MX_GPIO_Init+0x9c>)
 8001130:	0019      	movs	r1, r3
 8001132:	0010      	movs	r0, r2
 8001134:	f001 febc 	bl	8002eb0 <HAL_GPIO_Init>
 8001138:	2200      	movs	r2, #0
 800113a:	2100      	movs	r1, #0
 800113c:	2007      	movs	r0, #7
 800113e:	f001 fbc3 	bl	80028c8 <HAL_NVIC_SetPriority>
 8001142:	2007      	movs	r0, #7
 8001144:	f001 fbd5 	bl	80028f2 <HAL_NVIC_EnableIRQ>
 8001148:	46c0      	nop			; (mov r8, r8)
 800114a:	46bd      	mov	sp, r7
 800114c:	b009      	add	sp, #36	; 0x24
 800114e:	bd90      	pop	{r4, r7, pc}
 8001150:	40021000 	.word	0x40021000
 8001154:	50000800 	.word	0x50000800

08001158 <__io_putchar>:
/* USER CODE END PFP */

/* Private user code ---------------------------------------------------------*/
/* USER CODE BEGIN 0 */
int __io_putchar(int ch)
{
 8001158:	b580      	push	{r7, lr}
 800115a:	b082      	sub	sp, #8
 800115c:	af00      	add	r7, sp, #0
 800115e:	6078      	str	r0, [r7, #4]
    HAL_UART_Transmit(&huart2, (uint8_t*)&ch, 1, 0);
 8001160:	1d39      	adds	r1, r7, #4
 8001162:	4805      	ldr	r0, [pc, #20]	; (8001178 <__io_putchar+0x20>)
 8001164:	2300      	movs	r3, #0
 8001166:	2201      	movs	r2, #1
 8001168:	f003 f8aa 	bl	80042c0 <HAL_UART_Transmit>
    return 1;
 800116c:	2301      	movs	r3, #1
}
 800116e:	0018      	movs	r0, r3
 8001170:	46bd      	mov	sp, r7
 8001172:	b002      	add	sp, #8
 8001174:	bd80      	pop	{r7, pc}
 8001176:	46c0      	nop			; (mov r8, r8)
 8001178:	20000300 	.word	0x20000300

0800117c <HAL_UART_RxCpltCallback>:

void HAL_UART_RxCpltCallback(UART_HandleTypeDef *huart){
 800117c:	b580      	push	{r7, lr}
 800117e:	b082      	sub	sp, #8
 8001180:	af00      	add	r7, sp, #0
 8001182:	6078      	str	r0, [r7, #4]
  if (huart == &huart2) {
 8001184:	687a      	ldr	r2, [r7, #4]
 8001186:	4b0c      	ldr	r3, [pc, #48]	; (80011b8 <HAL_UART_RxCpltCallback+0x3c>)
 8001188:	429a      	cmp	r2, r3
 800118a:	d110      	bne.n	80011ae <HAL_UART_RxCpltCallback+0x32>
	  MENU_USB(value);
 800118c:	4b0b      	ldr	r3, [pc, #44]	; (80011bc <HAL_UART_RxCpltCallback+0x40>)
 800118e:	781b      	ldrb	r3, [r3, #0]
 8001190:	0018      	movs	r0, r3
 8001192:	f000 fc41 	bl	8001a18 <MENU_USB>
	  HAL_UART_Receive_IT(&huart2, &value, 1);
 8001196:	4909      	ldr	r1, [pc, #36]	; (80011bc <HAL_UART_RxCpltCallback+0x40>)
 8001198:	4b07      	ldr	r3, [pc, #28]	; (80011b8 <HAL_UART_RxCpltCallback+0x3c>)
 800119a:	2201      	movs	r2, #1
 800119c:	0018      	movs	r0, r3
 800119e:	f003 f92f 	bl	8004400 <HAL_UART_Receive_IT>
	  HAL_UART_Transmit(&huart2, &value, 1, 0);
 80011a2:	4906      	ldr	r1, [pc, #24]	; (80011bc <HAL_UART_RxCpltCallback+0x40>)
 80011a4:	4804      	ldr	r0, [pc, #16]	; (80011b8 <HAL_UART_RxCpltCallback+0x3c>)
 80011a6:	2300      	movs	r3, #0
 80011a8:	2201      	movs	r2, #1
 80011aa:	f003 f889 	bl	80042c0 <HAL_UART_Transmit>
 }
}
 80011ae:	46c0      	nop			; (mov r8, r8)
 80011b0:	46bd      	mov	sp, r7
 80011b2:	b002      	add	sp, #8
 80011b4:	bd80      	pop	{r7, pc}
 80011b6:	46c0      	nop			; (mov r8, r8)
 80011b8:	20000300 	.word	0x20000300
 80011bc:	20000228 	.word	0x20000228

080011c0 <TIM6_Callback>:

void TIM6_Callback(void){
 80011c0:	b580      	push	{r7, lr}
 80011c2:	af00      	add	r7, sp, #0
	if(state==1 || state==2){
 80011c4:	4b0a      	ldr	r3, [pc, #40]	; (80011f0 <TIM6_Callback+0x30>)
 80011c6:	681b      	ldr	r3, [r3, #0]
 80011c8:	2b01      	cmp	r3, #1
 80011ca:	d003      	beq.n	80011d4 <TIM6_Callback+0x14>
 80011cc:	4b08      	ldr	r3, [pc, #32]	; (80011f0 <TIM6_Callback+0x30>)
 80011ce:	681b      	ldr	r3, [r3, #0]
 80011d0:	2b02      	cmp	r3, #2
 80011d2:	d106      	bne.n	80011e2 <TIM6_Callback+0x22>
		GPIOB->ODR^=(1U<<5);
 80011d4:	4b07      	ldr	r3, [pc, #28]	; (80011f4 <TIM6_Callback+0x34>)
 80011d6:	695a      	ldr	r2, [r3, #20]
 80011d8:	4b06      	ldr	r3, [pc, #24]	; (80011f4 <TIM6_Callback+0x34>)
 80011da:	2120      	movs	r1, #32
 80011dc:	404a      	eors	r2, r1
 80011de:	615a      	str	r2, [r3, #20]
 80011e0:	e003      	b.n	80011ea <TIM6_Callback+0x2a>
	}
	else{
		GPIOB->ODR=(1U<<5);
 80011e2:	4b04      	ldr	r3, [pc, #16]	; (80011f4 <TIM6_Callback+0x34>)
 80011e4:	2220      	movs	r2, #32
 80011e6:	615a      	str	r2, [r3, #20]
	}
}
 80011e8:	46c0      	nop			; (mov r8, r8)
 80011ea:	46c0      	nop			; (mov r8, r8)
 80011ec:	46bd      	mov	sp, r7
 80011ee:	bd80      	pop	{r7, pc}
 80011f0:	200002f4 	.word	0x200002f4
 80011f4:	50000400 	.word	0x50000400

080011f8 <HAL_PWR_PVDCallback>:

void HAL_PWR_PVDCallback(void){
 80011f8:	b580      	push	{r7, lr}
 80011fa:	af00      	add	r7, sp, #0
    if (pvd==0) {
 80011fc:	4b12      	ldr	r3, [pc, #72]	; (8001248 <HAL_PWR_PVDCallback+0x50>)
 80011fe:	681b      	ldr	r3, [r3, #0]
 8001200:	2b00      	cmp	r3, #0
 8001202:	d11a      	bne.n	800123a <HAL_PWR_PVDCallback+0x42>
    	HAL_Delay(500);
 8001204:	23fa      	movs	r3, #250	; 0xfa
 8001206:	005b      	lsls	r3, r3, #1
 8001208:	0018      	movs	r0, r3
 800120a:	f001 fa8d 	bl	8002728 <HAL_Delay>
    	if (pvd==0){
 800120e:	4b0e      	ldr	r3, [pc, #56]	; (8001248 <HAL_PWR_PVDCallback+0x50>)
 8001210:	681b      	ldr	r3, [r3, #0]
 8001212:	2b00      	cmp	r3, #0
 8001214:	d114      	bne.n	8001240 <HAL_PWR_PVDCallback+0x48>
			pvd=1;
 8001216:	4b0c      	ldr	r3, [pc, #48]	; (8001248 <HAL_PWR_PVDCallback+0x50>)
 8001218:	2201      	movs	r2, #1
 800121a:	601a      	str	r2, [r3, #0]
			state=3;
 800121c:	4b0b      	ldr	r3, [pc, #44]	; (800124c <HAL_PWR_PVDCallback+0x54>)
 800121e:	2203      	movs	r2, #3
 8001220:	601a      	str	r2, [r3, #0]
			GPIOB->ODR=~(1U<<1);
 8001222:	4b0b      	ldr	r3, [pc, #44]	; (8001250 <HAL_PWR_PVDCallback+0x58>)
 8001224:	2203      	movs	r2, #3
 8001226:	4252      	negs	r2, r2
 8001228:	615a      	str	r2, [r3, #20]
			save_data_1(Addr_num+PVD, 1);
 800122a:	4b0a      	ldr	r3, [pc, #40]	; (8001254 <HAL_PWR_PVDCallback+0x5c>)
 800122c:	681b      	ldr	r3, [r3, #0]
 800122e:	3308      	adds	r3, #8
 8001230:	2101      	movs	r1, #1
 8001232:	0018      	movs	r0, r3
 8001234:	f7ff fec6 	bl	8000fc4 <save_data_1>
    	}
    }
    else{
    	pvd=0;
    }
}
 8001238:	e002      	b.n	8001240 <HAL_PWR_PVDCallback+0x48>
    	pvd=0;
 800123a:	4b03      	ldr	r3, [pc, #12]	; (8001248 <HAL_PWR_PVDCallback+0x50>)
 800123c:	2200      	movs	r2, #0
 800123e:	601a      	str	r2, [r3, #0]
}
 8001240:	46c0      	nop			; (mov r8, r8)
 8001242:	46bd      	mov	sp, r7
 8001244:	bd80      	pop	{r7, pc}
 8001246:	46c0      	nop			; (mov r8, r8)
 8001248:	20000018 	.word	0x20000018
 800124c:	200002f4 	.word	0x200002f4
 8001250:	50000400 	.word	0x50000400
 8001254:	20000000 	.word	0x20000000

08001258 <HAL_GPIO_EXTI_Callback>:

void HAL_GPIO_EXTI_Callback(uint16_t GPIO_Pin){
 8001258:	b580      	push	{r7, lr}
 800125a:	b082      	sub	sp, #8
 800125c:	af00      	add	r7, sp, #0
 800125e:	0002      	movs	r2, r0
 8001260:	1dbb      	adds	r3, r7, #6
 8001262:	801a      	strh	r2, [r3, #0]
  if(GPIO_Pin == GPIO_PIN_13) {
 8001264:	1dbb      	adds	r3, r7, #6
 8001266:	881a      	ldrh	r2, [r3, #0]
 8001268:	2380      	movs	r3, #128	; 0x80
 800126a:	019b      	lsls	r3, r3, #6
 800126c:	429a      	cmp	r2, r3
 800126e:	d116      	bne.n	800129e <HAL_GPIO_EXTI_Callback+0x46>
	pvd=1;
 8001270:	4b0d      	ldr	r3, [pc, #52]	; (80012a8 <HAL_GPIO_EXTI_Callback+0x50>)
 8001272:	2201      	movs	r2, #1
 8001274:	601a      	str	r2, [r3, #0]
	state=3;
 8001276:	4b0d      	ldr	r3, [pc, #52]	; (80012ac <HAL_GPIO_EXTI_Callback+0x54>)
 8001278:	2203      	movs	r2, #3
 800127a:	601a      	str	r2, [r3, #0]
	GPIOB->ODR=~(1U<<1);
 800127c:	4b0c      	ldr	r3, [pc, #48]	; (80012b0 <HAL_GPIO_EXTI_Callback+0x58>)
 800127e:	2203      	movs	r2, #3
 8001280:	4252      	negs	r2, r2
 8001282:	615a      	str	r2, [r3, #20]
	GPIOA->ODR=~(1U<<5);
 8001284:	23a0      	movs	r3, #160	; 0xa0
 8001286:	05db      	lsls	r3, r3, #23
 8001288:	2221      	movs	r2, #33	; 0x21
 800128a:	4252      	negs	r2, r2
 800128c:	615a      	str	r2, [r3, #20]
	save_data_1(Addr_num+PVD, 1);
 800128e:	4b09      	ldr	r3, [pc, #36]	; (80012b4 <HAL_GPIO_EXTI_Callback+0x5c>)
 8001290:	681b      	ldr	r3, [r3, #0]
 8001292:	3308      	adds	r3, #8
 8001294:	2101      	movs	r1, #1
 8001296:	0018      	movs	r0, r3
 8001298:	f7ff fe94 	bl	8000fc4 <save_data_1>
  } else {
    __NOP();
  }
}
 800129c:	e000      	b.n	80012a0 <HAL_GPIO_EXTI_Callback+0x48>
    __NOP();
 800129e:	46c0      	nop			; (mov r8, r8)
}
 80012a0:	46c0      	nop			; (mov r8, r8)
 80012a2:	46bd      	mov	sp, r7
 80012a4:	b002      	add	sp, #8
 80012a6:	bd80      	pop	{r7, pc}
 80012a8:	20000018 	.word	0x20000018
 80012ac:	200002f4 	.word	0x200002f4
 80012b0:	50000400 	.word	0x50000400
 80012b4:	20000000 	.word	0x20000000

080012b8 <main>:
/**
  * @brief  The application entry point.
  * @retval int
  */
int main(void)
{
 80012b8:	b5f0      	push	{r4, r5, r6, r7, lr}
 80012ba:	46c6      	mov	lr, r8
 80012bc:	b500      	push	{lr}
 80012be:	b086      	sub	sp, #24
 80012c0:	af04      	add	r7, sp, #16

  /* MCU Configuration--------------------------------------------------------*/

  /* Reset of all peripherals, Initializes the Flash interface and the Systick. */

  HAL_Init();
 80012c2:	f001 f9c1 	bl	8002648 <HAL_Init>

  /* USER CODE BEGIN Init */
  PG_init();
 80012c6:	f000 fb5f 	bl	8001988 <PG_init>
  GPIO_LEDS();
 80012ca:	f000 faf9 	bl	80018c0 <GPIO_LEDS>
  TIM6_init();
 80012ce:	f001 f8f1 	bl	80024b4 <TIM6_init>
  /* USER CODE END Init */

  /* Configure the system clock */
  SystemClock_Config();
 80012d2:	f000 fa89 	bl	80017e8 <SystemClock_Config>
  /* USER CODE BEGIN SysInit */

  /* USER CODE END SysInit */

  /* Initialize all configured peripherals */
  MX_GPIO_Init();
 80012d6:	f7ff feef 	bl	80010b8 <MX_GPIO_Init>
  MX_USART2_UART_Init();
 80012da:	f001 f90f 	bl	80024fc <MX_USART2_UART_Init>
  /* USER CODE BEGIN 2 */
  printf(menu);
 80012de:	4bdc      	ldr	r3, [pc, #880]	; (8001650 <main+0x398>)
 80012e0:	0018      	movs	r0, r3
 80012e2:	f004 fd03 	bl	8005cec <iprintf>
  HAL_UART_Receive_IT(&huart2, &value, 1);
 80012e6:	49db      	ldr	r1, [pc, #876]	; (8001654 <main+0x39c>)
 80012e8:	4bdb      	ldr	r3, [pc, #876]	; (8001658 <main+0x3a0>)
 80012ea:	2201      	movs	r2, #1
 80012ec:	0018      	movs	r0, r3
 80012ee:	f003 f887 	bl	8004400 <HAL_UART_Receive_IT>
  /* USER CODE END 2 */

  /* Infinite loop */
  /* USER CODE BEGIN WHILE */
  while(1){
	  if(pvd==0){
 80012f2:	4bda      	ldr	r3, [pc, #872]	; (800165c <main+0x3a4>)
 80012f4:	681b      	ldr	r3, [r3, #0]
 80012f6:	2b00      	cmp	r3, #0
 80012f8:	d109      	bne.n	800130e <main+0x56>
		  GPIOB->ODR|=(1U<<3);
 80012fa:	4bd9      	ldr	r3, [pc, #868]	; (8001660 <main+0x3a8>)
 80012fc:	695a      	ldr	r2, [r3, #20]
 80012fe:	4bd8      	ldr	r3, [pc, #864]	; (8001660 <main+0x3a8>)
 8001300:	2108      	movs	r1, #8
 8001302:	430a      	orrs	r2, r1
 8001304:	615a      	str	r2, [r3, #20]
		  GPIOA->BSRR = (1U<<6);
 8001306:	23a0      	movs	r3, #160	; 0xa0
 8001308:	05db      	lsls	r3, r3, #23
 800130a:	2240      	movs	r2, #64	; 0x40
 800130c:	619a      	str	r2, [r3, #24]
	  }
	  switch(state){
 800130e:	4bd5      	ldr	r3, [pc, #852]	; (8001664 <main+0x3ac>)
 8001310:	681b      	ldr	r3, [r3, #0]
 8001312:	2b05      	cmp	r3, #5
 8001314:	d900      	bls.n	8001318 <main+0x60>
 8001316:	e22f      	b.n	8001778 <main+0x4c0>
 8001318:	009a      	lsls	r2, r3, #2
 800131a:	4bd3      	ldr	r3, [pc, #844]	; (8001668 <main+0x3b0>)
 800131c:	18d3      	adds	r3, r2, r3
 800131e:	681b      	ldr	r3, [r3, #0]
 8001320:	469f      	mov	pc, r3
	  	  case 1:
	  		  GPIOA->BSRR = ~(1U<<0) & ~(1U<<1) & ~(1U<<6);
 8001322:	23a0      	movs	r3, #160	; 0xa0
 8001324:	05db      	lsls	r3, r3, #23
 8001326:	2244      	movs	r2, #68	; 0x44
 8001328:	4252      	negs	r2, r2
 800132a:	619a      	str	r2, [r3, #24]
	  		  while((GPIOA->ODR & GPIO_ODR_OD0)&&(GPIOA->ODR & GPIO_ODR_OD1)&&(GPIOA->ODR & GPIO_ODR_OD6)){}
 800132c:	46c0      	nop			; (mov r8, r8)
 800132e:	23a0      	movs	r3, #160	; 0xa0
 8001330:	05db      	lsls	r3, r3, #23
 8001332:	695b      	ldr	r3, [r3, #20]
 8001334:	2201      	movs	r2, #1
 8001336:	4013      	ands	r3, r2
 8001338:	d00b      	beq.n	8001352 <main+0x9a>
 800133a:	23a0      	movs	r3, #160	; 0xa0
 800133c:	05db      	lsls	r3, r3, #23
 800133e:	695b      	ldr	r3, [r3, #20]
 8001340:	2202      	movs	r2, #2
 8001342:	4013      	ands	r3, r2
 8001344:	d005      	beq.n	8001352 <main+0x9a>
 8001346:	23a0      	movs	r3, #160	; 0xa0
 8001348:	05db      	lsls	r3, r3, #23
 800134a:	695b      	ldr	r3, [r3, #20]
 800134c:	2240      	movs	r2, #64	; 0x40
 800134e:	4013      	ands	r3, r2
 8001350:	d1ed      	bne.n	800132e <main+0x76>
	  		  HAL_Delay((uint32_t)Ton);
 8001352:	4bc6      	ldr	r3, [pc, #792]	; (800166c <main+0x3b4>)
 8001354:	681b      	ldr	r3, [r3, #0]
 8001356:	1c18      	adds	r0, r3, #0
 8001358:	f7fe ffcc 	bl	80002f4 <__aeabi_f2uiz>
 800135c:	0003      	movs	r3, r0
 800135e:	0018      	movs	r0, r3
 8001360:	f001 f9e2 	bl	8002728 <HAL_Delay>
	  		  GPIOA->BSRR |= (1U<<0) | (1U<<1) | (1U<<6);
 8001364:	23a0      	movs	r3, #160	; 0xa0
 8001366:	05db      	lsls	r3, r3, #23
 8001368:	699a      	ldr	r2, [r3, #24]
 800136a:	23a0      	movs	r3, #160	; 0xa0
 800136c:	05db      	lsls	r3, r3, #23
 800136e:	2143      	movs	r1, #67	; 0x43
 8001370:	430a      	orrs	r2, r1
 8001372:	619a      	str	r2, [r3, #24]
	  		  while(!(GPIOA->ODR & GPIO_ODR_OD0)&&(GPIOA->ODR & GPIO_ODR_OD1)&&(GPIOA->ODR & GPIO_ODR_OD6)){}
 8001374:	46c0      	nop			; (mov r8, r8)
 8001376:	23a0      	movs	r3, #160	; 0xa0
 8001378:	05db      	lsls	r3, r3, #23
 800137a:	695b      	ldr	r3, [r3, #20]
 800137c:	2201      	movs	r2, #1
 800137e:	4013      	ands	r3, r2
 8001380:	d10b      	bne.n	800139a <main+0xe2>
 8001382:	23a0      	movs	r3, #160	; 0xa0
 8001384:	05db      	lsls	r3, r3, #23
 8001386:	695b      	ldr	r3, [r3, #20]
 8001388:	2202      	movs	r2, #2
 800138a:	4013      	ands	r3, r2
 800138c:	d005      	beq.n	800139a <main+0xe2>
 800138e:	23a0      	movs	r3, #160	; 0xa0
 8001390:	05db      	lsls	r3, r3, #23
 8001392:	695b      	ldr	r3, [r3, #20]
 8001394:	2240      	movs	r2, #64	; 0x40
 8001396:	4013      	ands	r3, r2
 8001398:	d1ed      	bne.n	8001376 <main+0xbe>
	  		  HAL_Delay((uint32_t)Toff);
 800139a:	4bb5      	ldr	r3, [pc, #724]	; (8001670 <main+0x3b8>)
 800139c:	681b      	ldr	r3, [r3, #0]
 800139e:	1c18      	adds	r0, r3, #0
 80013a0:	f7fe ffa8 	bl	80002f4 <__aeabi_f2uiz>
 80013a4:	0003      	movs	r3, r0
 80013a6:	0018      	movs	r0, r3
 80013a8:	f001 f9be 	bl	8002728 <HAL_Delay>
	  		  total_pulses++;
 80013ac:	4bb1      	ldr	r3, [pc, #708]	; (8001674 <main+0x3bc>)
 80013ae:	681b      	ldr	r3, [r3, #0]
 80013b0:	1c5a      	adds	r2, r3, #1
 80013b2:	4bb0      	ldr	r3, [pc, #704]	; (8001674 <main+0x3bc>)
 80013b4:	601a      	str	r2, [r3, #0]
	  		  flag=2;
 80013b6:	4bb0      	ldr	r3, [pc, #704]	; (8001678 <main+0x3c0>)
 80013b8:	2202      	movs	r2, #2
 80013ba:	601a      	str	r2, [r3, #0]
	  		  break;
 80013bc:	e1dd      	b.n	800177a <main+0x4c2>
	  	  case 2:
	  		  GPIOA->BSRR &= ~(1U<<0) & ~(1U<<1) & ~(1U<<6);
 80013be:	23a0      	movs	r3, #160	; 0xa0
 80013c0:	05db      	lsls	r3, r3, #23
 80013c2:	699a      	ldr	r2, [r3, #24]
 80013c4:	23a0      	movs	r3, #160	; 0xa0
 80013c6:	05db      	lsls	r3, r3, #23
 80013c8:	2143      	movs	r1, #67	; 0x43
 80013ca:	438a      	bics	r2, r1
 80013cc:	619a      	str	r2, [r3, #24]
	  		  GPIOA->BSRR |= (1U<<16) | (1U<<17) | (1U<<22);
 80013ce:	23a0      	movs	r3, #160	; 0xa0
 80013d0:	05db      	lsls	r3, r3, #23
 80013d2:	699a      	ldr	r2, [r3, #24]
 80013d4:	23a0      	movs	r3, #160	; 0xa0
 80013d6:	05db      	lsls	r3, r3, #23
 80013d8:	2186      	movs	r1, #134	; 0x86
 80013da:	03c9      	lsls	r1, r1, #15
 80013dc:	430a      	orrs	r2, r1
 80013de:	619a      	str	r2, [r3, #24]
	  		  while((GPIOA->ODR & GPIO_ODR_OD0)&&(GPIOA->ODR & GPIO_ODR_OD1)&&(GPIOA->ODR & GPIO_ODR_OD6)){}
 80013e0:	46c0      	nop			; (mov r8, r8)
 80013e2:	23a0      	movs	r3, #160	; 0xa0
 80013e4:	05db      	lsls	r3, r3, #23
 80013e6:	695b      	ldr	r3, [r3, #20]
 80013e8:	2201      	movs	r2, #1
 80013ea:	4013      	ands	r3, r2
 80013ec:	d00b      	beq.n	8001406 <main+0x14e>
 80013ee:	23a0      	movs	r3, #160	; 0xa0
 80013f0:	05db      	lsls	r3, r3, #23
 80013f2:	695b      	ldr	r3, [r3, #20]
 80013f4:	2202      	movs	r2, #2
 80013f6:	4013      	ands	r3, r2
 80013f8:	d005      	beq.n	8001406 <main+0x14e>
 80013fa:	23a0      	movs	r3, #160	; 0xa0
 80013fc:	05db      	lsls	r3, r3, #23
 80013fe:	695b      	ldr	r3, [r3, #20]
 8001400:	2240      	movs	r2, #64	; 0x40
 8001402:	4013      	ands	r3, r2
 8001404:	d1ed      	bne.n	80013e2 <main+0x12a>
	  		  HAL_Delay((uint32_t)Ton);
 8001406:	4b99      	ldr	r3, [pc, #612]	; (800166c <main+0x3b4>)
 8001408:	681b      	ldr	r3, [r3, #0]
 800140a:	1c18      	adds	r0, r3, #0
 800140c:	f7fe ff72 	bl	80002f4 <__aeabi_f2uiz>
 8001410:	0003      	movs	r3, r0
 8001412:	0018      	movs	r0, r3
 8001414:	f001 f988 	bl	8002728 <HAL_Delay>
	  		  GPIOA->BSRR |= (1U<<0) | (1U<<1) | (1U<<6);
 8001418:	23a0      	movs	r3, #160	; 0xa0
 800141a:	05db      	lsls	r3, r3, #23
 800141c:	699a      	ldr	r2, [r3, #24]
 800141e:	23a0      	movs	r3, #160	; 0xa0
 8001420:	05db      	lsls	r3, r3, #23
 8001422:	2143      	movs	r1, #67	; 0x43
 8001424:	430a      	orrs	r2, r1
 8001426:	619a      	str	r2, [r3, #24]
	  		  while(!(GPIOA->ODR & GPIO_ODR_OD0)&&(GPIOA->ODR & GPIO_ODR_OD1)&&(GPIOA->ODR & GPIO_ODR_OD6)){}
 8001428:	46c0      	nop			; (mov r8, r8)
 800142a:	23a0      	movs	r3, #160	; 0xa0
 800142c:	05db      	lsls	r3, r3, #23
 800142e:	695b      	ldr	r3, [r3, #20]
 8001430:	2201      	movs	r2, #1
 8001432:	4013      	ands	r3, r2
 8001434:	d10b      	bne.n	800144e <main+0x196>
 8001436:	23a0      	movs	r3, #160	; 0xa0
 8001438:	05db      	lsls	r3, r3, #23
 800143a:	695b      	ldr	r3, [r3, #20]
 800143c:	2202      	movs	r2, #2
 800143e:	4013      	ands	r3, r2
 8001440:	d005      	beq.n	800144e <main+0x196>
 8001442:	23a0      	movs	r3, #160	; 0xa0
 8001444:	05db      	lsls	r3, r3, #23
 8001446:	695b      	ldr	r3, [r3, #20]
 8001448:	2240      	movs	r2, #64	; 0x40
 800144a:	4013      	ands	r3, r2
 800144c:	d1ed      	bne.n	800142a <main+0x172>
	  		  HAL_Delay((uint32_t)Toff);
 800144e:	4b88      	ldr	r3, [pc, #544]	; (8001670 <main+0x3b8>)
 8001450:	681b      	ldr	r3, [r3, #0]
 8001452:	1c18      	adds	r0, r3, #0
 8001454:	f7fe ff4e 	bl	80002f4 <__aeabi_f2uiz>
 8001458:	0003      	movs	r3, r0
 800145a:	0018      	movs	r0, r3
 800145c:	f001 f964 	bl	8002728 <HAL_Delay>
	  		  total_pulses++;
 8001460:	4b84      	ldr	r3, [pc, #528]	; (8001674 <main+0x3bc>)
 8001462:	681b      	ldr	r3, [r3, #0]
 8001464:	1c5a      	adds	r2, r3, #1
 8001466:	4b83      	ldr	r3, [pc, #524]	; (8001674 <main+0x3bc>)
 8001468:	601a      	str	r2, [r3, #0]
	  		  num--;
 800146a:	4b84      	ldr	r3, [pc, #528]	; (800167c <main+0x3c4>)
 800146c:	681b      	ldr	r3, [r3, #0]
 800146e:	1e5a      	subs	r2, r3, #1
 8001470:	4b82      	ldr	r3, [pc, #520]	; (800167c <main+0x3c4>)
 8001472:	601a      	str	r2, [r3, #0]
	  		  if(num>0 && state==2){
 8001474:	4b81      	ldr	r3, [pc, #516]	; (800167c <main+0x3c4>)
 8001476:	681b      	ldr	r3, [r3, #0]
 8001478:	2b00      	cmp	r3, #0
 800147a:	d00a      	beq.n	8001492 <main+0x1da>
 800147c:	4b79      	ldr	r3, [pc, #484]	; (8001664 <main+0x3ac>)
 800147e:	681b      	ldr	r3, [r3, #0]
 8001480:	2b02      	cmp	r3, #2
 8001482:	d106      	bne.n	8001492 <main+0x1da>
	  			  state=2;
 8001484:	4b77      	ldr	r3, [pc, #476]	; (8001664 <main+0x3ac>)
 8001486:	2202      	movs	r2, #2
 8001488:	601a      	str	r2, [r3, #0]
	  			  flag=1;
 800148a:	4b7b      	ldr	r3, [pc, #492]	; (8001678 <main+0x3c0>)
 800148c:	2201      	movs	r2, #1
 800148e:	601a      	str	r2, [r3, #0]
	  		  }
	  		  else{
	  			  state=3;
	  		  }
	  		  break;
 8001490:	e173      	b.n	800177a <main+0x4c2>
	  			  state=3;
 8001492:	4b74      	ldr	r3, [pc, #464]	; (8001664 <main+0x3ac>)
 8001494:	2203      	movs	r2, #3
 8001496:	601a      	str	r2, [r3, #0]
	  		  break;
 8001498:	e16f      	b.n	800177a <main+0x4c2>
	  	  case 3:
	  		  if(flag==2){
 800149a:	4b77      	ldr	r3, [pc, #476]	; (8001678 <main+0x3c0>)
 800149c:	681b      	ldr	r3, [r3, #0]
 800149e:	2b02      	cmp	r3, #2
 80014a0:	d129      	bne.n	80014f6 <main+0x23e>
	  			num=1;
 80014a2:	4b76      	ldr	r3, [pc, #472]	; (800167c <main+0x3c4>)
 80014a4:	2201      	movs	r2, #1
 80014a6:	601a      	str	r2, [r3, #0]
	  			save_data_2(Addr_num, 0, total_pulses, (uint32_t)Ton, (uint32_t)Toff, freq, duty_cycle);
 80014a8:	4b75      	ldr	r3, [pc, #468]	; (8001680 <main+0x3c8>)
 80014aa:	681c      	ldr	r4, [r3, #0]
 80014ac:	4b71      	ldr	r3, [pc, #452]	; (8001674 <main+0x3bc>)
 80014ae:	681d      	ldr	r5, [r3, #0]
 80014b0:	4b6e      	ldr	r3, [pc, #440]	; (800166c <main+0x3b4>)
 80014b2:	681b      	ldr	r3, [r3, #0]
 80014b4:	1c18      	adds	r0, r3, #0
 80014b6:	f7fe ff1d 	bl	80002f4 <__aeabi_f2uiz>
 80014ba:	0006      	movs	r6, r0
 80014bc:	4b6c      	ldr	r3, [pc, #432]	; (8001670 <main+0x3b8>)
 80014be:	681b      	ldr	r3, [r3, #0]
 80014c0:	1c18      	adds	r0, r3, #0
 80014c2:	f7fe ff17 	bl	80002f4 <__aeabi_f2uiz>
 80014c6:	0001      	movs	r1, r0
 80014c8:	4b6e      	ldr	r3, [pc, #440]	; (8001684 <main+0x3cc>)
 80014ca:	681a      	ldr	r2, [r3, #0]
 80014cc:	4b6e      	ldr	r3, [pc, #440]	; (8001688 <main+0x3d0>)
 80014ce:	681b      	ldr	r3, [r3, #0]
 80014d0:	9302      	str	r3, [sp, #8]
 80014d2:	9201      	str	r2, [sp, #4]
 80014d4:	9100      	str	r1, [sp, #0]
 80014d6:	0033      	movs	r3, r6
 80014d8:	002a      	movs	r2, r5
 80014da:	2100      	movs	r1, #0
 80014dc:	0020      	movs	r0, r4
 80014de:	f7ff fd84 	bl	8000fea <save_data_2>
	  			save_data_1(Addr_num+IF_INFINITY,num);
 80014e2:	4b67      	ldr	r3, [pc, #412]	; (8001680 <main+0x3c8>)
 80014e4:	681b      	ldr	r3, [r3, #0]
 80014e6:	1d1a      	adds	r2, r3, #4
 80014e8:	4b64      	ldr	r3, [pc, #400]	; (800167c <main+0x3c4>)
 80014ea:	681b      	ldr	r3, [r3, #0]
 80014ec:	0019      	movs	r1, r3
 80014ee:	0010      	movs	r0, r2
 80014f0:	f7ff fd68 	bl	8000fc4 <save_data_1>
 80014f4:	e022      	b.n	800153c <main+0x284>
	  		  }
	  		  else if(flag==1){
 80014f6:	4b60      	ldr	r3, [pc, #384]	; (8001678 <main+0x3c0>)
 80014f8:	681b      	ldr	r3, [r3, #0]
 80014fa:	2b01      	cmp	r3, #1
 80014fc:	d11e      	bne.n	800153c <main+0x284>
	  			save_data_2(Addr_num, num, total_pulses, (uint32_t)Ton, (uint32_t)Toff, freq, duty_cycle);
 80014fe:	4b60      	ldr	r3, [pc, #384]	; (8001680 <main+0x3c8>)
 8001500:	681c      	ldr	r4, [r3, #0]
 8001502:	4b5e      	ldr	r3, [pc, #376]	; (800167c <main+0x3c4>)
 8001504:	681d      	ldr	r5, [r3, #0]
 8001506:	4b5b      	ldr	r3, [pc, #364]	; (8001674 <main+0x3bc>)
 8001508:	681e      	ldr	r6, [r3, #0]
 800150a:	4b58      	ldr	r3, [pc, #352]	; (800166c <main+0x3b4>)
 800150c:	681b      	ldr	r3, [r3, #0]
 800150e:	1c18      	adds	r0, r3, #0
 8001510:	f7fe fef0 	bl	80002f4 <__aeabi_f2uiz>
 8001514:	4680      	mov	r8, r0
 8001516:	4b56      	ldr	r3, [pc, #344]	; (8001670 <main+0x3b8>)
 8001518:	681b      	ldr	r3, [r3, #0]
 800151a:	1c18      	adds	r0, r3, #0
 800151c:	f7fe feea 	bl	80002f4 <__aeabi_f2uiz>
 8001520:	0001      	movs	r1, r0
 8001522:	4b58      	ldr	r3, [pc, #352]	; (8001684 <main+0x3cc>)
 8001524:	681a      	ldr	r2, [r3, #0]
 8001526:	4b58      	ldr	r3, [pc, #352]	; (8001688 <main+0x3d0>)
 8001528:	681b      	ldr	r3, [r3, #0]
 800152a:	9302      	str	r3, [sp, #8]
 800152c:	9201      	str	r2, [sp, #4]
 800152e:	9100      	str	r1, [sp, #0]
 8001530:	4643      	mov	r3, r8
 8001532:	0032      	movs	r2, r6
 8001534:	0029      	movs	r1, r5
 8001536:	0020      	movs	r0, r4
 8001538:	f7ff fd57 	bl	8000fea <save_data_2>
	  		  }
	  		  save=1;
 800153c:	4b53      	ldr	r3, [pc, #332]	; (800168c <main+0x3d4>)
 800153e:	2201      	movs	r2, #1
 8001540:	601a      	str	r2, [r3, #0]
	  		  state=4;
 8001542:	4b48      	ldr	r3, [pc, #288]	; (8001664 <main+0x3ac>)
 8001544:	2204      	movs	r2, #4
 8001546:	601a      	str	r2, [r3, #0]
	  		  break;
 8001548:	e117      	b.n	800177a <main+0x4c2>
	  	  case 4:
	  		  if(flag==1){
 800154a:	4b4b      	ldr	r3, [pc, #300]	; (8001678 <main+0x3c0>)
 800154c:	681b      	ldr	r3, [r3, #0]
 800154e:	2b01      	cmp	r3, #1
 8001550:	d130      	bne.n	80015b4 <main+0x2fc>
	  			  fdata1=read_data(Addr_num);
 8001552:	4b4b      	ldr	r3, [pc, #300]	; (8001680 <main+0x3c8>)
 8001554:	681b      	ldr	r3, [r3, #0]
 8001556:	0018      	movs	r0, r3
 8001558:	f7ff fd82 	bl	8001060 <read_data>
 800155c:	0002      	movs	r2, r0
 800155e:	4b4c      	ldr	r3, [pc, #304]	; (8001690 <main+0x3d8>)
 8001560:	601a      	str	r2, [r3, #0]
	  			  fdata2=read_data(Addr_total_pulse);
 8001562:	4b4c      	ldr	r3, [pc, #304]	; (8001694 <main+0x3dc>)
 8001564:	681b      	ldr	r3, [r3, #0]
 8001566:	0018      	movs	r0, r3
 8001568:	f7ff fd7a 	bl	8001060 <read_data>
 800156c:	0002      	movs	r2, r0
 800156e:	4b4a      	ldr	r3, [pc, #296]	; (8001698 <main+0x3e0>)
 8001570:	601a      	str	r2, [r3, #0]
	  			  fdata3=read_data(Addr_Ton);
 8001572:	4b4a      	ldr	r3, [pc, #296]	; (800169c <main+0x3e4>)
 8001574:	681b      	ldr	r3, [r3, #0]
 8001576:	0018      	movs	r0, r3
 8001578:	f7ff fd72 	bl	8001060 <read_data>
 800157c:	0002      	movs	r2, r0
 800157e:	4b48      	ldr	r3, [pc, #288]	; (80016a0 <main+0x3e8>)
 8001580:	601a      	str	r2, [r3, #0]
	  			  fdata4=read_data(Addr_Toff);
 8001582:	4b48      	ldr	r3, [pc, #288]	; (80016a4 <main+0x3ec>)
 8001584:	681b      	ldr	r3, [r3, #0]
 8001586:	0018      	movs	r0, r3
 8001588:	f7ff fd6a 	bl	8001060 <read_data>
 800158c:	0002      	movs	r2, r0
 800158e:	4b46      	ldr	r3, [pc, #280]	; (80016a8 <main+0x3f0>)
 8001590:	601a      	str	r2, [r3, #0]
	  			  fdata5=read_data(Addr_freq);
 8001592:	4b46      	ldr	r3, [pc, #280]	; (80016ac <main+0x3f4>)
 8001594:	681b      	ldr	r3, [r3, #0]
 8001596:	0018      	movs	r0, r3
 8001598:	f7ff fd62 	bl	8001060 <read_data>
 800159c:	0002      	movs	r2, r0
 800159e:	4b44      	ldr	r3, [pc, #272]	; (80016b0 <main+0x3f8>)
 80015a0:	601a      	str	r2, [r3, #0]
	  			  fdata6=read_data(Addr_duty_cycle);
 80015a2:	4b44      	ldr	r3, [pc, #272]	; (80016b4 <main+0x3fc>)
 80015a4:	681b      	ldr	r3, [r3, #0]
 80015a6:	0018      	movs	r0, r3
 80015a8:	f7ff fd5a 	bl	8001060 <read_data>
 80015ac:	0002      	movs	r2, r0
 80015ae:	4b42      	ldr	r3, [pc, #264]	; (80016b8 <main+0x400>)
 80015b0:	601a      	str	r2, [r3, #0]
 80015b2:	e02f      	b.n	8001614 <main+0x35c>
	  		  }
	  		  else{
	  			  fdata1=read_data(Addr_num);
 80015b4:	4b32      	ldr	r3, [pc, #200]	; (8001680 <main+0x3c8>)
 80015b6:	681b      	ldr	r3, [r3, #0]
 80015b8:	0018      	movs	r0, r3
 80015ba:	f7ff fd51 	bl	8001060 <read_data>
 80015be:	0002      	movs	r2, r0
 80015c0:	4b33      	ldr	r3, [pc, #204]	; (8001690 <main+0x3d8>)
 80015c2:	601a      	str	r2, [r3, #0]
	  			  fdata2=read_data(Addr_total_pulse);
 80015c4:	4b33      	ldr	r3, [pc, #204]	; (8001694 <main+0x3dc>)
 80015c6:	681b      	ldr	r3, [r3, #0]
 80015c8:	0018      	movs	r0, r3
 80015ca:	f7ff fd49 	bl	8001060 <read_data>
 80015ce:	0002      	movs	r2, r0
 80015d0:	4b31      	ldr	r3, [pc, #196]	; (8001698 <main+0x3e0>)
 80015d2:	601a      	str	r2, [r3, #0]
	  			  fdata3=read_data(Addr_Ton);
 80015d4:	4b31      	ldr	r3, [pc, #196]	; (800169c <main+0x3e4>)
 80015d6:	681b      	ldr	r3, [r3, #0]
 80015d8:	0018      	movs	r0, r3
 80015da:	f7ff fd41 	bl	8001060 <read_data>
 80015de:	0002      	movs	r2, r0
 80015e0:	4b2f      	ldr	r3, [pc, #188]	; (80016a0 <main+0x3e8>)
 80015e2:	601a      	str	r2, [r3, #0]
	  			  fdata4=read_data(Addr_Toff);
 80015e4:	4b2f      	ldr	r3, [pc, #188]	; (80016a4 <main+0x3ec>)
 80015e6:	681b      	ldr	r3, [r3, #0]
 80015e8:	0018      	movs	r0, r3
 80015ea:	f7ff fd39 	bl	8001060 <read_data>
 80015ee:	0002      	movs	r2, r0
 80015f0:	4b2d      	ldr	r3, [pc, #180]	; (80016a8 <main+0x3f0>)
 80015f2:	601a      	str	r2, [r3, #0]
	  			  fdata5=read_data(Addr_freq);
 80015f4:	4b2d      	ldr	r3, [pc, #180]	; (80016ac <main+0x3f4>)
 80015f6:	681b      	ldr	r3, [r3, #0]
 80015f8:	0018      	movs	r0, r3
 80015fa:	f7ff fd31 	bl	8001060 <read_data>
 80015fe:	0002      	movs	r2, r0
 8001600:	4b2b      	ldr	r3, [pc, #172]	; (80016b0 <main+0x3f8>)
 8001602:	601a      	str	r2, [r3, #0]
	  			  fdata6=read_data(Addr_duty_cycle);
 8001604:	4b2b      	ldr	r3, [pc, #172]	; (80016b4 <main+0x3fc>)
 8001606:	681b      	ldr	r3, [r3, #0]
 8001608:	0018      	movs	r0, r3
 800160a:	f7ff fd29 	bl	8001060 <read_data>
 800160e:	0002      	movs	r2, r0
 8001610:	4b29      	ldr	r3, [pc, #164]	; (80016b8 <main+0x400>)
 8001612:	601a      	str	r2, [r3, #0]
	  		  }
	  		  num=0;
 8001614:	4b19      	ldr	r3, [pc, #100]	; (800167c <main+0x3c4>)
 8001616:	2200      	movs	r2, #0
 8001618:	601a      	str	r2, [r3, #0]
	  		  freq=0;
 800161a:	4b1a      	ldr	r3, [pc, #104]	; (8001684 <main+0x3cc>)
 800161c:	2200      	movs	r2, #0
 800161e:	601a      	str	r2, [r3, #0]
	  		  duty_cycle=0;
 8001620:	4b19      	ldr	r3, [pc, #100]	; (8001688 <main+0x3d0>)
 8001622:	2200      	movs	r2, #0
 8001624:	601a      	str	r2, [r3, #0]
	  		  Ton=0;
 8001626:	4b11      	ldr	r3, [pc, #68]	; (800166c <main+0x3b4>)
 8001628:	2200      	movs	r2, #0
 800162a:	601a      	str	r2, [r3, #0]
	  		  Toff=0;
 800162c:	4b10      	ldr	r3, [pc, #64]	; (8001670 <main+0x3b8>)
 800162e:	2200      	movs	r2, #0
 8001630:	601a      	str	r2, [r3, #0]
	  		  total_pulses=0;
 8001632:	4b10      	ldr	r3, [pc, #64]	; (8001674 <main+0x3bc>)
 8001634:	2200      	movs	r2, #0
 8001636:	601a      	str	r2, [r3, #0]
	  		  if(pvd==0){
 8001638:	4b08      	ldr	r3, [pc, #32]	; (800165c <main+0x3a4>)
 800163a:	681b      	ldr	r3, [r3, #0]
 800163c:	2b00      	cmp	r3, #0
 800163e:	d103      	bne.n	8001648 <main+0x390>
	  			  state=5;
 8001640:	4b08      	ldr	r3, [pc, #32]	; (8001664 <main+0x3ac>)
 8001642:	2205      	movs	r2, #5
 8001644:	601a      	str	r2, [r3, #0]
	  		  }
	  		  else{
	  			  state=0;
	  		  }
	  		  break;
 8001646:	e098      	b.n	800177a <main+0x4c2>
	  			  state=0;
 8001648:	4b06      	ldr	r3, [pc, #24]	; (8001664 <main+0x3ac>)
 800164a:	2200      	movs	r2, #0
 800164c:	601a      	str	r2, [r3, #0]
	  		  break;
 800164e:	e094      	b.n	800177a <main+0x4c2>
 8001650:	2000001c 	.word	0x2000001c
 8001654:	20000228 	.word	0x20000228
 8001658:	20000300 	.word	0x20000300
 800165c:	20000018 	.word	0x20000018
 8001660:	50000400 	.word	0x50000400
 8001664:	200002f4 	.word	0x200002f4
 8001668:	080070a8 	.word	0x080070a8
 800166c:	20000254 	.word	0x20000254
 8001670:	20000258 	.word	0x20000258
 8001674:	20000250 	.word	0x20000250
 8001678:	200002f0 	.word	0x200002f0
 800167c:	2000022c 	.word	0x2000022c
 8001680:	20000000 	.word	0x20000000
 8001684:	20000230 	.word	0x20000230
 8001688:	20000234 	.word	0x20000234
 800168c:	200002f8 	.word	0x200002f8
 8001690:	20000238 	.word	0x20000238
 8001694:	20000004 	.word	0x20000004
 8001698:	2000023c 	.word	0x2000023c
 800169c:	20000008 	.word	0x20000008
 80016a0:	20000240 	.word	0x20000240
 80016a4:	2000000c 	.word	0x2000000c
 80016a8:	20000244 	.word	0x20000244
 80016ac:	20000010 	.word	0x20000010
 80016b0:	20000248 	.word	0x20000248
 80016b4:	20000014 	.word	0x20000014
 80016b8:	2000024c 	.word	0x2000024c
	  	  case 5:
	  		  printf("\n\r");
 80016bc:	4b3a      	ldr	r3, [pc, #232]	; (80017a8 <main+0x4f0>)
 80016be:	0018      	movs	r0, r3
 80016c0:	f004 fb14 	bl	8005cec <iprintf>
	  		  if(read_data(Addr_num+IF_INFINITY)==1){
 80016c4:	4b39      	ldr	r3, [pc, #228]	; (80017ac <main+0x4f4>)
 80016c6:	681b      	ldr	r3, [r3, #0]
 80016c8:	3304      	adds	r3, #4
 80016ca:	0018      	movs	r0, r3
 80016cc:	f7ff fcc8 	bl	8001060 <read_data>
 80016d0:	0003      	movs	r3, r0
 80016d2:	2b01      	cmp	r3, #1
 80016d4:	d114      	bne.n	8001700 <main+0x448>
	  			  sprintf(line_buffer,"User chose to generate infinity pulses,Total pulses:%lu,Ton:%lu,Toff:%lu,Freq:%lu,Duty_cycle:%lu\r\n",fdata2,fdata3,fdata4,fdata5,fdata6);
 80016d6:	4b36      	ldr	r3, [pc, #216]	; (80017b0 <main+0x4f8>)
 80016d8:	681d      	ldr	r5, [r3, #0]
 80016da:	4b36      	ldr	r3, [pc, #216]	; (80017b4 <main+0x4fc>)
 80016dc:	681e      	ldr	r6, [r3, #0]
 80016de:	4b36      	ldr	r3, [pc, #216]	; (80017b8 <main+0x500>)
 80016e0:	681a      	ldr	r2, [r3, #0]
 80016e2:	4b36      	ldr	r3, [pc, #216]	; (80017bc <main+0x504>)
 80016e4:	6819      	ldr	r1, [r3, #0]
 80016e6:	4b36      	ldr	r3, [pc, #216]	; (80017c0 <main+0x508>)
 80016e8:	681b      	ldr	r3, [r3, #0]
 80016ea:	4c36      	ldr	r4, [pc, #216]	; (80017c4 <main+0x50c>)
 80016ec:	4836      	ldr	r0, [pc, #216]	; (80017c8 <main+0x510>)
 80016ee:	9302      	str	r3, [sp, #8]
 80016f0:	9101      	str	r1, [sp, #4]
 80016f2:	9200      	str	r2, [sp, #0]
 80016f4:	0033      	movs	r3, r6
 80016f6:	002a      	movs	r2, r5
 80016f8:	0021      	movs	r1, r4
 80016fa:	f004 fb07 	bl	8005d0c <siprintf>
 80016fe:	e018      	b.n	8001732 <main+0x47a>
	  		  }
	  		  else{
	  			  sprintf(line_buffer,"How many pulses left:%lu,Total pulses:%lu,Ton:%lu,Toff:%lu,Freq:%lu,Duty cycle:%lu\r\n",fdata1,fdata2,fdata3,fdata4,fdata5,fdata6);
 8001700:	4b32      	ldr	r3, [pc, #200]	; (80017cc <main+0x514>)
 8001702:	681e      	ldr	r6, [r3, #0]
 8001704:	4b2a      	ldr	r3, [pc, #168]	; (80017b0 <main+0x4f8>)
 8001706:	681b      	ldr	r3, [r3, #0]
 8001708:	469c      	mov	ip, r3
 800170a:	4b2a      	ldr	r3, [pc, #168]	; (80017b4 <main+0x4fc>)
 800170c:	681a      	ldr	r2, [r3, #0]
 800170e:	4b2a      	ldr	r3, [pc, #168]	; (80017b8 <main+0x500>)
 8001710:	6819      	ldr	r1, [r3, #0]
 8001712:	4b2a      	ldr	r3, [pc, #168]	; (80017bc <main+0x504>)
 8001714:	6818      	ldr	r0, [r3, #0]
 8001716:	4b2a      	ldr	r3, [pc, #168]	; (80017c0 <main+0x508>)
 8001718:	681b      	ldr	r3, [r3, #0]
 800171a:	4d2d      	ldr	r5, [pc, #180]	; (80017d0 <main+0x518>)
 800171c:	4c2a      	ldr	r4, [pc, #168]	; (80017c8 <main+0x510>)
 800171e:	9303      	str	r3, [sp, #12]
 8001720:	9002      	str	r0, [sp, #8]
 8001722:	9101      	str	r1, [sp, #4]
 8001724:	9200      	str	r2, [sp, #0]
 8001726:	4663      	mov	r3, ip
 8001728:	0032      	movs	r2, r6
 800172a:	0029      	movs	r1, r5
 800172c:	0020      	movs	r0, r4
 800172e:	f004 faed 	bl	8005d0c <siprintf>
	  		  }
	  		  HAL_UART_Transmit(&huart2, (uint8_t*)line_buffer, strlen(line_buffer), 50);
 8001732:	4b25      	ldr	r3, [pc, #148]	; (80017c8 <main+0x510>)
 8001734:	0018      	movs	r0, r3
 8001736:	f7fe fcf1 	bl	800011c <strlen>
 800173a:	0003      	movs	r3, r0
 800173c:	b29a      	uxth	r2, r3
 800173e:	4922      	ldr	r1, [pc, #136]	; (80017c8 <main+0x510>)
 8001740:	4824      	ldr	r0, [pc, #144]	; (80017d4 <main+0x51c>)
 8001742:	2332      	movs	r3, #50	; 0x32
 8001744:	f002 fdbc 	bl	80042c0 <HAL_UART_Transmit>
	  		  for(int i;i<strlen(line_buffer);i++){
 8001748:	e007      	b.n	800175a <main+0x4a2>
	  			  line_buffer[i]='\0';
 800174a:	4a1f      	ldr	r2, [pc, #124]	; (80017c8 <main+0x510>)
 800174c:	687b      	ldr	r3, [r7, #4]
 800174e:	18d3      	adds	r3, r2, r3
 8001750:	2200      	movs	r2, #0
 8001752:	701a      	strb	r2, [r3, #0]
	  		  for(int i;i<strlen(line_buffer);i++){
 8001754:	687b      	ldr	r3, [r7, #4]
 8001756:	3301      	adds	r3, #1
 8001758:	607b      	str	r3, [r7, #4]
 800175a:	4b1b      	ldr	r3, [pc, #108]	; (80017c8 <main+0x510>)
 800175c:	0018      	movs	r0, r3
 800175e:	f7fe fcdd 	bl	800011c <strlen>
 8001762:	0002      	movs	r2, r0
 8001764:	687b      	ldr	r3, [r7, #4]
 8001766:	429a      	cmp	r2, r3
 8001768:	d8ef      	bhi.n	800174a <main+0x492>
	  		  }
	  		  flag=0;
 800176a:	4b1b      	ldr	r3, [pc, #108]	; (80017d8 <main+0x520>)
 800176c:	2200      	movs	r2, #0
 800176e:	601a      	str	r2, [r3, #0]
	  		  state=0;
 8001770:	4b1a      	ldr	r3, [pc, #104]	; (80017dc <main+0x524>)
 8001772:	2200      	movs	r2, #0
 8001774:	601a      	str	r2, [r3, #0]
	  		  break;
 8001776:	e000      	b.n	800177a <main+0x4c2>
	  	  default:
	  		  break;
 8001778:	46c0      	nop			; (mov r8, r8)
	  	  }
	  if((read_data((Addr_num+PVD))==1) && pvd==1 && save==1){
 800177a:	4b0c      	ldr	r3, [pc, #48]	; (80017ac <main+0x4f4>)
 800177c:	681b      	ldr	r3, [r3, #0]
 800177e:	3308      	adds	r3, #8
 8001780:	0018      	movs	r0, r3
 8001782:	f7ff fc6d 	bl	8001060 <read_data>
 8001786:	0003      	movs	r3, r0
 8001788:	2b01      	cmp	r3, #1
 800178a:	d000      	beq.n	800178e <main+0x4d6>
 800178c:	e5b1      	b.n	80012f2 <main+0x3a>
 800178e:	4b14      	ldr	r3, [pc, #80]	; (80017e0 <main+0x528>)
 8001790:	681b      	ldr	r3, [r3, #0]
 8001792:	2b01      	cmp	r3, #1
 8001794:	d000      	beq.n	8001798 <main+0x4e0>
 8001796:	e5ac      	b.n	80012f2 <main+0x3a>
 8001798:	4b12      	ldr	r3, [pc, #72]	; (80017e4 <main+0x52c>)
 800179a:	681b      	ldr	r3, [r3, #0]
 800179c:	2b01      	cmp	r3, #1
 800179e:	d000      	beq.n	80017a2 <main+0x4ea>
 80017a0:	e5a7      	b.n	80012f2 <main+0x3a>
		 STANDBY();
 80017a2:	f000 fcf9 	bl	8002198 <STANDBY>
	  if(pvd==0){
 80017a6:	e5a4      	b.n	80012f2 <main+0x3a>
 80017a8:	08006ee4 	.word	0x08006ee4
 80017ac:	20000000 	.word	0x20000000
 80017b0:	2000023c 	.word	0x2000023c
 80017b4:	20000240 	.word	0x20000240
 80017b8:	20000244 	.word	0x20000244
 80017bc:	20000248 	.word	0x20000248
 80017c0:	2000024c 	.word	0x2000024c
 80017c4:	08006ee8 	.word	0x08006ee8
 80017c8:	20000260 	.word	0x20000260
 80017cc:	20000238 	.word	0x20000238
 80017d0:	08006f4c 	.word	0x08006f4c
 80017d4:	20000300 	.word	0x20000300
 80017d8:	200002f0 	.word	0x200002f0
 80017dc:	200002f4 	.word	0x200002f4
 80017e0:	20000018 	.word	0x20000018
 80017e4:	200002f8 	.word	0x200002f8

080017e8 <SystemClock_Config>:
/**
  * @brief System Clock Configuration
  * @retval None
  */
void SystemClock_Config(void)
{
 80017e8:	b590      	push	{r4, r7, lr}
 80017ea:	b09f      	sub	sp, #124	; 0x7c
 80017ec:	af00      	add	r7, sp, #0
  RCC_OscInitTypeDef RCC_OscInitStruct = {0};
 80017ee:	2440      	movs	r4, #64	; 0x40
 80017f0:	193b      	adds	r3, r7, r4
 80017f2:	0018      	movs	r0, r3
 80017f4:	2338      	movs	r3, #56	; 0x38
 80017f6:	001a      	movs	r2, r3
 80017f8:	2100      	movs	r1, #0
 80017fa:	f004 faf3 	bl	8005de4 <memset>
  RCC_ClkInitTypeDef RCC_ClkInitStruct = {0};
 80017fe:	232c      	movs	r3, #44	; 0x2c
 8001800:	18fb      	adds	r3, r7, r3
 8001802:	0018      	movs	r0, r3
 8001804:	2314      	movs	r3, #20
 8001806:	001a      	movs	r2, r3
 8001808:	2100      	movs	r1, #0
 800180a:	f004 faeb 	bl	8005de4 <memset>
  RCC_PeriphCLKInitTypeDef PeriphClkInit = {0};
 800180e:	1d3b      	adds	r3, r7, #4
 8001810:	0018      	movs	r0, r3
 8001812:	2328      	movs	r3, #40	; 0x28
 8001814:	001a      	movs	r2, r3
 8001816:	2100      	movs	r1, #0
 8001818:	f004 fae4 	bl	8005de4 <memset>

  /** Configure the main internal regulator output voltage
  */
  __HAL_PWR_VOLTAGESCALING_CONFIG(PWR_REGULATOR_VOLTAGE_SCALE1);
 800181c:	4b26      	ldr	r3, [pc, #152]	; (80018b8 <SystemClock_Config+0xd0>)
 800181e:	681b      	ldr	r3, [r3, #0]
 8001820:	4a26      	ldr	r2, [pc, #152]	; (80018bc <SystemClock_Config+0xd4>)
 8001822:	401a      	ands	r2, r3
 8001824:	4b24      	ldr	r3, [pc, #144]	; (80018b8 <SystemClock_Config+0xd0>)
 8001826:	2180      	movs	r1, #128	; 0x80
 8001828:	0109      	lsls	r1, r1, #4
 800182a:	430a      	orrs	r2, r1
 800182c:	601a      	str	r2, [r3, #0]

  /** Initializes the RCC Oscillators according to the specified parameters
  * in the RCC_OscInitTypeDef structure.
  */
  RCC_OscInitStruct.OscillatorType = RCC_OSCILLATORTYPE_MSI;
 800182e:	0021      	movs	r1, r4
 8001830:	187b      	adds	r3, r7, r1
 8001832:	2210      	movs	r2, #16
 8001834:	601a      	str	r2, [r3, #0]
  RCC_OscInitStruct.MSIState = RCC_MSI_ON;
 8001836:	187b      	adds	r3, r7, r1
 8001838:	2201      	movs	r2, #1
 800183a:	61da      	str	r2, [r3, #28]
  RCC_OscInitStruct.MSICalibrationValue = 0;
 800183c:	187b      	adds	r3, r7, r1
 800183e:	2200      	movs	r2, #0
 8001840:	621a      	str	r2, [r3, #32]
  RCC_OscInitStruct.MSIClockRange = RCC_MSIRANGE_5;
 8001842:	187b      	adds	r3, r7, r1
 8001844:	22a0      	movs	r2, #160	; 0xa0
 8001846:	0212      	lsls	r2, r2, #8
 8001848:	625a      	str	r2, [r3, #36]	; 0x24
  RCC_OscInitStruct.PLL.PLLState = RCC_PLL_NONE;
 800184a:	187b      	adds	r3, r7, r1
 800184c:	2200      	movs	r2, #0
 800184e:	629a      	str	r2, [r3, #40]	; 0x28
  if (HAL_RCC_OscConfig(&RCC_OscInitStruct) != HAL_OK)
 8001850:	187b      	adds	r3, r7, r1
 8001852:	0018      	movs	r0, r3
 8001854:	f001 fd4a 	bl	80032ec <HAL_RCC_OscConfig>
 8001858:	1e03      	subs	r3, r0, #0
 800185a:	d001      	beq.n	8001860 <SystemClock_Config+0x78>
  {
    Error_Handler();
 800185c:	f000 fc96 	bl	800218c <Error_Handler>
  }

  /** Initializes the CPU, AHB and APB buses clocks
  */
  RCC_ClkInitStruct.ClockType = RCC_CLOCKTYPE_HCLK|RCC_CLOCKTYPE_SYSCLK
 8001860:	212c      	movs	r1, #44	; 0x2c
 8001862:	187b      	adds	r3, r7, r1
 8001864:	220f      	movs	r2, #15
 8001866:	601a      	str	r2, [r3, #0]
                              |RCC_CLOCKTYPE_PCLK1|RCC_CLOCKTYPE_PCLK2;
  RCC_ClkInitStruct.SYSCLKSource = RCC_SYSCLKSOURCE_MSI;
 8001868:	187b      	adds	r3, r7, r1
 800186a:	2200      	movs	r2, #0
 800186c:	605a      	str	r2, [r3, #4]
  RCC_ClkInitStruct.AHBCLKDivider = RCC_SYSCLK_DIV1;
 800186e:	187b      	adds	r3, r7, r1
 8001870:	2200      	movs	r2, #0
 8001872:	609a      	str	r2, [r3, #8]
  RCC_ClkInitStruct.APB1CLKDivider = RCC_HCLK_DIV1;
 8001874:	187b      	adds	r3, r7, r1
 8001876:	2200      	movs	r2, #0
 8001878:	60da      	str	r2, [r3, #12]
  RCC_ClkInitStruct.APB2CLKDivider = RCC_HCLK_DIV1;
 800187a:	187b      	adds	r3, r7, r1
 800187c:	2200      	movs	r2, #0
 800187e:	611a      	str	r2, [r3, #16]

  if (HAL_RCC_ClockConfig(&RCC_ClkInitStruct, FLASH_LATENCY_0) != HAL_OK)
 8001880:	187b      	adds	r3, r7, r1
 8001882:	2100      	movs	r1, #0
 8001884:	0018      	movs	r0, r3
 8001886:	f002 f905 	bl	8003a94 <HAL_RCC_ClockConfig>
 800188a:	1e03      	subs	r3, r0, #0
 800188c:	d001      	beq.n	8001892 <SystemClock_Config+0xaa>
  {
    Error_Handler();
 800188e:	f000 fc7d 	bl	800218c <Error_Handler>
  }
  PeriphClkInit.PeriphClockSelection = RCC_PERIPHCLK_USART2;
 8001892:	1d3b      	adds	r3, r7, #4
 8001894:	2202      	movs	r2, #2
 8001896:	601a      	str	r2, [r3, #0]
  PeriphClkInit.Usart2ClockSelection = RCC_USART2CLKSOURCE_SYSCLK;
 8001898:	1d3b      	adds	r3, r7, #4
 800189a:	2204      	movs	r2, #4
 800189c:	611a      	str	r2, [r3, #16]
  if (HAL_RCCEx_PeriphCLKConfig(&PeriphClkInit) != HAL_OK)
 800189e:	1d3b      	adds	r3, r7, #4
 80018a0:	0018      	movs	r0, r3
 80018a2:	f002 fb1b 	bl	8003edc <HAL_RCCEx_PeriphCLKConfig>
 80018a6:	1e03      	subs	r3, r0, #0
 80018a8:	d001      	beq.n	80018ae <SystemClock_Config+0xc6>
  {
    Error_Handler();
 80018aa:	f000 fc6f 	bl	800218c <Error_Handler>
  }
}
 80018ae:	46c0      	nop			; (mov r8, r8)
 80018b0:	46bd      	mov	sp, r7
 80018b2:	b01f      	add	sp, #124	; 0x7c
 80018b4:	bd90      	pop	{r4, r7, pc}
 80018b6:	46c0      	nop			; (mov r8, r8)
 80018b8:	40007000 	.word	0x40007000
 80018bc:	ffffe7ff 	.word	0xffffe7ff

080018c0 <GPIO_LEDS>:

/* USER CODE BEGIN 4 */

void GPIO_LEDS(void){
 80018c0:	b580      	push	{r7, lr}
 80018c2:	af00      	add	r7, sp, #0
	RCC->IOPENR |= RCC_IOPENR_GPIOBEN;
 80018c4:	4b2c      	ldr	r3, [pc, #176]	; (8001978 <GPIO_LEDS+0xb8>)
 80018c6:	6ada      	ldr	r2, [r3, #44]	; 0x2c
 80018c8:	4b2b      	ldr	r3, [pc, #172]	; (8001978 <GPIO_LEDS+0xb8>)
 80018ca:	2102      	movs	r1, #2
 80018cc:	430a      	orrs	r2, r1
 80018ce:	62da      	str	r2, [r3, #44]	; 0x2c
	RCC->IOPENR |= RCC_IOPENR_GPIOAEN;
 80018d0:	4b29      	ldr	r3, [pc, #164]	; (8001978 <GPIO_LEDS+0xb8>)
 80018d2:	6ada      	ldr	r2, [r3, #44]	; 0x2c
 80018d4:	4b28      	ldr	r3, [pc, #160]	; (8001978 <GPIO_LEDS+0xb8>)
 80018d6:	2101      	movs	r1, #1
 80018d8:	430a      	orrs	r2, r1
 80018da:	62da      	str	r2, [r3, #44]	; 0x2c

	GPIOA->MODER &= ((GPIOB->MODER & ~(GPIO_MODER_MODE5)) | (GPIO_MODER_MODE5_0));
 80018dc:	4b27      	ldr	r3, [pc, #156]	; (800197c <GPIO_LEDS+0xbc>)
 80018de:	681b      	ldr	r3, [r3, #0]
 80018e0:	4a27      	ldr	r2, [pc, #156]	; (8001980 <GPIO_LEDS+0xc0>)
 80018e2:	4013      	ands	r3, r2
 80018e4:	2280      	movs	r2, #128	; 0x80
 80018e6:	00d2      	lsls	r2, r2, #3
 80018e8:	431a      	orrs	r2, r3
 80018ea:	23a0      	movs	r3, #160	; 0xa0
 80018ec:	05db      	lsls	r3, r3, #23
 80018ee:	6819      	ldr	r1, [r3, #0]
 80018f0:	23a0      	movs	r3, #160	; 0xa0
 80018f2:	05db      	lsls	r3, r3, #23
 80018f4:	400a      	ands	r2, r1
 80018f6:	601a      	str	r2, [r3, #0]
	GPIOA->MODER &= ((GPIOB->MODER & ~(GPIO_MODER_MODE10)) | (GPIO_MODER_MODE10_0));
 80018f8:	4b20      	ldr	r3, [pc, #128]	; (800197c <GPIO_LEDS+0xbc>)
 80018fa:	681b      	ldr	r3, [r3, #0]
 80018fc:	4a21      	ldr	r2, [pc, #132]	; (8001984 <GPIO_LEDS+0xc4>)
 80018fe:	4013      	ands	r3, r2
 8001900:	2280      	movs	r2, #128	; 0x80
 8001902:	0352      	lsls	r2, r2, #13
 8001904:	431a      	orrs	r2, r3
 8001906:	23a0      	movs	r3, #160	; 0xa0
 8001908:	05db      	lsls	r3, r3, #23
 800190a:	6819      	ldr	r1, [r3, #0]
 800190c:	23a0      	movs	r3, #160	; 0xa0
 800190e:	05db      	lsls	r3, r3, #23
 8001910:	400a      	ands	r2, r1
 8001912:	601a      	str	r2, [r3, #0]

	GPIOB->MODER &= ((GPIOB->MODER & ~(GPIO_MODER_MODE5)) | (GPIO_MODER_MODE5_0));
 8001914:	4b19      	ldr	r3, [pc, #100]	; (800197c <GPIO_LEDS+0xbc>)
 8001916:	681b      	ldr	r3, [r3, #0]
 8001918:	4a19      	ldr	r2, [pc, #100]	; (8001980 <GPIO_LEDS+0xc0>)
 800191a:	4013      	ands	r3, r2
 800191c:	2280      	movs	r2, #128	; 0x80
 800191e:	00d2      	lsls	r2, r2, #3
 8001920:	431a      	orrs	r2, r3
 8001922:	4b16      	ldr	r3, [pc, #88]	; (800197c <GPIO_LEDS+0xbc>)
 8001924:	6819      	ldr	r1, [r3, #0]
 8001926:	4b15      	ldr	r3, [pc, #84]	; (800197c <GPIO_LEDS+0xbc>)
 8001928:	400a      	ands	r2, r1
 800192a:	601a      	str	r2, [r3, #0]
	GPIOB->MODER &= ((GPIOB->MODER & ~(GPIO_MODER_MODE1)) | (GPIO_MODER_MODE1_0));
 800192c:	4b13      	ldr	r3, [pc, #76]	; (800197c <GPIO_LEDS+0xbc>)
 800192e:	681b      	ldr	r3, [r3, #0]
 8001930:	220c      	movs	r2, #12
 8001932:	4393      	bics	r3, r2
 8001934:	2204      	movs	r2, #4
 8001936:	431a      	orrs	r2, r3
 8001938:	4b10      	ldr	r3, [pc, #64]	; (800197c <GPIO_LEDS+0xbc>)
 800193a:	6819      	ldr	r1, [r3, #0]
 800193c:	4b0f      	ldr	r3, [pc, #60]	; (800197c <GPIO_LEDS+0xbc>)
 800193e:	400a      	ands	r2, r1
 8001940:	601a      	str	r2, [r3, #0]
	GPIOB->MODER &= ((GPIOB->MODER & ~(GPIO_MODER_MODE15)) | (GPIO_MODER_MODE15_0));
 8001942:	4b0e      	ldr	r3, [pc, #56]	; (800197c <GPIO_LEDS+0xbc>)
 8001944:	681b      	ldr	r3, [r3, #0]
 8001946:	009b      	lsls	r3, r3, #2
 8001948:	089b      	lsrs	r3, r3, #2
 800194a:	2280      	movs	r2, #128	; 0x80
 800194c:	05d2      	lsls	r2, r2, #23
 800194e:	431a      	orrs	r2, r3
 8001950:	4b0a      	ldr	r3, [pc, #40]	; (800197c <GPIO_LEDS+0xbc>)
 8001952:	6819      	ldr	r1, [r3, #0]
 8001954:	4b09      	ldr	r3, [pc, #36]	; (800197c <GPIO_LEDS+0xbc>)
 8001956:	400a      	ands	r2, r1
 8001958:	601a      	str	r2, [r3, #0]
	GPIOB->MODER &= ((GPIOB->MODER & ~(GPIO_MODER_MODE3)) | (GPIO_MODER_MODE3_0));
 800195a:	4b08      	ldr	r3, [pc, #32]	; (800197c <GPIO_LEDS+0xbc>)
 800195c:	681b      	ldr	r3, [r3, #0]
 800195e:	22c0      	movs	r2, #192	; 0xc0
 8001960:	4393      	bics	r3, r2
 8001962:	2240      	movs	r2, #64	; 0x40
 8001964:	431a      	orrs	r2, r3
 8001966:	4b05      	ldr	r3, [pc, #20]	; (800197c <GPIO_LEDS+0xbc>)
 8001968:	6819      	ldr	r1, [r3, #0]
 800196a:	4b04      	ldr	r3, [pc, #16]	; (800197c <GPIO_LEDS+0xbc>)
 800196c:	400a      	ands	r2, r1
 800196e:	601a      	str	r2, [r3, #0]
}
 8001970:	46c0      	nop			; (mov r8, r8)
 8001972:	46bd      	mov	sp, r7
 8001974:	bd80      	pop	{r7, pc}
 8001976:	46c0      	nop			; (mov r8, r8)
 8001978:	40021000 	.word	0x40021000
 800197c:	50000400 	.word	0x50000400
 8001980:	fffff3ff 	.word	0xfffff3ff
 8001984:	ffcfffff 	.word	0xffcfffff

08001988 <PG_init>:

void PG_init(void){
 8001988:	b580      	push	{r7, lr}
 800198a:	af00      	add	r7, sp, #0
	RCC->IOPENR  |= RCC_IOPENR_GPIOAEN;
 800198c:	4b20      	ldr	r3, [pc, #128]	; (8001a10 <PG_init+0x88>)
 800198e:	6ada      	ldr	r2, [r3, #44]	; 0x2c
 8001990:	4b1f      	ldr	r3, [pc, #124]	; (8001a10 <PG_init+0x88>)
 8001992:	2101      	movs	r1, #1
 8001994:	430a      	orrs	r2, r1
 8001996:	62da      	str	r2, [r3, #44]	; 0x2c

	GPIOA -> MODER = (GPIO_MODER_MODE0_0)|(GPIOA->MODER & ~GPIO_MODER_MODE0);
 8001998:	23a0      	movs	r3, #160	; 0xa0
 800199a:	05db      	lsls	r3, r3, #23
 800199c:	681b      	ldr	r3, [r3, #0]
 800199e:	2203      	movs	r2, #3
 80019a0:	4393      	bics	r3, r2
 80019a2:	001a      	movs	r2, r3
 80019a4:	23a0      	movs	r3, #160	; 0xa0
 80019a6:	05db      	lsls	r3, r3, #23
 80019a8:	2101      	movs	r1, #1
 80019aa:	430a      	orrs	r2, r1
 80019ac:	601a      	str	r2, [r3, #0]
	GPIOA -> MODER = (GPIO_MODER_MODE1_0)|(GPIOA->MODER & ~GPIO_MODER_MODE1);
 80019ae:	23a0      	movs	r3, #160	; 0xa0
 80019b0:	05db      	lsls	r3, r3, #23
 80019b2:	681b      	ldr	r3, [r3, #0]
 80019b4:	220c      	movs	r2, #12
 80019b6:	4393      	bics	r3, r2
 80019b8:	001a      	movs	r2, r3
 80019ba:	23a0      	movs	r3, #160	; 0xa0
 80019bc:	05db      	lsls	r3, r3, #23
 80019be:	2104      	movs	r1, #4
 80019c0:	430a      	orrs	r2, r1
 80019c2:	601a      	str	r2, [r3, #0]
	GPIOA -> MODER = (GPIO_MODER_MODE6_0)|(GPIOA->MODER & ~GPIO_MODER_MODE6);
 80019c4:	23a0      	movs	r3, #160	; 0xa0
 80019c6:	05db      	lsls	r3, r3, #23
 80019c8:	681b      	ldr	r3, [r3, #0]
 80019ca:	4a12      	ldr	r2, [pc, #72]	; (8001a14 <PG_init+0x8c>)
 80019cc:	401a      	ands	r2, r3
 80019ce:	23a0      	movs	r3, #160	; 0xa0
 80019d0:	05db      	lsls	r3, r3, #23
 80019d2:	2180      	movs	r1, #128	; 0x80
 80019d4:	0149      	lsls	r1, r1, #5
 80019d6:	430a      	orrs	r2, r1
 80019d8:	601a      	str	r2, [r3, #0]

	GPIOA-> BSRR |= (1U<<0);
 80019da:	23a0      	movs	r3, #160	; 0xa0
 80019dc:	05db      	lsls	r3, r3, #23
 80019de:	699a      	ldr	r2, [r3, #24]
 80019e0:	23a0      	movs	r3, #160	; 0xa0
 80019e2:	05db      	lsls	r3, r3, #23
 80019e4:	2101      	movs	r1, #1
 80019e6:	430a      	orrs	r2, r1
 80019e8:	619a      	str	r2, [r3, #24]
	GPIOA-> BSRR |= (1U<<1);
 80019ea:	23a0      	movs	r3, #160	; 0xa0
 80019ec:	05db      	lsls	r3, r3, #23
 80019ee:	699a      	ldr	r2, [r3, #24]
 80019f0:	23a0      	movs	r3, #160	; 0xa0
 80019f2:	05db      	lsls	r3, r3, #23
 80019f4:	2102      	movs	r1, #2
 80019f6:	430a      	orrs	r2, r1
 80019f8:	619a      	str	r2, [r3, #24]
	GPIOA-> BSRR |= (1U<<6);
 80019fa:	23a0      	movs	r3, #160	; 0xa0
 80019fc:	05db      	lsls	r3, r3, #23
 80019fe:	699a      	ldr	r2, [r3, #24]
 8001a00:	23a0      	movs	r3, #160	; 0xa0
 8001a02:	05db      	lsls	r3, r3, #23
 8001a04:	2140      	movs	r1, #64	; 0x40
 8001a06:	430a      	orrs	r2, r1
 8001a08:	619a      	str	r2, [r3, #24]
}
 8001a0a:	46c0      	nop			; (mov r8, r8)
 8001a0c:	46bd      	mov	sp, r7
 8001a0e:	bd80      	pop	{r7, pc}
 8001a10:	40021000 	.word	0x40021000
 8001a14:	ffffcfff 	.word	0xffffcfff

08001a18 <MENU_USB>:

void MENU_USB(uint8_t value){
 8001a18:	b580      	push	{r7, lr}
 8001a1a:	b08c      	sub	sp, #48	; 0x30
 8001a1c:	af00      	add	r7, sp, #0
 8001a1e:	0002      	movs	r2, r0
 8001a20:	1dfb      	adds	r3, r7, #7
 8001a22:	701a      	strb	r2, [r3, #0]
	int result;
	char * ptr;
 		if (value == '\r' || value == '\n') {
 8001a24:	1dfb      	adds	r3, r7, #7
 8001a26:	781b      	ldrb	r3, [r3, #0]
 8001a28:	2b0d      	cmp	r3, #13
 8001a2a:	d004      	beq.n	8001a36 <MENU_USB+0x1e>
 8001a2c:	1dfb      	adds	r3, r7, #7
 8001a2e:	781b      	ldrb	r3, [r3, #0]
 8001a30:	2b0a      	cmp	r3, #10
 8001a32:	d000      	beq.n	8001a36 <MENU_USB+0x1e>
 8001a34:	e2be      	b.n	8001fb4 <MENU_USB+0x59c>
			if (line_length > 0) {
 8001a36:	4bcf      	ldr	r3, [pc, #828]	; (8001d74 <MENU_USB+0x35c>)
 8001a38:	681b      	ldr	r3, [r3, #0]
 8001a3a:	2b00      	cmp	r3, #0
 8001a3c:	d100      	bne.n	8001a40 <MENU_USB+0x28>
 8001a3e:	e2b0      	b.n	8001fa2 <MENU_USB+0x58a>
				line_buffer[line_length] = '\0';
 8001a40:	4bcc      	ldr	r3, [pc, #816]	; (8001d74 <MENU_USB+0x35c>)
 8001a42:	681b      	ldr	r3, [r3, #0]
 8001a44:	4acc      	ldr	r2, [pc, #816]	; (8001d78 <MENU_USB+0x360>)
 8001a46:	2100      	movs	r1, #0
 8001a48:	54d1      	strb	r1, [r2, r3]
					if (strncmp(line_buffer, "run",3) == 0) {
 8001a4a:	49cc      	ldr	r1, [pc, #816]	; (8001d7c <MENU_USB+0x364>)
 8001a4c:	4bca      	ldr	r3, [pc, #808]	; (8001d78 <MENU_USB+0x360>)
 8001a4e:	2203      	movs	r2, #3
 8001a50:	0018      	movs	r0, r3
 8001a52:	f004 f9ec 	bl	8005e2e <strncmp>
 8001a56:	1e03      	subs	r3, r0, #0
 8001a58:	d000      	beq.n	8001a5c <MENU_USB+0x44>
 8001a5a:	e17e      	b.n	8001d5a <MENU_USB+0x342>
						if(flag==1 || flag==2){
 8001a5c:	4bc8      	ldr	r3, [pc, #800]	; (8001d80 <MENU_USB+0x368>)
 8001a5e:	681b      	ldr	r3, [r3, #0]
 8001a60:	2b01      	cmp	r3, #1
 8001a62:	d003      	beq.n	8001a6c <MENU_USB+0x54>
 8001a64:	4bc6      	ldr	r3, [pc, #792]	; (8001d80 <MENU_USB+0x368>)
 8001a66:	681b      	ldr	r3, [r3, #0]
 8001a68:	2b02      	cmp	r3, #2
 8001a6a:	d104      	bne.n	8001a76 <MENU_USB+0x5e>
							printf("\n\rA program is working, to enter new parameters use stop first\n\r");
 8001a6c:	4bc5      	ldr	r3, [pc, #788]	; (8001d84 <MENU_USB+0x36c>)
 8001a6e:	0018      	movs	r0, r3
 8001a70:	f004 f93c 	bl	8005cec <iprintf>
 8001a74:	e27f      	b.n	8001f76 <MENU_USB+0x55e>
						}
						else{
							splitString(line_buffer, tokens);
 8001a76:	4ac4      	ldr	r2, [pc, #784]	; (8001d88 <MENU_USB+0x370>)
 8001a78:	4bbf      	ldr	r3, [pc, #764]	; (8001d78 <MENU_USB+0x360>)
 8001a7a:	0011      	movs	r1, r2
 8001a7c:	0018      	movs	r0, r3
 8001a7e:	f000 fb2f 	bl	80020e0 <splitString>
							ptr=strpbrk(tokens[1], "oo");
 8001a82:	4bc1      	ldr	r3, [pc, #772]	; (8001d88 <MENU_USB+0x370>)
 8001a84:	685b      	ldr	r3, [r3, #4]
 8001a86:	4ac1      	ldr	r2, [pc, #772]	; (8001d8c <MENU_USB+0x374>)
 8001a88:	0011      	movs	r1, r2
 8001a8a:	0018      	movs	r0, r3
 8001a8c:	f004 f9e0 	bl	8005e50 <strpbrk>
 8001a90:	0003      	movs	r3, r0
 8001a92:	60fb      	str	r3, [r7, #12]
							if((!(ptr==NULL)) && state!=2){
 8001a94:	68fb      	ldr	r3, [r7, #12]
 8001a96:	2b00      	cmp	r3, #0
 8001a98:	d100      	bne.n	8001a9c <MENU_USB+0x84>
 8001a9a:	e0a1      	b.n	8001be0 <MENU_USB+0x1c8>
 8001a9c:	4bbc      	ldr	r3, [pc, #752]	; (8001d90 <MENU_USB+0x378>)
 8001a9e:	681b      	ldr	r3, [r3, #0]
 8001aa0:	2b02      	cmp	r3, #2
 8001aa2:	d100      	bne.n	8001aa6 <MENU_USB+0x8e>
 8001aa4:	e09c      	b.n	8001be0 <MENU_USB+0x1c8>
								for(int i=2;i<MAX_TOKENS;i++){
 8001aa6:	2302      	movs	r3, #2
 8001aa8:	62bb      	str	r3, [r7, #40]	; 0x28
 8001aaa:	e029      	b.n	8001b00 <MENU_USB+0xe8>
									result=1;
 8001aac:	2301      	movs	r3, #1
 8001aae:	62fb      	str	r3, [r7, #44]	; 0x2c
									for(int j=0;j<strlen(tokens[i]);j++){
 8001ab0:	2300      	movs	r3, #0
 8001ab2:	627b      	str	r3, [r7, #36]	; 0x24
 8001ab4:	e013      	b.n	8001ade <MENU_USB+0xc6>
										if(!isdigit((unsigned char)tokens[i][j])){
 8001ab6:	4bb4      	ldr	r3, [pc, #720]	; (8001d88 <MENU_USB+0x370>)
 8001ab8:	6aba      	ldr	r2, [r7, #40]	; 0x28
 8001aba:	0092      	lsls	r2, r2, #2
 8001abc:	58d2      	ldr	r2, [r2, r3]
 8001abe:	6a7b      	ldr	r3, [r7, #36]	; 0x24
 8001ac0:	18d3      	adds	r3, r2, r3
 8001ac2:	781b      	ldrb	r3, [r3, #0]
 8001ac4:	1c5a      	adds	r2, r3, #1
 8001ac6:	4bb3      	ldr	r3, [pc, #716]	; (8001d94 <MENU_USB+0x37c>)
 8001ac8:	18d3      	adds	r3, r2, r3
 8001aca:	781b      	ldrb	r3, [r3, #0]
 8001acc:	001a      	movs	r2, r3
 8001ace:	2304      	movs	r3, #4
 8001ad0:	4013      	ands	r3, r2
 8001ad2:	d101      	bne.n	8001ad8 <MENU_USB+0xc0>
											result=0;
 8001ad4:	2300      	movs	r3, #0
 8001ad6:	62fb      	str	r3, [r7, #44]	; 0x2c
									for(int j=0;j<strlen(tokens[i]);j++){
 8001ad8:	6a7b      	ldr	r3, [r7, #36]	; 0x24
 8001ada:	3301      	adds	r3, #1
 8001adc:	627b      	str	r3, [r7, #36]	; 0x24
 8001ade:	4baa      	ldr	r3, [pc, #680]	; (8001d88 <MENU_USB+0x370>)
 8001ae0:	6aba      	ldr	r2, [r7, #40]	; 0x28
 8001ae2:	0092      	lsls	r2, r2, #2
 8001ae4:	58d3      	ldr	r3, [r2, r3]
 8001ae6:	0018      	movs	r0, r3
 8001ae8:	f7fe fb18 	bl	800011c <strlen>
 8001aec:	0002      	movs	r2, r0
 8001aee:	6a7b      	ldr	r3, [r7, #36]	; 0x24
 8001af0:	429a      	cmp	r2, r3
 8001af2:	d8e0      	bhi.n	8001ab6 <MENU_USB+0x9e>
										}
									}
									if(result==0){
 8001af4:	6afb      	ldr	r3, [r7, #44]	; 0x2c
 8001af6:	2b00      	cmp	r3, #0
 8001af8:	d006      	beq.n	8001b08 <MENU_USB+0xf0>
								for(int i=2;i<MAX_TOKENS;i++){
 8001afa:	6abb      	ldr	r3, [r7, #40]	; 0x28
 8001afc:	3301      	adds	r3, #1
 8001afe:	62bb      	str	r3, [r7, #40]	; 0x28
 8001b00:	6abb      	ldr	r3, [r7, #40]	; 0x28
 8001b02:	2b03      	cmp	r3, #3
 8001b04:	ddd2      	ble.n	8001aac <MENU_USB+0x94>
 8001b06:	e000      	b.n	8001b0a <MENU_USB+0xf2>
										break;
 8001b08:	46c0      	nop			; (mov r8, r8)
									}
								}
								if(result!=0){
 8001b0a:	6afb      	ldr	r3, [r7, #44]	; 0x2c
 8001b0c:	2b00      	cmp	r3, #0
 8001b0e:	d061      	beq.n	8001bd4 <MENU_USB+0x1bc>
										freq=ASCII_TO_uint8_t(tokens[2]);
 8001b10:	4b9d      	ldr	r3, [pc, #628]	; (8001d88 <MENU_USB+0x370>)
 8001b12:	689b      	ldr	r3, [r3, #8]
 8001b14:	0018      	movs	r0, r3
 8001b16:	f000 faaf 	bl	8002078 <ASCII_TO_uint8_t>
 8001b1a:	0002      	movs	r2, r0
 8001b1c:	4b9e      	ldr	r3, [pc, #632]	; (8001d98 <MENU_USB+0x380>)
 8001b1e:	601a      	str	r2, [r3, #0]
										duty_cycle=ASCII_TO_uint8_t(tokens[3]);
 8001b20:	4b99      	ldr	r3, [pc, #612]	; (8001d88 <MENU_USB+0x370>)
 8001b22:	68db      	ldr	r3, [r3, #12]
 8001b24:	0018      	movs	r0, r3
 8001b26:	f000 faa7 	bl	8002078 <ASCII_TO_uint8_t>
 8001b2a:	0002      	movs	r2, r0
 8001b2c:	4b9b      	ldr	r3, [pc, #620]	; (8001d9c <MENU_USB+0x384>)
 8001b2e:	601a      	str	r2, [r3, #0]
										if(freq==0 || duty_cycle==0){
 8001b30:	4b99      	ldr	r3, [pc, #612]	; (8001d98 <MENU_USB+0x380>)
 8001b32:	681b      	ldr	r3, [r3, #0]
 8001b34:	2b00      	cmp	r3, #0
 8001b36:	d003      	beq.n	8001b40 <MENU_USB+0x128>
 8001b38:	4b98      	ldr	r3, [pc, #608]	; (8001d9c <MENU_USB+0x384>)
 8001b3a:	681b      	ldr	r3, [r3, #0]
 8001b3c:	2b00      	cmp	r3, #0
 8001b3e:	d104      	bne.n	8001b4a <MENU_USB+0x132>
											printf(error_with_run);
 8001b40:	4b97      	ldr	r3, [pc, #604]	; (8001da0 <MENU_USB+0x388>)
 8001b42:	0018      	movs	r0, r3
 8001b44:	f004 f8d2 	bl	8005cec <iprintf>
 8001b48:	e049      	b.n	8001bde <MENU_USB+0x1c6>
										}
										else if(duty_cycle>=100 || duty_cycle==0){
 8001b4a:	4b94      	ldr	r3, [pc, #592]	; (8001d9c <MENU_USB+0x384>)
 8001b4c:	681b      	ldr	r3, [r3, #0]
 8001b4e:	2b63      	cmp	r3, #99	; 0x63
 8001b50:	d803      	bhi.n	8001b5a <MENU_USB+0x142>
 8001b52:	4b92      	ldr	r3, [pc, #584]	; (8001d9c <MENU_USB+0x384>)
 8001b54:	681b      	ldr	r3, [r3, #0]
 8001b56:	2b00      	cmp	r3, #0
 8001b58:	d104      	bne.n	8001b64 <MENU_USB+0x14c>
											printf(error_with_duty_cycle);
 8001b5a:	4b92      	ldr	r3, [pc, #584]	; (8001da4 <MENU_USB+0x38c>)
 8001b5c:	0018      	movs	r0, r3
 8001b5e:	f004 f8c5 	bl	8005cec <iprintf>
 8001b62:	e03c      	b.n	8001bde <MENU_USB+0x1c6>
										}
										else{
											Period=(float)(1000/freq);
 8001b64:	4b8c      	ldr	r3, [pc, #560]	; (8001d98 <MENU_USB+0x380>)
 8001b66:	681b      	ldr	r3, [r3, #0]
 8001b68:	0019      	movs	r1, r3
 8001b6a:	23fa      	movs	r3, #250	; 0xfa
 8001b6c:	0098      	lsls	r0, r3, #2
 8001b6e:	f7fe fae7 	bl	8000140 <__udivsi3>
 8001b72:	0003      	movs	r3, r0
 8001b74:	0018      	movs	r0, r3
 8001b76:	f7ff f8c9 	bl	8000d0c <__aeabi_ui2f>
 8001b7a:	1c02      	adds	r2, r0, #0
 8001b7c:	4b8a      	ldr	r3, [pc, #552]	; (8001da8 <MENU_USB+0x390>)
 8001b7e:	601a      	str	r2, [r3, #0]
											Ton=(float)((Period*duty_cycle)/100);
 8001b80:	4b86      	ldr	r3, [pc, #536]	; (8001d9c <MENU_USB+0x384>)
 8001b82:	681b      	ldr	r3, [r3, #0]
 8001b84:	0018      	movs	r0, r3
 8001b86:	f7ff f8c1 	bl	8000d0c <__aeabi_ui2f>
 8001b8a:	1c02      	adds	r2, r0, #0
 8001b8c:	4b86      	ldr	r3, [pc, #536]	; (8001da8 <MENU_USB+0x390>)
 8001b8e:	681b      	ldr	r3, [r3, #0]
 8001b90:	1c19      	adds	r1, r3, #0
 8001b92:	1c10      	adds	r0, r2, #0
 8001b94:	f7fe fdac 	bl	80006f0 <__aeabi_fmul>
 8001b98:	1c03      	adds	r3, r0, #0
 8001b9a:	4984      	ldr	r1, [pc, #528]	; (8001dac <MENU_USB+0x394>)
 8001b9c:	1c18      	adds	r0, r3, #0
 8001b9e:	f7fe fc8d 	bl	80004bc <__aeabi_fdiv>
 8001ba2:	1c03      	adds	r3, r0, #0
 8001ba4:	1c1a      	adds	r2, r3, #0
 8001ba6:	4b82      	ldr	r3, [pc, #520]	; (8001db0 <MENU_USB+0x398>)
 8001ba8:	601a      	str	r2, [r3, #0]
											Toff=Period-Ton;
 8001baa:	4b7f      	ldr	r3, [pc, #508]	; (8001da8 <MENU_USB+0x390>)
 8001bac:	681a      	ldr	r2, [r3, #0]
 8001bae:	4b80      	ldr	r3, [pc, #512]	; (8001db0 <MENU_USB+0x398>)
 8001bb0:	681b      	ldr	r3, [r3, #0]
 8001bb2:	1c19      	adds	r1, r3, #0
 8001bb4:	1c10      	adds	r0, r2, #0
 8001bb6:	f7fe fee9 	bl	800098c <__aeabi_fsub>
 8001bba:	1c03      	adds	r3, r0, #0
 8001bbc:	1c1a      	adds	r2, r3, #0
 8001bbe:	4b7d      	ldr	r3, [pc, #500]	; (8001db4 <MENU_USB+0x39c>)
 8001bc0:	601a      	str	r2, [r3, #0]
											state=1;
 8001bc2:	4b73      	ldr	r3, [pc, #460]	; (8001d90 <MENU_USB+0x378>)
 8001bc4:	2201      	movs	r2, #1
 8001bc6:	601a      	str	r2, [r3, #0]
											erase_data(Addr_total_pulse);
 8001bc8:	4b7b      	ldr	r3, [pc, #492]	; (8001db8 <MENU_USB+0x3a0>)
 8001bca:	681b      	ldr	r3, [r3, #0]
 8001bcc:	0018      	movs	r0, r3
 8001bce:	f7ff fa53 	bl	8001078 <erase_data>
								if(result!=0){
 8001bd2:	e0b1      	b.n	8001d38 <MENU_USB+0x320>
										}
								}
								else{
									printf(error_with_run);
 8001bd4:	4b72      	ldr	r3, [pc, #456]	; (8001da0 <MENU_USB+0x388>)
 8001bd6:	0018      	movs	r0, r3
 8001bd8:	f004 f888 	bl	8005cec <iprintf>
								if(result!=0){
 8001bdc:	e0ac      	b.n	8001d38 <MENU_USB+0x320>
 8001bde:	e0ab      	b.n	8001d38 <MENU_USB+0x320>
								}
							}
							else if (ptr==NULL && state!=1){
 8001be0:	68fb      	ldr	r3, [r7, #12]
 8001be2:	2b00      	cmp	r3, #0
 8001be4:	d000      	beq.n	8001be8 <MENU_USB+0x1d0>
 8001be6:	e0a7      	b.n	8001d38 <MENU_USB+0x320>
 8001be8:	4b69      	ldr	r3, [pc, #420]	; (8001d90 <MENU_USB+0x378>)
 8001bea:	681b      	ldr	r3, [r3, #0]
 8001bec:	2b01      	cmp	r3, #1
 8001bee:	d100      	bne.n	8001bf2 <MENU_USB+0x1da>
 8001bf0:	e0a2      	b.n	8001d38 <MENU_USB+0x320>
								for(int i=1;i<MAX_TOKENS;i++){
 8001bf2:	2301      	movs	r3, #1
 8001bf4:	623b      	str	r3, [r7, #32]
 8001bf6:	e029      	b.n	8001c4c <MENU_USB+0x234>
									result=1;
 8001bf8:	2301      	movs	r3, #1
 8001bfa:	62fb      	str	r3, [r7, #44]	; 0x2c
									for(int j=0;j<strlen(tokens[i]);j++){
 8001bfc:	2300      	movs	r3, #0
 8001bfe:	61fb      	str	r3, [r7, #28]
 8001c00:	e013      	b.n	8001c2a <MENU_USB+0x212>
										if(!isdigit((unsigned char)tokens[i][j])){
 8001c02:	4b61      	ldr	r3, [pc, #388]	; (8001d88 <MENU_USB+0x370>)
 8001c04:	6a3a      	ldr	r2, [r7, #32]
 8001c06:	0092      	lsls	r2, r2, #2
 8001c08:	58d2      	ldr	r2, [r2, r3]
 8001c0a:	69fb      	ldr	r3, [r7, #28]
 8001c0c:	18d3      	adds	r3, r2, r3
 8001c0e:	781b      	ldrb	r3, [r3, #0]
 8001c10:	1c5a      	adds	r2, r3, #1
 8001c12:	4b60      	ldr	r3, [pc, #384]	; (8001d94 <MENU_USB+0x37c>)
 8001c14:	18d3      	adds	r3, r2, r3
 8001c16:	781b      	ldrb	r3, [r3, #0]
 8001c18:	001a      	movs	r2, r3
 8001c1a:	2304      	movs	r3, #4
 8001c1c:	4013      	ands	r3, r2
 8001c1e:	d101      	bne.n	8001c24 <MENU_USB+0x20c>
											result=0;
 8001c20:	2300      	movs	r3, #0
 8001c22:	62fb      	str	r3, [r7, #44]	; 0x2c
									for(int j=0;j<strlen(tokens[i]);j++){
 8001c24:	69fb      	ldr	r3, [r7, #28]
 8001c26:	3301      	adds	r3, #1
 8001c28:	61fb      	str	r3, [r7, #28]
 8001c2a:	4b57      	ldr	r3, [pc, #348]	; (8001d88 <MENU_USB+0x370>)
 8001c2c:	6a3a      	ldr	r2, [r7, #32]
 8001c2e:	0092      	lsls	r2, r2, #2
 8001c30:	58d3      	ldr	r3, [r2, r3]
 8001c32:	0018      	movs	r0, r3
 8001c34:	f7fe fa72 	bl	800011c <strlen>
 8001c38:	0002      	movs	r2, r0
 8001c3a:	69fb      	ldr	r3, [r7, #28]
 8001c3c:	429a      	cmp	r2, r3
 8001c3e:	d8e0      	bhi.n	8001c02 <MENU_USB+0x1ea>
										}
									}
									if(result==0){
 8001c40:	6afb      	ldr	r3, [r7, #44]	; 0x2c
 8001c42:	2b00      	cmp	r3, #0
 8001c44:	d006      	beq.n	8001c54 <MENU_USB+0x23c>
								for(int i=1;i<MAX_TOKENS;i++){
 8001c46:	6a3b      	ldr	r3, [r7, #32]
 8001c48:	3301      	adds	r3, #1
 8001c4a:	623b      	str	r3, [r7, #32]
 8001c4c:	6a3b      	ldr	r3, [r7, #32]
 8001c4e:	2b03      	cmp	r3, #3
 8001c50:	ddd2      	ble.n	8001bf8 <MENU_USB+0x1e0>
 8001c52:	e000      	b.n	8001c56 <MENU_USB+0x23e>
										break;
 8001c54:	46c0      	nop			; (mov r8, r8)
									}
								}
									if(result!=0){
 8001c56:	6afb      	ldr	r3, [r7, #44]	; 0x2c
 8001c58:	2b00      	cmp	r3, #0
 8001c5a:	d069      	beq.n	8001d30 <MENU_USB+0x318>
										num=ASCII_TO_uint8_t(tokens[1]);
 8001c5c:	4b4a      	ldr	r3, [pc, #296]	; (8001d88 <MENU_USB+0x370>)
 8001c5e:	685b      	ldr	r3, [r3, #4]
 8001c60:	0018      	movs	r0, r3
 8001c62:	f000 fa09 	bl	8002078 <ASCII_TO_uint8_t>
 8001c66:	0002      	movs	r2, r0
 8001c68:	4b54      	ldr	r3, [pc, #336]	; (8001dbc <MENU_USB+0x3a4>)
 8001c6a:	601a      	str	r2, [r3, #0]
										freq=ASCII_TO_uint8_t(tokens[2]);
 8001c6c:	4b46      	ldr	r3, [pc, #280]	; (8001d88 <MENU_USB+0x370>)
 8001c6e:	689b      	ldr	r3, [r3, #8]
 8001c70:	0018      	movs	r0, r3
 8001c72:	f000 fa01 	bl	8002078 <ASCII_TO_uint8_t>
 8001c76:	0002      	movs	r2, r0
 8001c78:	4b47      	ldr	r3, [pc, #284]	; (8001d98 <MENU_USB+0x380>)
 8001c7a:	601a      	str	r2, [r3, #0]
										duty_cycle=ASCII_TO_uint8_t(tokens[3]);
 8001c7c:	4b42      	ldr	r3, [pc, #264]	; (8001d88 <MENU_USB+0x370>)
 8001c7e:	68db      	ldr	r3, [r3, #12]
 8001c80:	0018      	movs	r0, r3
 8001c82:	f000 f9f9 	bl	8002078 <ASCII_TO_uint8_t>
 8001c86:	0002      	movs	r2, r0
 8001c88:	4b44      	ldr	r3, [pc, #272]	; (8001d9c <MENU_USB+0x384>)
 8001c8a:	601a      	str	r2, [r3, #0]
										if(num==0 || freq==0 || duty_cycle==0 ){
 8001c8c:	4b4b      	ldr	r3, [pc, #300]	; (8001dbc <MENU_USB+0x3a4>)
 8001c8e:	681b      	ldr	r3, [r3, #0]
 8001c90:	2b00      	cmp	r3, #0
 8001c92:	d007      	beq.n	8001ca4 <MENU_USB+0x28c>
 8001c94:	4b40      	ldr	r3, [pc, #256]	; (8001d98 <MENU_USB+0x380>)
 8001c96:	681b      	ldr	r3, [r3, #0]
 8001c98:	2b00      	cmp	r3, #0
 8001c9a:	d003      	beq.n	8001ca4 <MENU_USB+0x28c>
 8001c9c:	4b3f      	ldr	r3, [pc, #252]	; (8001d9c <MENU_USB+0x384>)
 8001c9e:	681b      	ldr	r3, [r3, #0]
 8001ca0:	2b00      	cmp	r3, #0
 8001ca2:	d104      	bne.n	8001cae <MENU_USB+0x296>
											printf(error_with_run);
 8001ca4:	4b3e      	ldr	r3, [pc, #248]	; (8001da0 <MENU_USB+0x388>)
 8001ca6:	0018      	movs	r0, r3
 8001ca8:	f004 f820 	bl	8005cec <iprintf>
 8001cac:	e044      	b.n	8001d38 <MENU_USB+0x320>
										}
										else if(duty_cycle>=100){
 8001cae:	4b3b      	ldr	r3, [pc, #236]	; (8001d9c <MENU_USB+0x384>)
 8001cb0:	681b      	ldr	r3, [r3, #0]
 8001cb2:	2b63      	cmp	r3, #99	; 0x63
 8001cb4:	d904      	bls.n	8001cc0 <MENU_USB+0x2a8>
											printf(error_with_duty_cycle);
 8001cb6:	4b3b      	ldr	r3, [pc, #236]	; (8001da4 <MENU_USB+0x38c>)
 8001cb8:	0018      	movs	r0, r3
 8001cba:	f004 f817 	bl	8005cec <iprintf>
 8001cbe:	e03b      	b.n	8001d38 <MENU_USB+0x320>
										}
										else{
											Period=(float)(1000/freq);
 8001cc0:	4b35      	ldr	r3, [pc, #212]	; (8001d98 <MENU_USB+0x380>)
 8001cc2:	681b      	ldr	r3, [r3, #0]
 8001cc4:	0019      	movs	r1, r3
 8001cc6:	23fa      	movs	r3, #250	; 0xfa
 8001cc8:	0098      	lsls	r0, r3, #2
 8001cca:	f7fe fa39 	bl	8000140 <__udivsi3>
 8001cce:	0003      	movs	r3, r0
 8001cd0:	0018      	movs	r0, r3
 8001cd2:	f7ff f81b 	bl	8000d0c <__aeabi_ui2f>
 8001cd6:	1c02      	adds	r2, r0, #0
 8001cd8:	4b33      	ldr	r3, [pc, #204]	; (8001da8 <MENU_USB+0x390>)
 8001cda:	601a      	str	r2, [r3, #0]
											Ton=(float)((Period*duty_cycle)/100);
 8001cdc:	4b2f      	ldr	r3, [pc, #188]	; (8001d9c <MENU_USB+0x384>)
 8001cde:	681b      	ldr	r3, [r3, #0]
 8001ce0:	0018      	movs	r0, r3
 8001ce2:	f7ff f813 	bl	8000d0c <__aeabi_ui2f>
 8001ce6:	1c02      	adds	r2, r0, #0
 8001ce8:	4b2f      	ldr	r3, [pc, #188]	; (8001da8 <MENU_USB+0x390>)
 8001cea:	681b      	ldr	r3, [r3, #0]
 8001cec:	1c19      	adds	r1, r3, #0
 8001cee:	1c10      	adds	r0, r2, #0
 8001cf0:	f7fe fcfe 	bl	80006f0 <__aeabi_fmul>
 8001cf4:	1c03      	adds	r3, r0, #0
 8001cf6:	492d      	ldr	r1, [pc, #180]	; (8001dac <MENU_USB+0x394>)
 8001cf8:	1c18      	adds	r0, r3, #0
 8001cfa:	f7fe fbdf 	bl	80004bc <__aeabi_fdiv>
 8001cfe:	1c03      	adds	r3, r0, #0
 8001d00:	1c1a      	adds	r2, r3, #0
 8001d02:	4b2b      	ldr	r3, [pc, #172]	; (8001db0 <MENU_USB+0x398>)
 8001d04:	601a      	str	r2, [r3, #0]
											Toff=Period-Ton;
 8001d06:	4b28      	ldr	r3, [pc, #160]	; (8001da8 <MENU_USB+0x390>)
 8001d08:	681a      	ldr	r2, [r3, #0]
 8001d0a:	4b29      	ldr	r3, [pc, #164]	; (8001db0 <MENU_USB+0x398>)
 8001d0c:	681b      	ldr	r3, [r3, #0]
 8001d0e:	1c19      	adds	r1, r3, #0
 8001d10:	1c10      	adds	r0, r2, #0
 8001d12:	f7fe fe3b 	bl	800098c <__aeabi_fsub>
 8001d16:	1c03      	adds	r3, r0, #0
 8001d18:	1c1a      	adds	r2, r3, #0
 8001d1a:	4b26      	ldr	r3, [pc, #152]	; (8001db4 <MENU_USB+0x39c>)
 8001d1c:	601a      	str	r2, [r3, #0]
											erase_data(Addr_total_pulse);
 8001d1e:	4b26      	ldr	r3, [pc, #152]	; (8001db8 <MENU_USB+0x3a0>)
 8001d20:	681b      	ldr	r3, [r3, #0]
 8001d22:	0018      	movs	r0, r3
 8001d24:	f7ff f9a8 	bl	8001078 <erase_data>
											state=2;
 8001d28:	4b19      	ldr	r3, [pc, #100]	; (8001d90 <MENU_USB+0x378>)
 8001d2a:	2202      	movs	r2, #2
 8001d2c:	601a      	str	r2, [r3, #0]
 8001d2e:	e003      	b.n	8001d38 <MENU_USB+0x320>
										}
									}
									else{
										printf(error_with_run);
 8001d30:	4b1b      	ldr	r3, [pc, #108]	; (8001da0 <MENU_USB+0x388>)
 8001d32:	0018      	movs	r0, r3
 8001d34:	f003 ffda 	bl	8005cec <iprintf>
									}
							}
							for (int i = 0; i < sizeof(tokens) / sizeof(tokens[0]); i++) {
 8001d38:	2300      	movs	r3, #0
 8001d3a:	61bb      	str	r3, [r7, #24]
 8001d3c:	e009      	b.n	8001d52 <MENU_USB+0x33a>
								 free(tokens[i]);
 8001d3e:	4b12      	ldr	r3, [pc, #72]	; (8001d88 <MENU_USB+0x370>)
 8001d40:	69ba      	ldr	r2, [r7, #24]
 8001d42:	0092      	lsls	r2, r2, #2
 8001d44:	58d3      	ldr	r3, [r2, r3]
 8001d46:	0018      	movs	r0, r3
 8001d48:	f003 fe60 	bl	8005a0c <free>
							for (int i = 0; i < sizeof(tokens) / sizeof(tokens[0]); i++) {
 8001d4c:	69bb      	ldr	r3, [r7, #24]
 8001d4e:	3301      	adds	r3, #1
 8001d50:	61bb      	str	r3, [r7, #24]
 8001d52:	69bb      	ldr	r3, [r7, #24]
 8001d54:	2b03      	cmp	r3, #3
 8001d56:	d9f2      	bls.n	8001d3e <MENU_USB+0x326>
 8001d58:	e10d      	b.n	8001f76 <MENU_USB+0x55e>
							}
						}
				}
				else if (strcmp(line_buffer, "stop") == 0){
 8001d5a:	4a19      	ldr	r2, [pc, #100]	; (8001dc0 <MENU_USB+0x3a8>)
 8001d5c:	4b06      	ldr	r3, [pc, #24]	; (8001d78 <MENU_USB+0x360>)
 8001d5e:	0011      	movs	r1, r2
 8001d60:	0018      	movs	r0, r3
 8001d62:	f7fe f9d1 	bl	8000108 <strcmp>
 8001d66:	1e03      	subs	r3, r0, #0
 8001d68:	d12c      	bne.n	8001dc4 <MENU_USB+0x3ac>
					state=3;
 8001d6a:	4b09      	ldr	r3, [pc, #36]	; (8001d90 <MENU_USB+0x378>)
 8001d6c:	2203      	movs	r2, #3
 8001d6e:	601a      	str	r2, [r3, #0]
 8001d70:	e101      	b.n	8001f76 <MENU_USB+0x55e>
 8001d72:	46c0      	nop			; (mov r8, r8)
 8001d74:	200002ec 	.word	0x200002ec
 8001d78:	20000260 	.word	0x20000260
 8001d7c:	08006fa4 	.word	0x08006fa4
 8001d80:	200002f0 	.word	0x200002f0
 8001d84:	08006fa8 	.word	0x08006fa8
 8001d88:	200002dc 	.word	0x200002dc
 8001d8c:	08006fec 	.word	0x08006fec
 8001d90:	200002f4 	.word	0x200002f4
 8001d94:	0800712c 	.word	0x0800712c
 8001d98:	20000230 	.word	0x20000230
 8001d9c:	20000234 	.word	0x20000234
 8001da0:	200000cc 	.word	0x200000cc
 8001da4:	2000016c 	.word	0x2000016c
 8001da8:	2000025c 	.word	0x2000025c
 8001dac:	42c80000 	.word	0x42c80000
 8001db0:	20000254 	.word	0x20000254
 8001db4:	20000258 	.word	0x20000258
 8001db8:	20000004 	.word	0x20000004
 8001dbc:	2000022c 	.word	0x2000022c
 8001dc0:	08006ff0 	.word	0x08006ff0
				}
				else if (strcmp(line_buffer, "read") == 0){
 8001dc4:	4a93      	ldr	r2, [pc, #588]	; (8002014 <MENU_USB+0x5fc>)
 8001dc6:	4b94      	ldr	r3, [pc, #592]	; (8002018 <MENU_USB+0x600>)
 8001dc8:	0011      	movs	r1, r2
 8001dca:	0018      	movs	r0, r3
 8001dcc:	f7fe f99c 	bl	8000108 <strcmp>
 8001dd0:	1e03      	subs	r3, r0, #0
 8001dd2:	d114      	bne.n	8001dfe <MENU_USB+0x3e6>
					if(read_data(Addr_num+PVD)==1){
 8001dd4:	4b91      	ldr	r3, [pc, #580]	; (800201c <MENU_USB+0x604>)
 8001dd6:	681b      	ldr	r3, [r3, #0]
 8001dd8:	3308      	adds	r3, #8
 8001dda:	0018      	movs	r0, r3
 8001ddc:	f7ff f940 	bl	8001060 <read_data>
 8001de0:	0003      	movs	r3, r0
 8001de2:	2b01      	cmp	r3, #1
 8001de4:	d106      	bne.n	8001df4 <MENU_USB+0x3dc>
						pvd=0;
 8001de6:	4b8e      	ldr	r3, [pc, #568]	; (8002020 <MENU_USB+0x608>)
 8001de8:	2200      	movs	r2, #0
 8001dea:	601a      	str	r2, [r3, #0]
						state=4;
 8001dec:	4b8d      	ldr	r3, [pc, #564]	; (8002024 <MENU_USB+0x60c>)
 8001dee:	2204      	movs	r2, #4
 8001df0:	601a      	str	r2, [r3, #0]
 8001df2:	e0c0      	b.n	8001f76 <MENU_USB+0x55e>
					}
					else{
						printf("\n\rFailure didn't occur\n\r");
 8001df4:	4b8c      	ldr	r3, [pc, #560]	; (8002028 <MENU_USB+0x610>)
 8001df6:	0018      	movs	r0, r3
 8001df8:	f003 ff78 	bl	8005cec <iprintf>
 8001dfc:	e0bb      	b.n	8001f76 <MENU_USB+0x55e>
					}
				}
				else if (strcmp(line_buffer, "cont") == 0){
 8001dfe:	4a8b      	ldr	r2, [pc, #556]	; (800202c <MENU_USB+0x614>)
 8001e00:	4b85      	ldr	r3, [pc, #532]	; (8002018 <MENU_USB+0x600>)
 8001e02:	0011      	movs	r1, r2
 8001e04:	0018      	movs	r0, r3
 8001e06:	f7fe f97f 	bl	8000108 <strcmp>
 8001e0a:	1e03      	subs	r3, r0, #0
 8001e0c:	d000      	beq.n	8001e10 <MENU_USB+0x3f8>
 8001e0e:	e0aa      	b.n	8001f66 <MENU_USB+0x54e>
					int i=0;
 8001e10:	2300      	movs	r3, #0
 8001e12:	613b      	str	r3, [r7, #16]
					i=read_data(Addr_num+IF_INFINITY);
 8001e14:	4b81      	ldr	r3, [pc, #516]	; (800201c <MENU_USB+0x604>)
 8001e16:	681b      	ldr	r3, [r3, #0]
 8001e18:	3304      	adds	r3, #4
 8001e1a:	0018      	movs	r0, r3
 8001e1c:	f7ff f920 	bl	8001060 <read_data>
 8001e20:	0003      	movs	r3, r0
 8001e22:	613b      	str	r3, [r7, #16]
					if(flag==1 || i==0){
 8001e24:	4b82      	ldr	r3, [pc, #520]	; (8002030 <MENU_USB+0x618>)
 8001e26:	681b      	ldr	r3, [r3, #0]
 8001e28:	2b01      	cmp	r3, #1
 8001e2a:	d002      	beq.n	8001e32 <MENU_USB+0x41a>
 8001e2c:	693b      	ldr	r3, [r7, #16]
 8001e2e:	2b00      	cmp	r3, #0
 8001e30:	d14b      	bne.n	8001eca <MENU_USB+0x4b2>
                    	num=read_data(Addr_num);
 8001e32:	4b7a      	ldr	r3, [pc, #488]	; (800201c <MENU_USB+0x604>)
 8001e34:	681b      	ldr	r3, [r3, #0]
 8001e36:	0018      	movs	r0, r3
 8001e38:	f7ff f912 	bl	8001060 <read_data>
 8001e3c:	0002      	movs	r2, r0
 8001e3e:	4b7d      	ldr	r3, [pc, #500]	; (8002034 <MENU_USB+0x61c>)
 8001e40:	601a      	str	r2, [r3, #0]
                    	if(num!=0){
 8001e42:	4b7c      	ldr	r3, [pc, #496]	; (8002034 <MENU_USB+0x61c>)
 8001e44:	681b      	ldr	r3, [r3, #0]
 8001e46:	2b00      	cmp	r3, #0
 8001e48:	d038      	beq.n	8001ebc <MENU_USB+0x4a4>
							total_pulses=read_data(Addr_total_pulse);
 8001e4a:	4b7b      	ldr	r3, [pc, #492]	; (8002038 <MENU_USB+0x620>)
 8001e4c:	681b      	ldr	r3, [r3, #0]
 8001e4e:	0018      	movs	r0, r3
 8001e50:	f7ff f906 	bl	8001060 <read_data>
 8001e54:	0002      	movs	r2, r0
 8001e56:	4b79      	ldr	r3, [pc, #484]	; (800203c <MENU_USB+0x624>)
 8001e58:	601a      	str	r2, [r3, #0]
							Ton=read_data(Addr_Ton);
 8001e5a:	4b79      	ldr	r3, [pc, #484]	; (8002040 <MENU_USB+0x628>)
 8001e5c:	681b      	ldr	r3, [r3, #0]
 8001e5e:	0018      	movs	r0, r3
 8001e60:	f7ff f8fe 	bl	8001060 <read_data>
 8001e64:	0003      	movs	r3, r0
 8001e66:	0018      	movs	r0, r3
 8001e68:	f7fe ff50 	bl	8000d0c <__aeabi_ui2f>
 8001e6c:	1c02      	adds	r2, r0, #0
 8001e6e:	4b75      	ldr	r3, [pc, #468]	; (8002044 <MENU_USB+0x62c>)
 8001e70:	601a      	str	r2, [r3, #0]
							Toff=read_data(Addr_Toff);
 8001e72:	4b75      	ldr	r3, [pc, #468]	; (8002048 <MENU_USB+0x630>)
 8001e74:	681b      	ldr	r3, [r3, #0]
 8001e76:	0018      	movs	r0, r3
 8001e78:	f7ff f8f2 	bl	8001060 <read_data>
 8001e7c:	0003      	movs	r3, r0
 8001e7e:	0018      	movs	r0, r3
 8001e80:	f7fe ff44 	bl	8000d0c <__aeabi_ui2f>
 8001e84:	1c02      	adds	r2, r0, #0
 8001e86:	4b71      	ldr	r3, [pc, #452]	; (800204c <MENU_USB+0x634>)
 8001e88:	601a      	str	r2, [r3, #0]
							duty_cycle=read_data(Addr_duty_cycle);
 8001e8a:	4b71      	ldr	r3, [pc, #452]	; (8002050 <MENU_USB+0x638>)
 8001e8c:	681b      	ldr	r3, [r3, #0]
 8001e8e:	0018      	movs	r0, r3
 8001e90:	f7ff f8e6 	bl	8001060 <read_data>
 8001e94:	0002      	movs	r2, r0
 8001e96:	4b6f      	ldr	r3, [pc, #444]	; (8002054 <MENU_USB+0x63c>)
 8001e98:	601a      	str	r2, [r3, #0]
							freq=read_data(Addr_freq);
 8001e9a:	4b6f      	ldr	r3, [pc, #444]	; (8002058 <MENU_USB+0x640>)
 8001e9c:	681b      	ldr	r3, [r3, #0]
 8001e9e:	0018      	movs	r0, r3
 8001ea0:	f7ff f8de 	bl	8001060 <read_data>
 8001ea4:	0002      	movs	r2, r0
 8001ea6:	4b6d      	ldr	r3, [pc, #436]	; (800205c <MENU_USB+0x644>)
 8001ea8:	601a      	str	r2, [r3, #0]
							erase_data(Addr_total_pulse);
 8001eaa:	4b63      	ldr	r3, [pc, #396]	; (8002038 <MENU_USB+0x620>)
 8001eac:	681b      	ldr	r3, [r3, #0]
 8001eae:	0018      	movs	r0, r3
 8001eb0:	f7ff f8e2 	bl	8001078 <erase_data>
							state=2;
 8001eb4:	4b5b      	ldr	r3, [pc, #364]	; (8002024 <MENU_USB+0x60c>)
 8001eb6:	2202      	movs	r2, #2
 8001eb8:	601a      	str	r2, [r3, #0]
 8001eba:	e002      	b.n	8001ec2 <MENU_USB+0x4aa>
                    	}
                    	else{
                    		state=0;
 8001ebc:	4b59      	ldr	r3, [pc, #356]	; (8002024 <MENU_USB+0x60c>)
 8001ebe:	2200      	movs	r2, #0
 8001ec0:	601a      	str	r2, [r3, #0]
                    	}
                        flag=0;
 8001ec2:	4b5b      	ldr	r3, [pc, #364]	; (8002030 <MENU_USB+0x618>)
 8001ec4:	2200      	movs	r2, #0
 8001ec6:	601a      	str	r2, [r3, #0]
 8001ec8:	e055      	b.n	8001f76 <MENU_USB+0x55e>
					}
					else if(flag==2 || i==1){
 8001eca:	4b59      	ldr	r3, [pc, #356]	; (8002030 <MENU_USB+0x618>)
 8001ecc:	681b      	ldr	r3, [r3, #0]
 8001ece:	2b02      	cmp	r3, #2
 8001ed0:	d002      	beq.n	8001ed8 <MENU_USB+0x4c0>
 8001ed2:	693b      	ldr	r3, [r7, #16]
 8001ed4:	2b01      	cmp	r3, #1
 8001ed6:	d14e      	bne.n	8001f76 <MENU_USB+0x55e>
						if(read_data(Addr_Ton)>0){
 8001ed8:	4b59      	ldr	r3, [pc, #356]	; (8002040 <MENU_USB+0x628>)
 8001eda:	681b      	ldr	r3, [r3, #0]
 8001edc:	0018      	movs	r0, r3
 8001ede:	f7ff f8bf 	bl	8001060 <read_data>
 8001ee2:	1e03      	subs	r3, r0, #0
 8001ee4:	d038      	beq.n	8001f58 <MENU_USB+0x540>
							total_pulses=read_data(Addr_total_pulse);
 8001ee6:	4b54      	ldr	r3, [pc, #336]	; (8002038 <MENU_USB+0x620>)
 8001ee8:	681b      	ldr	r3, [r3, #0]
 8001eea:	0018      	movs	r0, r3
 8001eec:	f7ff f8b8 	bl	8001060 <read_data>
 8001ef0:	0002      	movs	r2, r0
 8001ef2:	4b52      	ldr	r3, [pc, #328]	; (800203c <MENU_USB+0x624>)
 8001ef4:	601a      	str	r2, [r3, #0]
							Ton=read_data(Addr_Ton);
 8001ef6:	4b52      	ldr	r3, [pc, #328]	; (8002040 <MENU_USB+0x628>)
 8001ef8:	681b      	ldr	r3, [r3, #0]
 8001efa:	0018      	movs	r0, r3
 8001efc:	f7ff f8b0 	bl	8001060 <read_data>
 8001f00:	0003      	movs	r3, r0
 8001f02:	0018      	movs	r0, r3
 8001f04:	f7fe ff02 	bl	8000d0c <__aeabi_ui2f>
 8001f08:	1c02      	adds	r2, r0, #0
 8001f0a:	4b4e      	ldr	r3, [pc, #312]	; (8002044 <MENU_USB+0x62c>)
 8001f0c:	601a      	str	r2, [r3, #0]
							Toff=read_data(Addr_Toff);
 8001f0e:	4b4e      	ldr	r3, [pc, #312]	; (8002048 <MENU_USB+0x630>)
 8001f10:	681b      	ldr	r3, [r3, #0]
 8001f12:	0018      	movs	r0, r3
 8001f14:	f7ff f8a4 	bl	8001060 <read_data>
 8001f18:	0003      	movs	r3, r0
 8001f1a:	0018      	movs	r0, r3
 8001f1c:	f7fe fef6 	bl	8000d0c <__aeabi_ui2f>
 8001f20:	1c02      	adds	r2, r0, #0
 8001f22:	4b4a      	ldr	r3, [pc, #296]	; (800204c <MENU_USB+0x634>)
 8001f24:	601a      	str	r2, [r3, #0]
							duty_cycle=read_data(Addr_duty_cycle);
 8001f26:	4b4a      	ldr	r3, [pc, #296]	; (8002050 <MENU_USB+0x638>)
 8001f28:	681b      	ldr	r3, [r3, #0]
 8001f2a:	0018      	movs	r0, r3
 8001f2c:	f7ff f898 	bl	8001060 <read_data>
 8001f30:	0002      	movs	r2, r0
 8001f32:	4b48      	ldr	r3, [pc, #288]	; (8002054 <MENU_USB+0x63c>)
 8001f34:	601a      	str	r2, [r3, #0]
							freq=read_data(Addr_freq);
 8001f36:	4b48      	ldr	r3, [pc, #288]	; (8002058 <MENU_USB+0x640>)
 8001f38:	681b      	ldr	r3, [r3, #0]
 8001f3a:	0018      	movs	r0, r3
 8001f3c:	f7ff f890 	bl	8001060 <read_data>
 8001f40:	0002      	movs	r2, r0
 8001f42:	4b46      	ldr	r3, [pc, #280]	; (800205c <MENU_USB+0x644>)
 8001f44:	601a      	str	r2, [r3, #0]
							erase_data(Addr_total_pulse);
 8001f46:	4b3c      	ldr	r3, [pc, #240]	; (8002038 <MENU_USB+0x620>)
 8001f48:	681b      	ldr	r3, [r3, #0]
 8001f4a:	0018      	movs	r0, r3
 8001f4c:	f7ff f894 	bl	8001078 <erase_data>
							state=1;
 8001f50:	4b34      	ldr	r3, [pc, #208]	; (8002024 <MENU_USB+0x60c>)
 8001f52:	2201      	movs	r2, #1
 8001f54:	601a      	str	r2, [r3, #0]
 8001f56:	e002      	b.n	8001f5e <MENU_USB+0x546>
						}
						else{
							state=0;
 8001f58:	4b32      	ldr	r3, [pc, #200]	; (8002024 <MENU_USB+0x60c>)
 8001f5a:	2200      	movs	r2, #0
 8001f5c:	601a      	str	r2, [r3, #0]
						}
                      flag=0;
 8001f5e:	4b34      	ldr	r3, [pc, #208]	; (8002030 <MENU_USB+0x618>)
 8001f60:	2200      	movs	r2, #0
 8001f62:	601a      	str	r2, [r3, #0]
 8001f64:	e007      	b.n	8001f76 <MENU_USB+0x55e>
					}
				}
				else {
					printf(error);
 8001f66:	4b3e      	ldr	r3, [pc, #248]	; (8002060 <MENU_USB+0x648>)
 8001f68:	0018      	movs	r0, r3
 8001f6a:	f003 febf 	bl	8005cec <iprintf>
					printf(menu);
 8001f6e:	4b3d      	ldr	r3, [pc, #244]	; (8002064 <MENU_USB+0x64c>)
 8001f70:	0018      	movs	r0, r3
 8001f72:	f003 febb 	bl	8005cec <iprintf>
				}
				printf("\n\r");
 8001f76:	4b3c      	ldr	r3, [pc, #240]	; (8002068 <MENU_USB+0x650>)
 8001f78:	0018      	movs	r0, r3
 8001f7a:	f003 feb7 	bl	8005cec <iprintf>
				for(int i;i<line_length;i++){
 8001f7e:	e007      	b.n	8001f90 <MENU_USB+0x578>
					line_buffer[i]='\0';
 8001f80:	4a25      	ldr	r2, [pc, #148]	; (8002018 <MENU_USB+0x600>)
 8001f82:	697b      	ldr	r3, [r7, #20]
 8001f84:	18d3      	adds	r3, r2, r3
 8001f86:	2200      	movs	r2, #0
 8001f88:	701a      	strb	r2, [r3, #0]
				for(int i;i<line_length;i++){
 8001f8a:	697b      	ldr	r3, [r7, #20]
 8001f8c:	3301      	adds	r3, #1
 8001f8e:	617b      	str	r3, [r7, #20]
 8001f90:	697a      	ldr	r2, [r7, #20]
 8001f92:	4b36      	ldr	r3, [pc, #216]	; (800206c <MENU_USB+0x654>)
 8001f94:	681b      	ldr	r3, [r3, #0]
 8001f96:	429a      	cmp	r2, r3
 8001f98:	d3f2      	bcc.n	8001f80 <MENU_USB+0x568>
					}
				line_length = 0;
 8001f9a:	4b34      	ldr	r3, [pc, #208]	; (800206c <MENU_USB+0x654>)
 8001f9c:	2200      	movs	r2, #0
 8001f9e:	601a      	str	r2, [r3, #0]
			if (line_length > 0) {
 8001fa0:	e033      	b.n	800200a <MENU_USB+0x5f2>
			}
			else{
				printf(error);
 8001fa2:	4b2f      	ldr	r3, [pc, #188]	; (8002060 <MENU_USB+0x648>)
 8001fa4:	0018      	movs	r0, r3
 8001fa6:	f003 fea1 	bl	8005cec <iprintf>
				printf(menu);
 8001faa:	4b2e      	ldr	r3, [pc, #184]	; (8002064 <MENU_USB+0x64c>)
 8001fac:	0018      	movs	r0, r3
 8001fae:	f003 fe9d 	bl	8005cec <iprintf>
			if (line_length > 0) {
 8001fb2:	e02a      	b.n	800200a <MENU_USB+0x5f2>
			}
		}
 		else if (value == '\177') {
 8001fb4:	1dfb      	adds	r3, r7, #7
 8001fb6:	781b      	ldrb	r3, [r3, #0]
 8001fb8:	2b7f      	cmp	r3, #127	; 0x7f
 8001fba:	d10d      	bne.n	8001fd8 <MENU_USB+0x5c0>
 		            if (line_length > 0) {
 8001fbc:	4b2b      	ldr	r3, [pc, #172]	; (800206c <MENU_USB+0x654>)
 8001fbe:	681b      	ldr	r3, [r3, #0]
 8001fc0:	2b00      	cmp	r3, #0
 8001fc2:	d022      	beq.n	800200a <MENU_USB+0x5f2>
 		            	line_length--;
 8001fc4:	4b29      	ldr	r3, [pc, #164]	; (800206c <MENU_USB+0x654>)
 8001fc6:	681b      	ldr	r3, [r3, #0]
 8001fc8:	1e5a      	subs	r2, r3, #1
 8001fca:	4b28      	ldr	r3, [pc, #160]	; (800206c <MENU_USB+0x654>)
 8001fcc:	601a      	str	r2, [r3, #0]
 		            	printf("\177 \177");
 8001fce:	4b28      	ldr	r3, [pc, #160]	; (8002070 <MENU_USB+0x658>)
 8001fd0:	0018      	movs	r0, r3
 8001fd2:	f003 fe8b 	bl	8005cec <iprintf>
				printf(error);
				printf(error_with_lenght);
			}
			line_buffer[line_length++] = value;
		}
}
 8001fd6:	e018      	b.n	800200a <MENU_USB+0x5f2>
			if (line_length >= LINE_MAX_LENGTH) {
 8001fd8:	4b24      	ldr	r3, [pc, #144]	; (800206c <MENU_USB+0x654>)
 8001fda:	681b      	ldr	r3, [r3, #0]
 8001fdc:	2b77      	cmp	r3, #119	; 0x77
 8001fde:	d90a      	bls.n	8001ff6 <MENU_USB+0x5de>
				line_length = 0;
 8001fe0:	4b22      	ldr	r3, [pc, #136]	; (800206c <MENU_USB+0x654>)
 8001fe2:	2200      	movs	r2, #0
 8001fe4:	601a      	str	r2, [r3, #0]
				printf(error);
 8001fe6:	4b1e      	ldr	r3, [pc, #120]	; (8002060 <MENU_USB+0x648>)
 8001fe8:	0018      	movs	r0, r3
 8001fea:	f003 fe7f 	bl	8005cec <iprintf>
				printf(error_with_lenght);
 8001fee:	4b21      	ldr	r3, [pc, #132]	; (8002074 <MENU_USB+0x65c>)
 8001ff0:	0018      	movs	r0, r3
 8001ff2:	f003 fe7b 	bl	8005cec <iprintf>
			line_buffer[line_length++] = value;
 8001ff6:	4b1d      	ldr	r3, [pc, #116]	; (800206c <MENU_USB+0x654>)
 8001ff8:	681b      	ldr	r3, [r3, #0]
 8001ffa:	1c59      	adds	r1, r3, #1
 8001ffc:	4a1b      	ldr	r2, [pc, #108]	; (800206c <MENU_USB+0x654>)
 8001ffe:	6011      	str	r1, [r2, #0]
 8002000:	4a05      	ldr	r2, [pc, #20]	; (8002018 <MENU_USB+0x600>)
 8002002:	1df9      	adds	r1, r7, #7
 8002004:	7809      	ldrb	r1, [r1, #0]
 8002006:	54d1      	strb	r1, [r2, r3]
}
 8002008:	e7ff      	b.n	800200a <MENU_USB+0x5f2>
 800200a:	46c0      	nop			; (mov r8, r8)
 800200c:	46bd      	mov	sp, r7
 800200e:	b00c      	add	sp, #48	; 0x30
 8002010:	bd80      	pop	{r7, pc}
 8002012:	46c0      	nop			; (mov r8, r8)
 8002014:	08006ff8 	.word	0x08006ff8
 8002018:	20000260 	.word	0x20000260
 800201c:	20000000 	.word	0x20000000
 8002020:	20000018 	.word	0x20000018
 8002024:	200002f4 	.word	0x200002f4
 8002028:	08007000 	.word	0x08007000
 800202c:	0800701c 	.word	0x0800701c
 8002030:	200002f0 	.word	0x200002f0
 8002034:	2000022c 	.word	0x2000022c
 8002038:	20000004 	.word	0x20000004
 800203c:	20000250 	.word	0x20000250
 8002040:	20000008 	.word	0x20000008
 8002044:	20000254 	.word	0x20000254
 8002048:	2000000c 	.word	0x2000000c
 800204c:	20000258 	.word	0x20000258
 8002050:	20000014 	.word	0x20000014
 8002054:	20000234 	.word	0x20000234
 8002058:	20000010 	.word	0x20000010
 800205c:	20000230 	.word	0x20000230
 8002060:	200000bc 	.word	0x200000bc
 8002064:	2000001c 	.word	0x2000001c
 8002068:	08006ee4 	.word	0x08006ee4
 800206c:	200002ec 	.word	0x200002ec
 8002070:	08007024 	.word	0x08007024
 8002074:	20000190 	.word	0x20000190

08002078 <ASCII_TO_uint8_t>:

uint32_t ASCII_TO_uint8_t(const char *table){
 8002078:	b580      	push	{r7, lr}
 800207a:	b086      	sub	sp, #24
 800207c:	af00      	add	r7, sp, #0
 800207e:	6078      	str	r0, [r7, #4]
	uint32_t result = 0;
 8002080:	2300      	movs	r3, #0
 8002082:	617b      	str	r3, [r7, #20]
	uint32_t numeric_value=0;
 8002084:	2300      	movs	r3, #0
 8002086:	60fb      	str	r3, [r7, #12]
    int size = SIZE_OF_VARIABLE;
 8002088:	230a      	movs	r3, #10
 800208a:	60bb      	str	r3, [r7, #8]
    for (int i = 0; i < size; i++) {
 800208c:	2300      	movs	r3, #0
 800208e:	613b      	str	r3, [r7, #16]
 8002090:	e01d      	b.n	80020ce <ASCII_TO_uint8_t+0x56>
    	if(table[i]==' ' || table[i]=='\0'){
 8002092:	693b      	ldr	r3, [r7, #16]
 8002094:	687a      	ldr	r2, [r7, #4]
 8002096:	18d3      	adds	r3, r2, r3
 8002098:	781b      	ldrb	r3, [r3, #0]
 800209a:	2b20      	cmp	r3, #32
 800209c:	d01b      	beq.n	80020d6 <ASCII_TO_uint8_t+0x5e>
 800209e:	693b      	ldr	r3, [r7, #16]
 80020a0:	687a      	ldr	r2, [r7, #4]
 80020a2:	18d3      	adds	r3, r2, r3
 80020a4:	781b      	ldrb	r3, [r3, #0]
 80020a6:	2b00      	cmp	r3, #0
 80020a8:	d015      	beq.n	80020d6 <ASCII_TO_uint8_t+0x5e>
    		break;
    	}
    	else{
        	numeric_value = table[i] - '0';
 80020aa:	693b      	ldr	r3, [r7, #16]
 80020ac:	687a      	ldr	r2, [r7, #4]
 80020ae:	18d3      	adds	r3, r2, r3
 80020b0:	781b      	ldrb	r3, [r3, #0]
 80020b2:	3b30      	subs	r3, #48	; 0x30
 80020b4:	60fb      	str	r3, [r7, #12]
            result = result * 10 + numeric_value;
 80020b6:	697a      	ldr	r2, [r7, #20]
 80020b8:	0013      	movs	r3, r2
 80020ba:	009b      	lsls	r3, r3, #2
 80020bc:	189b      	adds	r3, r3, r2
 80020be:	005b      	lsls	r3, r3, #1
 80020c0:	001a      	movs	r2, r3
 80020c2:	68fb      	ldr	r3, [r7, #12]
 80020c4:	189b      	adds	r3, r3, r2
 80020c6:	617b      	str	r3, [r7, #20]
    for (int i = 0; i < size; i++) {
 80020c8:	693b      	ldr	r3, [r7, #16]
 80020ca:	3301      	adds	r3, #1
 80020cc:	613b      	str	r3, [r7, #16]
 80020ce:	693a      	ldr	r2, [r7, #16]
 80020d0:	68bb      	ldr	r3, [r7, #8]
 80020d2:	429a      	cmp	r2, r3
 80020d4:	dbdd      	blt.n	8002092 <ASCII_TO_uint8_t+0x1a>
    	}
    }
    return result;
 80020d6:	697b      	ldr	r3, [r7, #20]
}
 80020d8:	0018      	movs	r0, r3
 80020da:	46bd      	mov	sp, r7
 80020dc:	b006      	add	sp, #24
 80020de:	bd80      	pop	{r7, pc}

080020e0 <splitString>:

void splitString(const char* input_string, char** tokens) {
 80020e0:	b590      	push	{r4, r7, lr}
 80020e2:	b087      	sub	sp, #28
 80020e4:	af00      	add	r7, sp, #0
 80020e6:	6078      	str	r0, [r7, #4]
 80020e8:	6039      	str	r1, [r7, #0]
	const char delimiters[] = " \r\n";
 80020ea:	2408      	movs	r4, #8
 80020ec:	193b      	adds	r3, r7, r4
 80020ee:	4a1b      	ldr	r2, [pc, #108]	; (800215c <splitString+0x7c>)
 80020f0:	601a      	str	r2, [r3, #0]
    char* copy_of_input = strdup(input_string);
 80020f2:	687b      	ldr	r3, [r7, #4]
 80020f4:	0018      	movs	r0, r3
 80020f6:	f003 fe7d 	bl	8005df4 <strdup>
 80020fa:	0003      	movs	r3, r0
 80020fc:	60fb      	str	r3, [r7, #12]
    char* token = strtok(copy_of_input, delimiters);
 80020fe:	193a      	adds	r2, r7, r4
 8002100:	68fb      	ldr	r3, [r7, #12]
 8002102:	0011      	movs	r1, r2
 8002104:	0018      	movs	r0, r3
 8002106:	f003 febd 	bl	8005e84 <strtok>
 800210a:	0003      	movs	r3, r0
 800210c:	617b      	str	r3, [r7, #20]

    int token_count = 0;
 800210e:	2300      	movs	r3, #0
 8002110:	613b      	str	r3, [r7, #16]
    while (token != NULL && token_count < MAX_TOKENS) {
 8002112:	e014      	b.n	800213e <splitString+0x5e>
        tokens[token_count] = strdup(token);
 8002114:	693b      	ldr	r3, [r7, #16]
 8002116:	009b      	lsls	r3, r3, #2
 8002118:	683a      	ldr	r2, [r7, #0]
 800211a:	18d4      	adds	r4, r2, r3
 800211c:	697b      	ldr	r3, [r7, #20]
 800211e:	0018      	movs	r0, r3
 8002120:	f003 fe68 	bl	8005df4 <strdup>
 8002124:	0003      	movs	r3, r0
 8002126:	6023      	str	r3, [r4, #0]
        token = strtok(NULL, delimiters);
 8002128:	2308      	movs	r3, #8
 800212a:	18fb      	adds	r3, r7, r3
 800212c:	0019      	movs	r1, r3
 800212e:	2000      	movs	r0, #0
 8002130:	f003 fea8 	bl	8005e84 <strtok>
 8002134:	0003      	movs	r3, r0
 8002136:	617b      	str	r3, [r7, #20]
        token_count++;
 8002138:	693b      	ldr	r3, [r7, #16]
 800213a:	3301      	adds	r3, #1
 800213c:	613b      	str	r3, [r7, #16]
    while (token != NULL && token_count < MAX_TOKENS) {
 800213e:	697b      	ldr	r3, [r7, #20]
 8002140:	2b00      	cmp	r3, #0
 8002142:	d002      	beq.n	800214a <splitString+0x6a>
 8002144:	693b      	ldr	r3, [r7, #16]
 8002146:	2b03      	cmp	r3, #3
 8002148:	dde4      	ble.n	8002114 <splitString+0x34>
    }
    free(copy_of_input);
 800214a:	68fb      	ldr	r3, [r7, #12]
 800214c:	0018      	movs	r0, r3
 800214e:	f003 fc5d 	bl	8005a0c <free>
}
 8002152:	46c0      	nop			; (mov r8, r8)
 8002154:	46bd      	mov	sp, r7
 8002156:	b007      	add	sp, #28
 8002158:	bd90      	pop	{r4, r7, pc}
 800215a:	46c0      	nop			; (mov r8, r8)
 800215c:	000a0d20 	.word	0x000a0d20

08002160 <TIM6_DAC_IRQHandler>:

void TIM6_IRQHandler(void){
 8002160:	b580      	push	{r7, lr}
 8002162:	af00      	add	r7, sp, #0
	TIM6->SR &=~TIM_SR_UIF;
 8002164:	4b07      	ldr	r3, [pc, #28]	; (8002184 <TIM6_DAC_IRQHandler+0x24>)
 8002166:	691a      	ldr	r2, [r3, #16]
 8002168:	4b06      	ldr	r3, [pc, #24]	; (8002184 <TIM6_DAC_IRQHandler+0x24>)
 800216a:	2101      	movs	r1, #1
 800216c:	438a      	bics	r2, r1
 800216e:	611a      	str	r2, [r3, #16]
	if(pvd==0){
 8002170:	4b05      	ldr	r3, [pc, #20]	; (8002188 <TIM6_DAC_IRQHandler+0x28>)
 8002172:	681b      	ldr	r3, [r3, #0]
 8002174:	2b00      	cmp	r3, #0
 8002176:	d101      	bne.n	800217c <TIM6_DAC_IRQHandler+0x1c>
		TIM6_Callback();
 8002178:	f7ff f822 	bl	80011c0 <TIM6_Callback>
	}
}
 800217c:	46c0      	nop			; (mov r8, r8)
 800217e:	46bd      	mov	sp, r7
 8002180:	bd80      	pop	{r7, pc}
 8002182:	46c0      	nop			; (mov r8, r8)
 8002184:	40001000 	.word	0x40001000
 8002188:	20000018 	.word	0x20000018

0800218c <Error_Handler>:
/**
  * @brief  This function is executed in case of error occurrence.
  * @retval None
  */
void Error_Handler(void)
{
 800218c:	b580      	push	{r7, lr}
 800218e:	af00      	add	r7, sp, #0
  \details Disables IRQ interrupts by setting the I-bit in the CPSR.
           Can only be executed in Privileged modes.
 */
__STATIC_FORCEINLINE void __disable_irq(void)
{
  __ASM volatile ("cpsid i" : : : "memory");
 8002190:	b672      	cpsid	i
}
 8002192:	46c0      	nop			; (mov r8, r8)
  /* USER CODE BEGIN Error_Handler_Debug */
  /* User can add his own implementation to report the HAL error return state */
  __disable_irq();
  while (1)
 8002194:	e7fe      	b.n	8002194 <Error_Handler+0x8>
	...

08002198 <STANDBY>:
 8002198:	b580      	push	{r7, lr}
 800219a:	b082      	sub	sp, #8
 800219c:	af00      	add	r7, sp, #0
 800219e:	4b1f      	ldr	r3, [pc, #124]	; (800221c <STANDBY+0x84>)
 80021a0:	6b9a      	ldr	r2, [r3, #56]	; 0x38
 80021a2:	4b1e      	ldr	r3, [pc, #120]	; (800221c <STANDBY+0x84>)
 80021a4:	2180      	movs	r1, #128	; 0x80
 80021a6:	0549      	lsls	r1, r1, #21
 80021a8:	430a      	orrs	r2, r1
 80021aa:	639a      	str	r2, [r3, #56]	; 0x38
 80021ac:	4b1c      	ldr	r3, [pc, #112]	; (8002220 <STANDBY+0x88>)
 80021ae:	681a      	ldr	r2, [r3, #0]
 80021b0:	4b1b      	ldr	r3, [pc, #108]	; (8002220 <STANDBY+0x88>)
 80021b2:	2104      	movs	r1, #4
 80021b4:	430a      	orrs	r2, r1
 80021b6:	601a      	str	r2, [r3, #0]
 80021b8:	4b19      	ldr	r3, [pc, #100]	; (8002220 <STANDBY+0x88>)
 80021ba:	681a      	ldr	r2, [r3, #0]
 80021bc:	4b18      	ldr	r3, [pc, #96]	; (8002220 <STANDBY+0x88>)
 80021be:	2180      	movs	r1, #128	; 0x80
 80021c0:	0089      	lsls	r1, r1, #2
 80021c2:	430a      	orrs	r2, r1
 80021c4:	601a      	str	r2, [r3, #0]
 80021c6:	4b16      	ldr	r3, [pc, #88]	; (8002220 <STANDBY+0x88>)
 80021c8:	681a      	ldr	r2, [r3, #0]
 80021ca:	4b15      	ldr	r3, [pc, #84]	; (8002220 <STANDBY+0x88>)
 80021cc:	2102      	movs	r1, #2
 80021ce:	430a      	orrs	r2, r1
 80021d0:	601a      	str	r2, [r3, #0]
 80021d2:	4b14      	ldr	r3, [pc, #80]	; (8002224 <STANDBY+0x8c>)
 80021d4:	691a      	ldr	r2, [r3, #16]
 80021d6:	4b13      	ldr	r3, [pc, #76]	; (8002224 <STANDBY+0x8c>)
 80021d8:	2104      	movs	r1, #4
 80021da:	430a      	orrs	r2, r1
 80021dc:	611a      	str	r2, [r3, #16]
 80021de:	4b11      	ldr	r3, [pc, #68]	; (8002224 <STANDBY+0x8c>)
 80021e0:	691a      	ldr	r2, [r3, #16]
 80021e2:	4b10      	ldr	r3, [pc, #64]	; (8002224 <STANDBY+0x8c>)
 80021e4:	2102      	movs	r1, #2
 80021e6:	430a      	orrs	r2, r1
 80021e8:	611a      	str	r2, [r3, #16]
 80021ea:	2300      	movs	r3, #0
 80021ec:	607b      	str	r3, [r7, #4]
 80021ee:	e010      	b.n	8002212 <STANDBY+0x7a>
 80021f0:	23a0      	movs	r3, #160	; 0xa0
 80021f2:	05db      	lsls	r3, r3, #23
 80021f4:	2220      	movs	r2, #32
 80021f6:	615a      	str	r2, [r3, #20]
 80021f8:	23fa      	movs	r3, #250	; 0xfa
 80021fa:	005b      	lsls	r3, r3, #1
 80021fc:	0018      	movs	r0, r3
 80021fe:	f000 fa93 	bl	8002728 <HAL_Delay>
 8002202:	23a0      	movs	r3, #160	; 0xa0
 8002204:	05db      	lsls	r3, r3, #23
 8002206:	2221      	movs	r2, #33	; 0x21
 8002208:	4252      	negs	r2, r2
 800220a:	615a      	str	r2, [r3, #20]
 800220c:	687b      	ldr	r3, [r7, #4]
 800220e:	3301      	adds	r3, #1
 8002210:	607b      	str	r3, [r7, #4]
 8002212:	687b      	ldr	r3, [r7, #4]
 8002214:	2b31      	cmp	r3, #49	; 0x31
 8002216:	ddeb      	ble.n	80021f0 <STANDBY+0x58>
 8002218:	bf30      	wfi
 800221a:	e7fd      	b.n	8002218 <STANDBY+0x80>
 800221c:	40021000 	.word	0x40021000
 8002220:	40007000 	.word	0x40007000
 8002224:	e000ed00 	.word	0xe000ed00

08002228 <HAL_MspInit>:
 8002228:	b580      	push	{r7, lr}
 800222a:	b082      	sub	sp, #8
 800222c:	af00      	add	r7, sp, #0
 800222e:	003b      	movs	r3, r7
 8002230:	0018      	movs	r0, r3
 8002232:	2308      	movs	r3, #8
 8002234:	001a      	movs	r2, r3
 8002236:	2100      	movs	r1, #0
 8002238:	f003 fdd4 	bl	8005de4 <memset>
 800223c:	4b12      	ldr	r3, [pc, #72]	; (8002288 <HAL_MspInit+0x60>)
 800223e:	6b5a      	ldr	r2, [r3, #52]	; 0x34
 8002240:	4b11      	ldr	r3, [pc, #68]	; (8002288 <HAL_MspInit+0x60>)
 8002242:	2101      	movs	r1, #1
 8002244:	430a      	orrs	r2, r1
 8002246:	635a      	str	r2, [r3, #52]	; 0x34
 8002248:	4b0f      	ldr	r3, [pc, #60]	; (8002288 <HAL_MspInit+0x60>)
 800224a:	6b9a      	ldr	r2, [r3, #56]	; 0x38
 800224c:	4b0e      	ldr	r3, [pc, #56]	; (8002288 <HAL_MspInit+0x60>)
 800224e:	2180      	movs	r1, #128	; 0x80
 8002250:	0549      	lsls	r1, r1, #21
 8002252:	430a      	orrs	r2, r1
 8002254:	639a      	str	r2, [r3, #56]	; 0x38
 8002256:	2200      	movs	r2, #0
 8002258:	2101      	movs	r1, #1
 800225a:	2001      	movs	r0, #1
 800225c:	f000 fb34 	bl	80028c8 <HAL_NVIC_SetPriority>
 8002260:	2001      	movs	r0, #1
 8002262:	f000 fb46 	bl	80028f2 <HAL_NVIC_EnableIRQ>
 8002266:	003b      	movs	r3, r7
 8002268:	22c0      	movs	r2, #192	; 0xc0
 800226a:	601a      	str	r2, [r3, #0]
 800226c:	003b      	movs	r3, r7
 800226e:	4a07      	ldr	r2, [pc, #28]	; (800228c <HAL_MspInit+0x64>)
 8002270:	605a      	str	r2, [r3, #4]
 8002272:	003b      	movs	r3, r7
 8002274:	0018      	movs	r0, r3
 8002276:	f000 ffb5 	bl	80031e4 <HAL_PWR_ConfigPVD>
 800227a:	f001 f815 	bl	80032a8 <HAL_PWR_EnablePVD>
 800227e:	46c0      	nop			; (mov r8, r8)
 8002280:	46bd      	mov	sp, r7
 8002282:	b002      	add	sp, #8
 8002284:	bd80      	pop	{r7, pc}
 8002286:	46c0      	nop			; (mov r8, r8)
 8002288:	40021000 	.word	0x40021000
 800228c:	00010001 	.word	0x00010001

08002290 <NMI_Handler>:
 8002290:	b580      	push	{r7, lr}
 8002292:	af00      	add	r7, sp, #0
 8002294:	e7fe      	b.n	8002294 <NMI_Handler+0x4>

08002296 <HardFault_Handler>:
 8002296:	b580      	push	{r7, lr}
 8002298:	af00      	add	r7, sp, #0
 800229a:	e7fe      	b.n	800229a <HardFault_Handler+0x4>

0800229c <SVC_Handler>:
 800229c:	b580      	push	{r7, lr}
 800229e:	af00      	add	r7, sp, #0
 80022a0:	46c0      	nop			; (mov r8, r8)
 80022a2:	46bd      	mov	sp, r7
 80022a4:	bd80      	pop	{r7, pc}

080022a6 <PendSV_Handler>:
 80022a6:	b580      	push	{r7, lr}
 80022a8:	af00      	add	r7, sp, #0
 80022aa:	46c0      	nop			; (mov r8, r8)
 80022ac:	46bd      	mov	sp, r7
 80022ae:	bd80      	pop	{r7, pc}

080022b0 <SysTick_Handler>:
 80022b0:	b580      	push	{r7, lr}
 80022b2:	af00      	add	r7, sp, #0
 80022b4:	f000 fa1c 	bl	80026f0 <HAL_IncTick>
 80022b8:	46c0      	nop			; (mov r8, r8)
 80022ba:	46bd      	mov	sp, r7
 80022bc:	bd80      	pop	{r7, pc}

080022be <PVD_IRQHandler>:
 80022be:	b580      	push	{r7, lr}
 80022c0:	af00      	add	r7, sp, #0
 80022c2:	f000 ffff 	bl	80032c4 <HAL_PWR_PVD_IRQHandler>
 80022c6:	46c0      	nop			; (mov r8, r8)
 80022c8:	46bd      	mov	sp, r7
 80022ca:	bd80      	pop	{r7, pc}

080022cc <EXTI4_15_IRQHandler>:
 80022cc:	b580      	push	{r7, lr}
 80022ce:	af00      	add	r7, sp, #0
 80022d0:	2380      	movs	r3, #128	; 0x80
 80022d2:	019b      	lsls	r3, r3, #6
 80022d4:	0018      	movs	r0, r3
 80022d6:	f000 ff69 	bl	80031ac <HAL_GPIO_EXTI_IRQHandler>
 80022da:	46c0      	nop			; (mov r8, r8)
 80022dc:	46bd      	mov	sp, r7
 80022de:	bd80      	pop	{r7, pc}

080022e0 <USART2_IRQHandler>:
 80022e0:	b580      	push	{r7, lr}
 80022e2:	af00      	add	r7, sp, #0
 80022e4:	4b03      	ldr	r3, [pc, #12]	; (80022f4 <USART2_IRQHandler+0x14>)
 80022e6:	0018      	movs	r0, r3
 80022e8:	f002 f8e8 	bl	80044bc <HAL_UART_IRQHandler>
 80022ec:	46c0      	nop			; (mov r8, r8)
 80022ee:	46bd      	mov	sp, r7
 80022f0:	bd80      	pop	{r7, pc}
 80022f2:	46c0      	nop			; (mov r8, r8)
 80022f4:	20000300 	.word	0x20000300

080022f8 <_getpid>:
 80022f8:	b580      	push	{r7, lr}
 80022fa:	af00      	add	r7, sp, #0
 80022fc:	2301      	movs	r3, #1
 80022fe:	0018      	movs	r0, r3
 8002300:	46bd      	mov	sp, r7
 8002302:	bd80      	pop	{r7, pc}

08002304 <_kill>:
 8002304:	b580      	push	{r7, lr}
 8002306:	b082      	sub	sp, #8
 8002308:	af00      	add	r7, sp, #0
 800230a:	6078      	str	r0, [r7, #4]
 800230c:	6039      	str	r1, [r7, #0]
 800230e:	f003 fe7d 	bl	800600c <__errno>
 8002312:	0003      	movs	r3, r0
 8002314:	2216      	movs	r2, #22
 8002316:	601a      	str	r2, [r3, #0]
 8002318:	2301      	movs	r3, #1
 800231a:	425b      	negs	r3, r3
 800231c:	0018      	movs	r0, r3
 800231e:	46bd      	mov	sp, r7
 8002320:	b002      	add	sp, #8
 8002322:	bd80      	pop	{r7, pc}

08002324 <_exit>:
 8002324:	b580      	push	{r7, lr}
 8002326:	b082      	sub	sp, #8
 8002328:	af00      	add	r7, sp, #0
 800232a:	6078      	str	r0, [r7, #4]
 800232c:	2301      	movs	r3, #1
 800232e:	425a      	negs	r2, r3
 8002330:	687b      	ldr	r3, [r7, #4]
 8002332:	0011      	movs	r1, r2
 8002334:	0018      	movs	r0, r3
 8002336:	f7ff ffe5 	bl	8002304 <_kill>
 800233a:	e7fe      	b.n	800233a <_exit+0x16>

0800233c <_read>:
 800233c:	b580      	push	{r7, lr}
 800233e:	b086      	sub	sp, #24
 8002340:	af00      	add	r7, sp, #0
 8002342:	60f8      	str	r0, [r7, #12]
 8002344:	60b9      	str	r1, [r7, #8]
 8002346:	607a      	str	r2, [r7, #4]
 8002348:	2300      	movs	r3, #0
 800234a:	617b      	str	r3, [r7, #20]
 800234c:	e00a      	b.n	8002364 <_read+0x28>
 800234e:	e000      	b.n	8002352 <_read+0x16>
 8002350:	bf00      	nop
 8002352:	0001      	movs	r1, r0
 8002354:	68bb      	ldr	r3, [r7, #8]
 8002356:	1c5a      	adds	r2, r3, #1
 8002358:	60ba      	str	r2, [r7, #8]
 800235a:	b2ca      	uxtb	r2, r1
 800235c:	701a      	strb	r2, [r3, #0]
 800235e:	697b      	ldr	r3, [r7, #20]
 8002360:	3301      	adds	r3, #1
 8002362:	617b      	str	r3, [r7, #20]
 8002364:	697a      	ldr	r2, [r7, #20]
 8002366:	687b      	ldr	r3, [r7, #4]
 8002368:	429a      	cmp	r2, r3
 800236a:	dbf0      	blt.n	800234e <_read+0x12>
 800236c:	687b      	ldr	r3, [r7, #4]
 800236e:	0018      	movs	r0, r3
 8002370:	46bd      	mov	sp, r7
 8002372:	b006      	add	sp, #24
 8002374:	bd80      	pop	{r7, pc}

08002376 <_write>:
 8002376:	b580      	push	{r7, lr}
 8002378:	b086      	sub	sp, #24
 800237a:	af00      	add	r7, sp, #0
 800237c:	60f8      	str	r0, [r7, #12]
 800237e:	60b9      	str	r1, [r7, #8]
 8002380:	607a      	str	r2, [r7, #4]
 8002382:	2300      	movs	r3, #0
 8002384:	617b      	str	r3, [r7, #20]
 8002386:	e009      	b.n	800239c <_write+0x26>
 8002388:	68bb      	ldr	r3, [r7, #8]
 800238a:	1c5a      	adds	r2, r3, #1
 800238c:	60ba      	str	r2, [r7, #8]
 800238e:	781b      	ldrb	r3, [r3, #0]
 8002390:	0018      	movs	r0, r3
 8002392:	f7fe fee1 	bl	8001158 <__io_putchar>
 8002396:	697b      	ldr	r3, [r7, #20]
 8002398:	3301      	adds	r3, #1
 800239a:	617b      	str	r3, [r7, #20]
 800239c:	697a      	ldr	r2, [r7, #20]
 800239e:	687b      	ldr	r3, [r7, #4]
 80023a0:	429a      	cmp	r2, r3
 80023a2:	dbf1      	blt.n	8002388 <_write+0x12>
 80023a4:	687b      	ldr	r3, [r7, #4]
 80023a6:	0018      	movs	r0, r3
 80023a8:	46bd      	mov	sp, r7
 80023aa:	b006      	add	sp, #24
 80023ac:	bd80      	pop	{r7, pc}

080023ae <_close>:
 80023ae:	b580      	push	{r7, lr}
 80023b0:	b082      	sub	sp, #8
 80023b2:	af00      	add	r7, sp, #0
 80023b4:	6078      	str	r0, [r7, #4]
 80023b6:	2301      	movs	r3, #1
 80023b8:	425b      	negs	r3, r3
 80023ba:	0018      	movs	r0, r3
 80023bc:	46bd      	mov	sp, r7
 80023be:	b002      	add	sp, #8
 80023c0:	bd80      	pop	{r7, pc}

080023c2 <_fstat>:
 80023c2:	b580      	push	{r7, lr}
 80023c4:	b082      	sub	sp, #8
 80023c6:	af00      	add	r7, sp, #0
 80023c8:	6078      	str	r0, [r7, #4]
 80023ca:	6039      	str	r1, [r7, #0]
 80023cc:	683b      	ldr	r3, [r7, #0]
 80023ce:	2280      	movs	r2, #128	; 0x80
 80023d0:	0192      	lsls	r2, r2, #6
 80023d2:	605a      	str	r2, [r3, #4]
 80023d4:	2300      	movs	r3, #0
 80023d6:	0018      	movs	r0, r3
 80023d8:	46bd      	mov	sp, r7
 80023da:	b002      	add	sp, #8
 80023dc:	bd80      	pop	{r7, pc}

080023de <_isatty>:
 80023de:	b580      	push	{r7, lr}
 80023e0:	b082      	sub	sp, #8
 80023e2:	af00      	add	r7, sp, #0
 80023e4:	6078      	str	r0, [r7, #4]
 80023e6:	2301      	movs	r3, #1
 80023e8:	0018      	movs	r0, r3
 80023ea:	46bd      	mov	sp, r7
 80023ec:	b002      	add	sp, #8
 80023ee:	bd80      	pop	{r7, pc}

080023f0 <_lseek>:
 80023f0:	b580      	push	{r7, lr}
 80023f2:	b084      	sub	sp, #16
 80023f4:	af00      	add	r7, sp, #0
 80023f6:	60f8      	str	r0, [r7, #12]
 80023f8:	60b9      	str	r1, [r7, #8]
 80023fa:	607a      	str	r2, [r7, #4]
 80023fc:	2300      	movs	r3, #0
 80023fe:	0018      	movs	r0, r3
 8002400:	46bd      	mov	sp, r7
 8002402:	b004      	add	sp, #16
 8002404:	bd80      	pop	{r7, pc}
	...

08002408 <_sbrk>:
 8002408:	b580      	push	{r7, lr}
 800240a:	b086      	sub	sp, #24
 800240c:	af00      	add	r7, sp, #0
 800240e:	6078      	str	r0, [r7, #4]
 8002410:	4a14      	ldr	r2, [pc, #80]	; (8002464 <_sbrk+0x5c>)
 8002412:	4b15      	ldr	r3, [pc, #84]	; (8002468 <_sbrk+0x60>)
 8002414:	1ad3      	subs	r3, r2, r3
 8002416:	617b      	str	r3, [r7, #20]
 8002418:	697b      	ldr	r3, [r7, #20]
 800241a:	613b      	str	r3, [r7, #16]
 800241c:	4b13      	ldr	r3, [pc, #76]	; (800246c <_sbrk+0x64>)
 800241e:	681b      	ldr	r3, [r3, #0]
 8002420:	2b00      	cmp	r3, #0
 8002422:	d102      	bne.n	800242a <_sbrk+0x22>
 8002424:	4b11      	ldr	r3, [pc, #68]	; (800246c <_sbrk+0x64>)
 8002426:	4a12      	ldr	r2, [pc, #72]	; (8002470 <_sbrk+0x68>)
 8002428:	601a      	str	r2, [r3, #0]
 800242a:	4b10      	ldr	r3, [pc, #64]	; (800246c <_sbrk+0x64>)
 800242c:	681a      	ldr	r2, [r3, #0]
 800242e:	687b      	ldr	r3, [r7, #4]
 8002430:	18d3      	adds	r3, r2, r3
 8002432:	693a      	ldr	r2, [r7, #16]
 8002434:	429a      	cmp	r2, r3
 8002436:	d207      	bcs.n	8002448 <_sbrk+0x40>
 8002438:	f003 fde8 	bl	800600c <__errno>
 800243c:	0003      	movs	r3, r0
 800243e:	220c      	movs	r2, #12
 8002440:	601a      	str	r2, [r3, #0]
 8002442:	2301      	movs	r3, #1
 8002444:	425b      	negs	r3, r3
 8002446:	e009      	b.n	800245c <_sbrk+0x54>
 8002448:	4b08      	ldr	r3, [pc, #32]	; (800246c <_sbrk+0x64>)
 800244a:	681b      	ldr	r3, [r3, #0]
 800244c:	60fb      	str	r3, [r7, #12]
 800244e:	4b07      	ldr	r3, [pc, #28]	; (800246c <_sbrk+0x64>)
 8002450:	681a      	ldr	r2, [r3, #0]
 8002452:	687b      	ldr	r3, [r7, #4]
 8002454:	18d2      	adds	r2, r2, r3
 8002456:	4b05      	ldr	r3, [pc, #20]	; (800246c <_sbrk+0x64>)
 8002458:	601a      	str	r2, [r3, #0]
 800245a:	68fb      	ldr	r3, [r7, #12]
 800245c:	0018      	movs	r0, r3
 800245e:	46bd      	mov	sp, r7
 8002460:	b006      	add	sp, #24
 8002462:	bd80      	pop	{r7, pc}
 8002464:	20005000 	.word	0x20005000
 8002468:	00000400 	.word	0x00000400
 800246c:	200002fc 	.word	0x200002fc
 8002470:	200004f0 	.word	0x200004f0

08002474 <SystemInit>:
 8002474:	b580      	push	{r7, lr}
 8002476:	af00      	add	r7, sp, #0
 8002478:	46c0      	nop			; (mov r8, r8)
 800247a:	46bd      	mov	sp, r7
 800247c:	bd80      	pop	{r7, pc}
	...

08002480 <__NVIC_EnableIRQ>:
 8002480:	b580      	push	{r7, lr}
 8002482:	b082      	sub	sp, #8
 8002484:	af00      	add	r7, sp, #0
 8002486:	0002      	movs	r2, r0
 8002488:	1dfb      	adds	r3, r7, #7
 800248a:	701a      	strb	r2, [r3, #0]
 800248c:	1dfb      	adds	r3, r7, #7
 800248e:	781b      	ldrb	r3, [r3, #0]
 8002490:	2b7f      	cmp	r3, #127	; 0x7f
 8002492:	d809      	bhi.n	80024a8 <__NVIC_EnableIRQ+0x28>
 8002494:	1dfb      	adds	r3, r7, #7
 8002496:	781b      	ldrb	r3, [r3, #0]
 8002498:	001a      	movs	r2, r3
 800249a:	231f      	movs	r3, #31
 800249c:	401a      	ands	r2, r3
 800249e:	4b04      	ldr	r3, [pc, #16]	; (80024b0 <__NVIC_EnableIRQ+0x30>)
 80024a0:	2101      	movs	r1, #1
 80024a2:	4091      	lsls	r1, r2
 80024a4:	000a      	movs	r2, r1
 80024a6:	601a      	str	r2, [r3, #0]
 80024a8:	46c0      	nop			; (mov r8, r8)
 80024aa:	46bd      	mov	sp, r7
 80024ac:	b002      	add	sp, #8
 80024ae:	bd80      	pop	{r7, pc}
 80024b0:	e000e100 	.word	0xe000e100

080024b4 <TIM6_init>:
 80024b4:	b580      	push	{r7, lr}
 80024b6:	af00      	add	r7, sp, #0
 80024b8:	4b0d      	ldr	r3, [pc, #52]	; (80024f0 <TIM6_init+0x3c>)
 80024ba:	2210      	movs	r2, #16
 80024bc:	639a      	str	r2, [r3, #56]	; 0x38
 80024be:	4b0d      	ldr	r3, [pc, #52]	; (80024f4 <TIM6_init+0x40>)
 80024c0:	22c7      	movs	r2, #199	; 0xc7
 80024c2:	629a      	str	r2, [r3, #40]	; 0x28
 80024c4:	4b0b      	ldr	r3, [pc, #44]	; (80024f4 <TIM6_init+0x40>)
 80024c6:	4a0c      	ldr	r2, [pc, #48]	; (80024f8 <TIM6_init+0x44>)
 80024c8:	62da      	str	r2, [r3, #44]	; 0x2c
 80024ca:	4b0a      	ldr	r3, [pc, #40]	; (80024f4 <TIM6_init+0x40>)
 80024cc:	2200      	movs	r2, #0
 80024ce:	625a      	str	r2, [r3, #36]	; 0x24
 80024d0:	4b08      	ldr	r3, [pc, #32]	; (80024f4 <TIM6_init+0x40>)
 80024d2:	2201      	movs	r2, #1
 80024d4:	601a      	str	r2, [r3, #0]
 80024d6:	4b07      	ldr	r3, [pc, #28]	; (80024f4 <TIM6_init+0x40>)
 80024d8:	68da      	ldr	r2, [r3, #12]
 80024da:	4b06      	ldr	r3, [pc, #24]	; (80024f4 <TIM6_init+0x40>)
 80024dc:	2101      	movs	r1, #1
 80024de:	430a      	orrs	r2, r1
 80024e0:	60da      	str	r2, [r3, #12]
 80024e2:	2011      	movs	r0, #17
 80024e4:	f7ff ffcc 	bl	8002480 <__NVIC_EnableIRQ>
 80024e8:	46c0      	nop			; (mov r8, r8)
 80024ea:	46bd      	mov	sp, r7
 80024ec:	bd80      	pop	{r7, pc}
 80024ee:	46c0      	nop			; (mov r8, r8)
 80024f0:	40021000 	.word	0x40021000
 80024f4:	40001000 	.word	0x40001000
 80024f8:	00001387 	.word	0x00001387

080024fc <MX_USART2_UART_Init>:
 80024fc:	b580      	push	{r7, lr}
 80024fe:	af00      	add	r7, sp, #0
 8002500:	4b14      	ldr	r3, [pc, #80]	; (8002554 <MX_USART2_UART_Init+0x58>)
 8002502:	4a15      	ldr	r2, [pc, #84]	; (8002558 <MX_USART2_UART_Init+0x5c>)
 8002504:	601a      	str	r2, [r3, #0]
 8002506:	4b13      	ldr	r3, [pc, #76]	; (8002554 <MX_USART2_UART_Init+0x58>)
 8002508:	22e1      	movs	r2, #225	; 0xe1
 800250a:	0252      	lsls	r2, r2, #9
 800250c:	605a      	str	r2, [r3, #4]
 800250e:	4b11      	ldr	r3, [pc, #68]	; (8002554 <MX_USART2_UART_Init+0x58>)
 8002510:	2200      	movs	r2, #0
 8002512:	609a      	str	r2, [r3, #8]
 8002514:	4b0f      	ldr	r3, [pc, #60]	; (8002554 <MX_USART2_UART_Init+0x58>)
 8002516:	2200      	movs	r2, #0
 8002518:	60da      	str	r2, [r3, #12]
 800251a:	4b0e      	ldr	r3, [pc, #56]	; (8002554 <MX_USART2_UART_Init+0x58>)
 800251c:	2200      	movs	r2, #0
 800251e:	611a      	str	r2, [r3, #16]
 8002520:	4b0c      	ldr	r3, [pc, #48]	; (8002554 <MX_USART2_UART_Init+0x58>)
 8002522:	220c      	movs	r2, #12
 8002524:	615a      	str	r2, [r3, #20]
 8002526:	4b0b      	ldr	r3, [pc, #44]	; (8002554 <MX_USART2_UART_Init+0x58>)
 8002528:	2200      	movs	r2, #0
 800252a:	619a      	str	r2, [r3, #24]
 800252c:	4b09      	ldr	r3, [pc, #36]	; (8002554 <MX_USART2_UART_Init+0x58>)
 800252e:	2200      	movs	r2, #0
 8002530:	61da      	str	r2, [r3, #28]
 8002532:	4b08      	ldr	r3, [pc, #32]	; (8002554 <MX_USART2_UART_Init+0x58>)
 8002534:	2200      	movs	r2, #0
 8002536:	621a      	str	r2, [r3, #32]
 8002538:	4b06      	ldr	r3, [pc, #24]	; (8002554 <MX_USART2_UART_Init+0x58>)
 800253a:	2200      	movs	r2, #0
 800253c:	625a      	str	r2, [r3, #36]	; 0x24
 800253e:	4b05      	ldr	r3, [pc, #20]	; (8002554 <MX_USART2_UART_Init+0x58>)
 8002540:	0018      	movs	r0, r3
 8002542:	f001 fe69 	bl	8004218 <HAL_UART_Init>
 8002546:	1e03      	subs	r3, r0, #0
 8002548:	d001      	beq.n	800254e <MX_USART2_UART_Init+0x52>
 800254a:	f7ff fe1f 	bl	800218c <Error_Handler>
 800254e:	46c0      	nop			; (mov r8, r8)
 8002550:	46bd      	mov	sp, r7
 8002552:	bd80      	pop	{r7, pc}
 8002554:	20000300 	.word	0x20000300
 8002558:	40004400 	.word	0x40004400

0800255c <HAL_UART_MspInit>:
 800255c:	b590      	push	{r4, r7, lr}
 800255e:	b089      	sub	sp, #36	; 0x24
 8002560:	af00      	add	r7, sp, #0
 8002562:	6078      	str	r0, [r7, #4]
 8002564:	240c      	movs	r4, #12
 8002566:	193b      	adds	r3, r7, r4
 8002568:	0018      	movs	r0, r3
 800256a:	2314      	movs	r3, #20
 800256c:	001a      	movs	r2, r3
 800256e:	2100      	movs	r1, #0
 8002570:	f003 fc38 	bl	8005de4 <memset>
 8002574:	687b      	ldr	r3, [r7, #4]
 8002576:	681b      	ldr	r3, [r3, #0]
 8002578:	4a1c      	ldr	r2, [pc, #112]	; (80025ec <HAL_UART_MspInit+0x90>)
 800257a:	4293      	cmp	r3, r2
 800257c:	d131      	bne.n	80025e2 <HAL_UART_MspInit+0x86>
 800257e:	4b1c      	ldr	r3, [pc, #112]	; (80025f0 <HAL_UART_MspInit+0x94>)
 8002580:	6b9a      	ldr	r2, [r3, #56]	; 0x38
 8002582:	4b1b      	ldr	r3, [pc, #108]	; (80025f0 <HAL_UART_MspInit+0x94>)
 8002584:	2180      	movs	r1, #128	; 0x80
 8002586:	0289      	lsls	r1, r1, #10
 8002588:	430a      	orrs	r2, r1
 800258a:	639a      	str	r2, [r3, #56]	; 0x38
 800258c:	4b18      	ldr	r3, [pc, #96]	; (80025f0 <HAL_UART_MspInit+0x94>)
 800258e:	6ada      	ldr	r2, [r3, #44]	; 0x2c
 8002590:	4b17      	ldr	r3, [pc, #92]	; (80025f0 <HAL_UART_MspInit+0x94>)
 8002592:	2101      	movs	r1, #1
 8002594:	430a      	orrs	r2, r1
 8002596:	62da      	str	r2, [r3, #44]	; 0x2c
 8002598:	4b15      	ldr	r3, [pc, #84]	; (80025f0 <HAL_UART_MspInit+0x94>)
 800259a:	6adb      	ldr	r3, [r3, #44]	; 0x2c
 800259c:	2201      	movs	r2, #1
 800259e:	4013      	ands	r3, r2
 80025a0:	60bb      	str	r3, [r7, #8]
 80025a2:	68bb      	ldr	r3, [r7, #8]
 80025a4:	0021      	movs	r1, r4
 80025a6:	187b      	adds	r3, r7, r1
 80025a8:	220c      	movs	r2, #12
 80025aa:	601a      	str	r2, [r3, #0]
 80025ac:	187b      	adds	r3, r7, r1
 80025ae:	2202      	movs	r2, #2
 80025b0:	605a      	str	r2, [r3, #4]
 80025b2:	187b      	adds	r3, r7, r1
 80025b4:	2200      	movs	r2, #0
 80025b6:	609a      	str	r2, [r3, #8]
 80025b8:	187b      	adds	r3, r7, r1
 80025ba:	2203      	movs	r2, #3
 80025bc:	60da      	str	r2, [r3, #12]
 80025be:	187b      	adds	r3, r7, r1
 80025c0:	2204      	movs	r2, #4
 80025c2:	611a      	str	r2, [r3, #16]
 80025c4:	187a      	adds	r2, r7, r1
 80025c6:	23a0      	movs	r3, #160	; 0xa0
 80025c8:	05db      	lsls	r3, r3, #23
 80025ca:	0011      	movs	r1, r2
 80025cc:	0018      	movs	r0, r3
 80025ce:	f000 fc6f 	bl	8002eb0 <HAL_GPIO_Init>
 80025d2:	2200      	movs	r2, #0
 80025d4:	2100      	movs	r1, #0
 80025d6:	201c      	movs	r0, #28
 80025d8:	f000 f976 	bl	80028c8 <HAL_NVIC_SetPriority>
 80025dc:	201c      	movs	r0, #28
 80025de:	f000 f988 	bl	80028f2 <HAL_NVIC_EnableIRQ>
 80025e2:	46c0      	nop			; (mov r8, r8)
 80025e4:	46bd      	mov	sp, r7
 80025e6:	b009      	add	sp, #36	; 0x24
 80025e8:	bd90      	pop	{r4, r7, pc}
 80025ea:	46c0      	nop			; (mov r8, r8)
 80025ec:	40004400 	.word	0x40004400
 80025f0:	40021000 	.word	0x40021000

080025f4 <Reset_Handler>:
 80025f4:	480d      	ldr	r0, [pc, #52]	; (800262c <LoopForever+0x2>)
 80025f6:	4685      	mov	sp, r0
 80025f8:	f7ff ff3c 	bl	8002474 <SystemInit>
 80025fc:	480c      	ldr	r0, [pc, #48]	; (8002630 <LoopForever+0x6>)
 80025fe:	490d      	ldr	r1, [pc, #52]	; (8002634 <LoopForever+0xa>)
 8002600:	4a0d      	ldr	r2, [pc, #52]	; (8002638 <LoopForever+0xe>)
 8002602:	2300      	movs	r3, #0
 8002604:	e002      	b.n	800260c <LoopCopyDataInit>

08002606 <CopyDataInit>:
 8002606:	58d4      	ldr	r4, [r2, r3]
 8002608:	50c4      	str	r4, [r0, r3]
 800260a:	3304      	adds	r3, #4

0800260c <LoopCopyDataInit>:
 800260c:	18c4      	adds	r4, r0, r3
 800260e:	428c      	cmp	r4, r1
 8002610:	d3f9      	bcc.n	8002606 <CopyDataInit>
 8002612:	4a0a      	ldr	r2, [pc, #40]	; (800263c <LoopForever+0x12>)
 8002614:	4c0a      	ldr	r4, [pc, #40]	; (8002640 <LoopForever+0x16>)
 8002616:	2300      	movs	r3, #0
 8002618:	e001      	b.n	800261e <LoopFillZerobss>

0800261a <FillZerobss>:
 800261a:	6013      	str	r3, [r2, #0]
 800261c:	3204      	adds	r2, #4

0800261e <LoopFillZerobss>:
 800261e:	42a2      	cmp	r2, r4
 8002620:	d3fb      	bcc.n	800261a <FillZerobss>
 8002622:	f003 fcf9 	bl	8006018 <__libc_init_array>
 8002626:	f7fe fe47 	bl	80012b8 <main>

0800262a <LoopForever>:
 800262a:	e7fe      	b.n	800262a <LoopForever>
 800262c:	20005000 	.word	0x20005000
 8002630:	20000000 	.word	0x20000000
 8002634:	2000020c 	.word	0x2000020c
 8002638:	08007320 	.word	0x08007320
 800263c:	2000020c 	.word	0x2000020c
 8002640:	200004f0 	.word	0x200004f0

08002644 <ADC1_COMP_IRQHandler>:
 8002644:	e7fe      	b.n	8002644 <ADC1_COMP_IRQHandler>
	...

08002648 <HAL_Init>:
 8002648:	b580      	push	{r7, lr}
 800264a:	b082      	sub	sp, #8
 800264c:	af00      	add	r7, sp, #0
 800264e:	1dfb      	adds	r3, r7, #7
 8002650:	2200      	movs	r2, #0
 8002652:	701a      	strb	r2, [r3, #0]
 8002654:	4b0b      	ldr	r3, [pc, #44]	; (8002684 <HAL_Init+0x3c>)
 8002656:	681a      	ldr	r2, [r3, #0]
 8002658:	4b0a      	ldr	r3, [pc, #40]	; (8002684 <HAL_Init+0x3c>)
 800265a:	2140      	movs	r1, #64	; 0x40
 800265c:	430a      	orrs	r2, r1
 800265e:	601a      	str	r2, [r3, #0]
 8002660:	2000      	movs	r0, #0
 8002662:	f000 f811 	bl	8002688 <HAL_InitTick>
 8002666:	1e03      	subs	r3, r0, #0
 8002668:	d003      	beq.n	8002672 <HAL_Init+0x2a>
 800266a:	1dfb      	adds	r3, r7, #7
 800266c:	2201      	movs	r2, #1
 800266e:	701a      	strb	r2, [r3, #0]
 8002670:	e001      	b.n	8002676 <HAL_Init+0x2e>
 8002672:	f7ff fdd9 	bl	8002228 <HAL_MspInit>
 8002676:	1dfb      	adds	r3, r7, #7
 8002678:	781b      	ldrb	r3, [r3, #0]
 800267a:	0018      	movs	r0, r3
 800267c:	46bd      	mov	sp, r7
 800267e:	b002      	add	sp, #8
 8002680:	bd80      	pop	{r7, pc}
 8002682:	46c0      	nop			; (mov r8, r8)
 8002684:	40022000 	.word	0x40022000

08002688 <HAL_InitTick>:
 8002688:	b590      	push	{r4, r7, lr}
 800268a:	b083      	sub	sp, #12
 800268c:	af00      	add	r7, sp, #0
 800268e:	6078      	str	r0, [r7, #4]
 8002690:	4b14      	ldr	r3, [pc, #80]	; (80026e4 <HAL_InitTick+0x5c>)
 8002692:	681c      	ldr	r4, [r3, #0]
 8002694:	4b14      	ldr	r3, [pc, #80]	; (80026e8 <HAL_InitTick+0x60>)
 8002696:	781b      	ldrb	r3, [r3, #0]
 8002698:	0019      	movs	r1, r3
 800269a:	23fa      	movs	r3, #250	; 0xfa
 800269c:	0098      	lsls	r0, r3, #2
 800269e:	f7fd fd4f 	bl	8000140 <__udivsi3>
 80026a2:	0003      	movs	r3, r0
 80026a4:	0019      	movs	r1, r3
 80026a6:	0020      	movs	r0, r4
 80026a8:	f7fd fd4a 	bl	8000140 <__udivsi3>
 80026ac:	0003      	movs	r3, r0
 80026ae:	0018      	movs	r0, r3
 80026b0:	f000 f92f 	bl	8002912 <HAL_SYSTICK_Config>
 80026b4:	1e03      	subs	r3, r0, #0
 80026b6:	d001      	beq.n	80026bc <HAL_InitTick+0x34>
 80026b8:	2301      	movs	r3, #1
 80026ba:	e00f      	b.n	80026dc <HAL_InitTick+0x54>
 80026bc:	687b      	ldr	r3, [r7, #4]
 80026be:	2b03      	cmp	r3, #3
 80026c0:	d80b      	bhi.n	80026da <HAL_InitTick+0x52>
 80026c2:	6879      	ldr	r1, [r7, #4]
 80026c4:	2301      	movs	r3, #1
 80026c6:	425b      	negs	r3, r3
 80026c8:	2200      	movs	r2, #0
 80026ca:	0018      	movs	r0, r3
 80026cc:	f000 f8fc 	bl	80028c8 <HAL_NVIC_SetPriority>
 80026d0:	4b06      	ldr	r3, [pc, #24]	; (80026ec <HAL_InitTick+0x64>)
 80026d2:	687a      	ldr	r2, [r7, #4]
 80026d4:	601a      	str	r2, [r3, #0]
 80026d6:	2300      	movs	r3, #0
 80026d8:	e000      	b.n	80026dc <HAL_InitTick+0x54>
 80026da:	2301      	movs	r3, #1
 80026dc:	0018      	movs	r0, r3
 80026de:	46bd      	mov	sp, r7
 80026e0:	b003      	add	sp, #12
 80026e2:	bd90      	pop	{r4, r7, pc}
 80026e4:	200001a4 	.word	0x200001a4
 80026e8:	200001ac 	.word	0x200001ac
 80026ec:	200001a8 	.word	0x200001a8

080026f0 <HAL_IncTick>:
 80026f0:	b580      	push	{r7, lr}
 80026f2:	af00      	add	r7, sp, #0
 80026f4:	4b05      	ldr	r3, [pc, #20]	; (800270c <HAL_IncTick+0x1c>)
 80026f6:	781b      	ldrb	r3, [r3, #0]
 80026f8:	001a      	movs	r2, r3
 80026fa:	4b05      	ldr	r3, [pc, #20]	; (8002710 <HAL_IncTick+0x20>)
 80026fc:	681b      	ldr	r3, [r3, #0]
 80026fe:	18d2      	adds	r2, r2, r3
 8002700:	4b03      	ldr	r3, [pc, #12]	; (8002710 <HAL_IncTick+0x20>)
 8002702:	601a      	str	r2, [r3, #0]
 8002704:	46c0      	nop			; (mov r8, r8)
 8002706:	46bd      	mov	sp, r7
 8002708:	bd80      	pop	{r7, pc}
 800270a:	46c0      	nop			; (mov r8, r8)
 800270c:	200001ac 	.word	0x200001ac
 8002710:	20000388 	.word	0x20000388

08002714 <HAL_GetTick>:
 8002714:	b580      	push	{r7, lr}
 8002716:	af00      	add	r7, sp, #0
 8002718:	4b02      	ldr	r3, [pc, #8]	; (8002724 <HAL_GetTick+0x10>)
 800271a:	681b      	ldr	r3, [r3, #0]
 800271c:	0018      	movs	r0, r3
 800271e:	46bd      	mov	sp, r7
 8002720:	bd80      	pop	{r7, pc}
 8002722:	46c0      	nop			; (mov r8, r8)
 8002724:	20000388 	.word	0x20000388

08002728 <HAL_Delay>:
 8002728:	b580      	push	{r7, lr}
 800272a:	b084      	sub	sp, #16
 800272c:	af00      	add	r7, sp, #0
 800272e:	6078      	str	r0, [r7, #4]
 8002730:	f7ff fff0 	bl	8002714 <HAL_GetTick>
 8002734:	0003      	movs	r3, r0
 8002736:	60bb      	str	r3, [r7, #8]
 8002738:	687b      	ldr	r3, [r7, #4]
 800273a:	60fb      	str	r3, [r7, #12]
 800273c:	68fb      	ldr	r3, [r7, #12]
 800273e:	3301      	adds	r3, #1
 8002740:	d005      	beq.n	800274e <HAL_Delay+0x26>
 8002742:	4b0a      	ldr	r3, [pc, #40]	; (800276c <HAL_Delay+0x44>)
 8002744:	781b      	ldrb	r3, [r3, #0]
 8002746:	001a      	movs	r2, r3
 8002748:	68fb      	ldr	r3, [r7, #12]
 800274a:	189b      	adds	r3, r3, r2
 800274c:	60fb      	str	r3, [r7, #12]
 800274e:	46c0      	nop			; (mov r8, r8)
 8002750:	f7ff ffe0 	bl	8002714 <HAL_GetTick>
 8002754:	0002      	movs	r2, r0
 8002756:	68bb      	ldr	r3, [r7, #8]
 8002758:	1ad3      	subs	r3, r2, r3
 800275a:	68fa      	ldr	r2, [r7, #12]
 800275c:	429a      	cmp	r2, r3
 800275e:	d8f7      	bhi.n	8002750 <HAL_Delay+0x28>
 8002760:	46c0      	nop			; (mov r8, r8)
 8002762:	46c0      	nop			; (mov r8, r8)
 8002764:	46bd      	mov	sp, r7
 8002766:	b004      	add	sp, #16
 8002768:	bd80      	pop	{r7, pc}
 800276a:	46c0      	nop			; (mov r8, r8)
 800276c:	200001ac 	.word	0x200001ac

08002770 <__NVIC_EnableIRQ>:
 8002770:	b580      	push	{r7, lr}
 8002772:	b082      	sub	sp, #8
 8002774:	af00      	add	r7, sp, #0
 8002776:	0002      	movs	r2, r0
 8002778:	1dfb      	adds	r3, r7, #7
 800277a:	701a      	strb	r2, [r3, #0]
 800277c:	1dfb      	adds	r3, r7, #7
 800277e:	781b      	ldrb	r3, [r3, #0]
 8002780:	2b7f      	cmp	r3, #127	; 0x7f
 8002782:	d809      	bhi.n	8002798 <__NVIC_EnableIRQ+0x28>
 8002784:	1dfb      	adds	r3, r7, #7
 8002786:	781b      	ldrb	r3, [r3, #0]
 8002788:	001a      	movs	r2, r3
 800278a:	231f      	movs	r3, #31
 800278c:	401a      	ands	r2, r3
 800278e:	4b04      	ldr	r3, [pc, #16]	; (80027a0 <__NVIC_EnableIRQ+0x30>)
 8002790:	2101      	movs	r1, #1
 8002792:	4091      	lsls	r1, r2
 8002794:	000a      	movs	r2, r1
 8002796:	601a      	str	r2, [r3, #0]
 8002798:	46c0      	nop			; (mov r8, r8)
 800279a:	46bd      	mov	sp, r7
 800279c:	b002      	add	sp, #8
 800279e:	bd80      	pop	{r7, pc}
 80027a0:	e000e100 	.word	0xe000e100

080027a4 <__NVIC_SetPriority>:
 80027a4:	b590      	push	{r4, r7, lr}
 80027a6:	b083      	sub	sp, #12
 80027a8:	af00      	add	r7, sp, #0
 80027aa:	0002      	movs	r2, r0
 80027ac:	6039      	str	r1, [r7, #0]
 80027ae:	1dfb      	adds	r3, r7, #7
 80027b0:	701a      	strb	r2, [r3, #0]
 80027b2:	1dfb      	adds	r3, r7, #7
 80027b4:	781b      	ldrb	r3, [r3, #0]
 80027b6:	2b7f      	cmp	r3, #127	; 0x7f
 80027b8:	d828      	bhi.n	800280c <__NVIC_SetPriority+0x68>
 80027ba:	4a2f      	ldr	r2, [pc, #188]	; (8002878 <__NVIC_SetPriority+0xd4>)
 80027bc:	1dfb      	adds	r3, r7, #7
 80027be:	781b      	ldrb	r3, [r3, #0]
 80027c0:	b25b      	sxtb	r3, r3
 80027c2:	089b      	lsrs	r3, r3, #2
 80027c4:	33c0      	adds	r3, #192	; 0xc0
 80027c6:	009b      	lsls	r3, r3, #2
 80027c8:	589b      	ldr	r3, [r3, r2]
 80027ca:	1dfa      	adds	r2, r7, #7
 80027cc:	7812      	ldrb	r2, [r2, #0]
 80027ce:	0011      	movs	r1, r2
 80027d0:	2203      	movs	r2, #3
 80027d2:	400a      	ands	r2, r1
 80027d4:	00d2      	lsls	r2, r2, #3
 80027d6:	21ff      	movs	r1, #255	; 0xff
 80027d8:	4091      	lsls	r1, r2
 80027da:	000a      	movs	r2, r1
 80027dc:	43d2      	mvns	r2, r2
 80027de:	401a      	ands	r2, r3
 80027e0:	0011      	movs	r1, r2
 80027e2:	683b      	ldr	r3, [r7, #0]
 80027e4:	019b      	lsls	r3, r3, #6
 80027e6:	22ff      	movs	r2, #255	; 0xff
 80027e8:	401a      	ands	r2, r3
 80027ea:	1dfb      	adds	r3, r7, #7
 80027ec:	781b      	ldrb	r3, [r3, #0]
 80027ee:	0018      	movs	r0, r3
 80027f0:	2303      	movs	r3, #3
 80027f2:	4003      	ands	r3, r0
 80027f4:	00db      	lsls	r3, r3, #3
 80027f6:	409a      	lsls	r2, r3
 80027f8:	481f      	ldr	r0, [pc, #124]	; (8002878 <__NVIC_SetPriority+0xd4>)
 80027fa:	1dfb      	adds	r3, r7, #7
 80027fc:	781b      	ldrb	r3, [r3, #0]
 80027fe:	b25b      	sxtb	r3, r3
 8002800:	089b      	lsrs	r3, r3, #2
 8002802:	430a      	orrs	r2, r1
 8002804:	33c0      	adds	r3, #192	; 0xc0
 8002806:	009b      	lsls	r3, r3, #2
 8002808:	501a      	str	r2, [r3, r0]
 800280a:	e031      	b.n	8002870 <__NVIC_SetPriority+0xcc>
 800280c:	4a1b      	ldr	r2, [pc, #108]	; (800287c <__NVIC_SetPriority+0xd8>)
 800280e:	1dfb      	adds	r3, r7, #7
 8002810:	781b      	ldrb	r3, [r3, #0]
 8002812:	0019      	movs	r1, r3
 8002814:	230f      	movs	r3, #15
 8002816:	400b      	ands	r3, r1
 8002818:	3b08      	subs	r3, #8
 800281a:	089b      	lsrs	r3, r3, #2
 800281c:	3306      	adds	r3, #6
 800281e:	009b      	lsls	r3, r3, #2
 8002820:	18d3      	adds	r3, r2, r3
 8002822:	3304      	adds	r3, #4
 8002824:	681b      	ldr	r3, [r3, #0]
 8002826:	1dfa      	adds	r2, r7, #7
 8002828:	7812      	ldrb	r2, [r2, #0]
 800282a:	0011      	movs	r1, r2
 800282c:	2203      	movs	r2, #3
 800282e:	400a      	ands	r2, r1
 8002830:	00d2      	lsls	r2, r2, #3
 8002832:	21ff      	movs	r1, #255	; 0xff
 8002834:	4091      	lsls	r1, r2
 8002836:	000a      	movs	r2, r1
 8002838:	43d2      	mvns	r2, r2
 800283a:	401a      	ands	r2, r3
 800283c:	0011      	movs	r1, r2
 800283e:	683b      	ldr	r3, [r7, #0]
 8002840:	019b      	lsls	r3, r3, #6
 8002842:	22ff      	movs	r2, #255	; 0xff
 8002844:	401a      	ands	r2, r3
 8002846:	1dfb      	adds	r3, r7, #7
 8002848:	781b      	ldrb	r3, [r3, #0]
 800284a:	0018      	movs	r0, r3
 800284c:	2303      	movs	r3, #3
 800284e:	4003      	ands	r3, r0
 8002850:	00db      	lsls	r3, r3, #3
 8002852:	409a      	lsls	r2, r3
 8002854:	4809      	ldr	r0, [pc, #36]	; (800287c <__NVIC_SetPriority+0xd8>)
 8002856:	1dfb      	adds	r3, r7, #7
 8002858:	781b      	ldrb	r3, [r3, #0]
 800285a:	001c      	movs	r4, r3
 800285c:	230f      	movs	r3, #15
 800285e:	4023      	ands	r3, r4
 8002860:	3b08      	subs	r3, #8
 8002862:	089b      	lsrs	r3, r3, #2
 8002864:	430a      	orrs	r2, r1
 8002866:	3306      	adds	r3, #6
 8002868:	009b      	lsls	r3, r3, #2
 800286a:	18c3      	adds	r3, r0, r3
 800286c:	3304      	adds	r3, #4
 800286e:	601a      	str	r2, [r3, #0]
 8002870:	46c0      	nop			; (mov r8, r8)
 8002872:	46bd      	mov	sp, r7
 8002874:	b003      	add	sp, #12
 8002876:	bd90      	pop	{r4, r7, pc}
 8002878:	e000e100 	.word	0xe000e100
 800287c:	e000ed00 	.word	0xe000ed00

08002880 <SysTick_Config>:
 8002880:	b580      	push	{r7, lr}
 8002882:	b082      	sub	sp, #8
 8002884:	af00      	add	r7, sp, #0
 8002886:	6078      	str	r0, [r7, #4]
 8002888:	687b      	ldr	r3, [r7, #4]
 800288a:	1e5a      	subs	r2, r3, #1
 800288c:	2380      	movs	r3, #128	; 0x80
 800288e:	045b      	lsls	r3, r3, #17
 8002890:	429a      	cmp	r2, r3
 8002892:	d301      	bcc.n	8002898 <SysTick_Config+0x18>
 8002894:	2301      	movs	r3, #1
 8002896:	e010      	b.n	80028ba <SysTick_Config+0x3a>
 8002898:	4b0a      	ldr	r3, [pc, #40]	; (80028c4 <SysTick_Config+0x44>)
 800289a:	687a      	ldr	r2, [r7, #4]
 800289c:	3a01      	subs	r2, #1
 800289e:	605a      	str	r2, [r3, #4]
 80028a0:	2301      	movs	r3, #1
 80028a2:	425b      	negs	r3, r3
 80028a4:	2103      	movs	r1, #3
 80028a6:	0018      	movs	r0, r3
 80028a8:	f7ff ff7c 	bl	80027a4 <__NVIC_SetPriority>
 80028ac:	4b05      	ldr	r3, [pc, #20]	; (80028c4 <SysTick_Config+0x44>)
 80028ae:	2200      	movs	r2, #0
 80028b0:	609a      	str	r2, [r3, #8]
 80028b2:	4b04      	ldr	r3, [pc, #16]	; (80028c4 <SysTick_Config+0x44>)
 80028b4:	2207      	movs	r2, #7
 80028b6:	601a      	str	r2, [r3, #0]
 80028b8:	2300      	movs	r3, #0
 80028ba:	0018      	movs	r0, r3
 80028bc:	46bd      	mov	sp, r7
 80028be:	b002      	add	sp, #8
 80028c0:	bd80      	pop	{r7, pc}
 80028c2:	46c0      	nop			; (mov r8, r8)
 80028c4:	e000e010 	.word	0xe000e010

080028c8 <HAL_NVIC_SetPriority>:
 80028c8:	b580      	push	{r7, lr}
 80028ca:	b084      	sub	sp, #16
 80028cc:	af00      	add	r7, sp, #0
 80028ce:	60b9      	str	r1, [r7, #8]
 80028d0:	607a      	str	r2, [r7, #4]
 80028d2:	210f      	movs	r1, #15
 80028d4:	187b      	adds	r3, r7, r1
 80028d6:	1c02      	adds	r2, r0, #0
 80028d8:	701a      	strb	r2, [r3, #0]
 80028da:	68ba      	ldr	r2, [r7, #8]
 80028dc:	187b      	adds	r3, r7, r1
 80028de:	781b      	ldrb	r3, [r3, #0]
 80028e0:	b25b      	sxtb	r3, r3
 80028e2:	0011      	movs	r1, r2
 80028e4:	0018      	movs	r0, r3
 80028e6:	f7ff ff5d 	bl	80027a4 <__NVIC_SetPriority>
 80028ea:	46c0      	nop			; (mov r8, r8)
 80028ec:	46bd      	mov	sp, r7
 80028ee:	b004      	add	sp, #16
 80028f0:	bd80      	pop	{r7, pc}

080028f2 <HAL_NVIC_EnableIRQ>:
 80028f2:	b580      	push	{r7, lr}
 80028f4:	b082      	sub	sp, #8
 80028f6:	af00      	add	r7, sp, #0
 80028f8:	0002      	movs	r2, r0
 80028fa:	1dfb      	adds	r3, r7, #7
 80028fc:	701a      	strb	r2, [r3, #0]
 80028fe:	1dfb      	adds	r3, r7, #7
 8002900:	781b      	ldrb	r3, [r3, #0]
 8002902:	b25b      	sxtb	r3, r3
 8002904:	0018      	movs	r0, r3
 8002906:	f7ff ff33 	bl	8002770 <__NVIC_EnableIRQ>
 800290a:	46c0      	nop			; (mov r8, r8)
 800290c:	46bd      	mov	sp, r7
 800290e:	b002      	add	sp, #8
 8002910:	bd80      	pop	{r7, pc}

08002912 <HAL_SYSTICK_Config>:
 8002912:	b580      	push	{r7, lr}
 8002914:	b082      	sub	sp, #8
 8002916:	af00      	add	r7, sp, #0
 8002918:	6078      	str	r0, [r7, #4]
 800291a:	687b      	ldr	r3, [r7, #4]
 800291c:	0018      	movs	r0, r3
 800291e:	f7ff ffaf 	bl	8002880 <SysTick_Config>
 8002922:	0003      	movs	r3, r0
 8002924:	0018      	movs	r0, r3
 8002926:	46bd      	mov	sp, r7
 8002928:	b002      	add	sp, #8
 800292a:	bd80      	pop	{r7, pc}

0800292c <HAL_DMA_Abort>:
 800292c:	b580      	push	{r7, lr}
 800292e:	b084      	sub	sp, #16
 8002930:	af00      	add	r7, sp, #0
 8002932:	6078      	str	r0, [r7, #4]
 8002934:	230f      	movs	r3, #15
 8002936:	18fb      	adds	r3, r7, r3
 8002938:	2200      	movs	r2, #0
 800293a:	701a      	strb	r2, [r3, #0]
 800293c:	687b      	ldr	r3, [r7, #4]
 800293e:	2225      	movs	r2, #37	; 0x25
 8002940:	5c9b      	ldrb	r3, [r3, r2]
 8002942:	b2db      	uxtb	r3, r3
 8002944:	2b02      	cmp	r3, #2
 8002946:	d008      	beq.n	800295a <HAL_DMA_Abort+0x2e>
 8002948:	687b      	ldr	r3, [r7, #4]
 800294a:	2204      	movs	r2, #4
 800294c:	63da      	str	r2, [r3, #60]	; 0x3c
 800294e:	687b      	ldr	r3, [r7, #4]
 8002950:	2224      	movs	r2, #36	; 0x24
 8002952:	2100      	movs	r1, #0
 8002954:	5499      	strb	r1, [r3, r2]
 8002956:	2301      	movs	r3, #1
 8002958:	e024      	b.n	80029a4 <HAL_DMA_Abort+0x78>
 800295a:	687b      	ldr	r3, [r7, #4]
 800295c:	681b      	ldr	r3, [r3, #0]
 800295e:	681a      	ldr	r2, [r3, #0]
 8002960:	687b      	ldr	r3, [r7, #4]
 8002962:	681b      	ldr	r3, [r3, #0]
 8002964:	210e      	movs	r1, #14
 8002966:	438a      	bics	r2, r1
 8002968:	601a      	str	r2, [r3, #0]
 800296a:	687b      	ldr	r3, [r7, #4]
 800296c:	681b      	ldr	r3, [r3, #0]
 800296e:	681a      	ldr	r2, [r3, #0]
 8002970:	687b      	ldr	r3, [r7, #4]
 8002972:	681b      	ldr	r3, [r3, #0]
 8002974:	2101      	movs	r1, #1
 8002976:	438a      	bics	r2, r1
 8002978:	601a      	str	r2, [r3, #0]
 800297a:	687b      	ldr	r3, [r7, #4]
 800297c:	6c5b      	ldr	r3, [r3, #68]	; 0x44
 800297e:	221c      	movs	r2, #28
 8002980:	401a      	ands	r2, r3
 8002982:	687b      	ldr	r3, [r7, #4]
 8002984:	6c1b      	ldr	r3, [r3, #64]	; 0x40
 8002986:	2101      	movs	r1, #1
 8002988:	4091      	lsls	r1, r2
 800298a:	000a      	movs	r2, r1
 800298c:	605a      	str	r2, [r3, #4]
 800298e:	687b      	ldr	r3, [r7, #4]
 8002990:	2225      	movs	r2, #37	; 0x25
 8002992:	2101      	movs	r1, #1
 8002994:	5499      	strb	r1, [r3, r2]
 8002996:	687b      	ldr	r3, [r7, #4]
 8002998:	2224      	movs	r2, #36	; 0x24
 800299a:	2100      	movs	r1, #0
 800299c:	5499      	strb	r1, [r3, r2]
 800299e:	230f      	movs	r3, #15
 80029a0:	18fb      	adds	r3, r7, r3
 80029a2:	781b      	ldrb	r3, [r3, #0]
 80029a4:	0018      	movs	r0, r3
 80029a6:	46bd      	mov	sp, r7
 80029a8:	b004      	add	sp, #16
 80029aa:	bd80      	pop	{r7, pc}

080029ac <HAL_DMA_Abort_IT>:
 80029ac:	b580      	push	{r7, lr}
 80029ae:	b084      	sub	sp, #16
 80029b0:	af00      	add	r7, sp, #0
 80029b2:	6078      	str	r0, [r7, #4]
 80029b4:	210f      	movs	r1, #15
 80029b6:	187b      	adds	r3, r7, r1
 80029b8:	2200      	movs	r2, #0
 80029ba:	701a      	strb	r2, [r3, #0]
 80029bc:	687b      	ldr	r3, [r7, #4]
 80029be:	2225      	movs	r2, #37	; 0x25
 80029c0:	5c9b      	ldrb	r3, [r3, r2]
 80029c2:	b2db      	uxtb	r3, r3
 80029c4:	2b02      	cmp	r3, #2
 80029c6:	d006      	beq.n	80029d6 <HAL_DMA_Abort_IT+0x2a>
 80029c8:	687b      	ldr	r3, [r7, #4]
 80029ca:	2204      	movs	r2, #4
 80029cc:	63da      	str	r2, [r3, #60]	; 0x3c
 80029ce:	187b      	adds	r3, r7, r1
 80029d0:	2201      	movs	r2, #1
 80029d2:	701a      	strb	r2, [r3, #0]
 80029d4:	e02a      	b.n	8002a2c <HAL_DMA_Abort_IT+0x80>
 80029d6:	687b      	ldr	r3, [r7, #4]
 80029d8:	681b      	ldr	r3, [r3, #0]
 80029da:	681a      	ldr	r2, [r3, #0]
 80029dc:	687b      	ldr	r3, [r7, #4]
 80029de:	681b      	ldr	r3, [r3, #0]
 80029e0:	210e      	movs	r1, #14
 80029e2:	438a      	bics	r2, r1
 80029e4:	601a      	str	r2, [r3, #0]
 80029e6:	687b      	ldr	r3, [r7, #4]
 80029e8:	681b      	ldr	r3, [r3, #0]
 80029ea:	681a      	ldr	r2, [r3, #0]
 80029ec:	687b      	ldr	r3, [r7, #4]
 80029ee:	681b      	ldr	r3, [r3, #0]
 80029f0:	2101      	movs	r1, #1
 80029f2:	438a      	bics	r2, r1
 80029f4:	601a      	str	r2, [r3, #0]
 80029f6:	687b      	ldr	r3, [r7, #4]
 80029f8:	6c5b      	ldr	r3, [r3, #68]	; 0x44
 80029fa:	221c      	movs	r2, #28
 80029fc:	401a      	ands	r2, r3
 80029fe:	687b      	ldr	r3, [r7, #4]
 8002a00:	6c1b      	ldr	r3, [r3, #64]	; 0x40
 8002a02:	2101      	movs	r1, #1
 8002a04:	4091      	lsls	r1, r2
 8002a06:	000a      	movs	r2, r1
 8002a08:	605a      	str	r2, [r3, #4]
 8002a0a:	687b      	ldr	r3, [r7, #4]
 8002a0c:	2225      	movs	r2, #37	; 0x25
 8002a0e:	2101      	movs	r1, #1
 8002a10:	5499      	strb	r1, [r3, r2]
 8002a12:	687b      	ldr	r3, [r7, #4]
 8002a14:	2224      	movs	r2, #36	; 0x24
 8002a16:	2100      	movs	r1, #0
 8002a18:	5499      	strb	r1, [r3, r2]
 8002a1a:	687b      	ldr	r3, [r7, #4]
 8002a1c:	6b9b      	ldr	r3, [r3, #56]	; 0x38
 8002a1e:	2b00      	cmp	r3, #0
 8002a20:	d004      	beq.n	8002a2c <HAL_DMA_Abort_IT+0x80>
 8002a22:	687b      	ldr	r3, [r7, #4]
 8002a24:	6b9b      	ldr	r3, [r3, #56]	; 0x38
 8002a26:	687a      	ldr	r2, [r7, #4]
 8002a28:	0010      	movs	r0, r2
 8002a2a:	4798      	blx	r3
 8002a2c:	230f      	movs	r3, #15
 8002a2e:	18fb      	adds	r3, r7, r3
 8002a30:	781b      	ldrb	r3, [r3, #0]
 8002a32:	0018      	movs	r0, r3
 8002a34:	46bd      	mov	sp, r7
 8002a36:	b004      	add	sp, #16
 8002a38:	bd80      	pop	{r7, pc}
	...

08002a3c <HAL_FLASH_Program>:
 8002a3c:	b5b0      	push	{r4, r5, r7, lr}
 8002a3e:	b086      	sub	sp, #24
 8002a40:	af00      	add	r7, sp, #0
 8002a42:	60f8      	str	r0, [r7, #12]
 8002a44:	60b9      	str	r1, [r7, #8]
 8002a46:	607a      	str	r2, [r7, #4]
 8002a48:	2317      	movs	r3, #23
 8002a4a:	18fb      	adds	r3, r7, r3
 8002a4c:	2201      	movs	r2, #1
 8002a4e:	701a      	strb	r2, [r3, #0]
 8002a50:	4b16      	ldr	r3, [pc, #88]	; (8002aac <HAL_FLASH_Program+0x70>)
 8002a52:	7c1b      	ldrb	r3, [r3, #16]
 8002a54:	2b01      	cmp	r3, #1
 8002a56:	d101      	bne.n	8002a5c <HAL_FLASH_Program+0x20>
 8002a58:	2302      	movs	r3, #2
 8002a5a:	e022      	b.n	8002aa2 <HAL_FLASH_Program+0x66>
 8002a5c:	4b13      	ldr	r3, [pc, #76]	; (8002aac <HAL_FLASH_Program+0x70>)
 8002a5e:	2201      	movs	r2, #1
 8002a60:	741a      	strb	r2, [r3, #16]
 8002a62:	2517      	movs	r5, #23
 8002a64:	197c      	adds	r4, r7, r5
 8002a66:	4b12      	ldr	r3, [pc, #72]	; (8002ab0 <HAL_FLASH_Program+0x74>)
 8002a68:	0018      	movs	r0, r3
 8002a6a:	f000 f88b 	bl	8002b84 <FLASH_WaitForLastOperation>
 8002a6e:	0003      	movs	r3, r0
 8002a70:	7023      	strb	r3, [r4, #0]
 8002a72:	0029      	movs	r1, r5
 8002a74:	187b      	adds	r3, r7, r1
 8002a76:	781b      	ldrb	r3, [r3, #0]
 8002a78:	2b00      	cmp	r3, #0
 8002a7a:	d10c      	bne.n	8002a96 <HAL_FLASH_Program+0x5a>
 8002a7c:	4b0b      	ldr	r3, [pc, #44]	; (8002aac <HAL_FLASH_Program+0x70>)
 8002a7e:	2200      	movs	r2, #0
 8002a80:	615a      	str	r2, [r3, #20]
 8002a82:	68bb      	ldr	r3, [r7, #8]
 8002a84:	687a      	ldr	r2, [r7, #4]
 8002a86:	601a      	str	r2, [r3, #0]
 8002a88:	187c      	adds	r4, r7, r1
 8002a8a:	4b09      	ldr	r3, [pc, #36]	; (8002ab0 <HAL_FLASH_Program+0x74>)
 8002a8c:	0018      	movs	r0, r3
 8002a8e:	f000 f879 	bl	8002b84 <FLASH_WaitForLastOperation>
 8002a92:	0003      	movs	r3, r0
 8002a94:	7023      	strb	r3, [r4, #0]
 8002a96:	4b05      	ldr	r3, [pc, #20]	; (8002aac <HAL_FLASH_Program+0x70>)
 8002a98:	2200      	movs	r2, #0
 8002a9a:	741a      	strb	r2, [r3, #16]
 8002a9c:	2317      	movs	r3, #23
 8002a9e:	18fb      	adds	r3, r7, r3
 8002aa0:	781b      	ldrb	r3, [r3, #0]
 8002aa2:	0018      	movs	r0, r3
 8002aa4:	46bd      	mov	sp, r7
 8002aa6:	b006      	add	sp, #24
 8002aa8:	bdb0      	pop	{r4, r5, r7, pc}
 8002aaa:	46c0      	nop			; (mov r8, r8)
 8002aac:	2000038c 	.word	0x2000038c
 8002ab0:	0000c350 	.word	0x0000c350

08002ab4 <HAL_FLASH_Unlock>:
 8002ab4:	b580      	push	{r7, lr}
 8002ab6:	b086      	sub	sp, #24
 8002ab8:	af00      	add	r7, sp, #0
 8002aba:	4b23      	ldr	r3, [pc, #140]	; (8002b48 <HAL_FLASH_Unlock+0x94>)
 8002abc:	685b      	ldr	r3, [r3, #4]
 8002abe:	2201      	movs	r2, #1
 8002ac0:	4013      	ands	r3, r2
 8002ac2:	2b01      	cmp	r3, #1
 8002ac4:	d11a      	bne.n	8002afc <HAL_FLASH_Unlock+0x48>
 8002ac6:	f3ef 8310 	mrs	r3, PRIMASK
 8002aca:	60fb      	str	r3, [r7, #12]
 8002acc:	68fb      	ldr	r3, [r7, #12]
 8002ace:	617b      	str	r3, [r7, #20]
 8002ad0:	b672      	cpsid	i
 8002ad2:	46c0      	nop			; (mov r8, r8)
 8002ad4:	4b1c      	ldr	r3, [pc, #112]	; (8002b48 <HAL_FLASH_Unlock+0x94>)
 8002ad6:	4a1d      	ldr	r2, [pc, #116]	; (8002b4c <HAL_FLASH_Unlock+0x98>)
 8002ad8:	60da      	str	r2, [r3, #12]
 8002ada:	4b1b      	ldr	r3, [pc, #108]	; (8002b48 <HAL_FLASH_Unlock+0x94>)
 8002adc:	4a1c      	ldr	r2, [pc, #112]	; (8002b50 <HAL_FLASH_Unlock+0x9c>)
 8002ade:	60da      	str	r2, [r3, #12]
 8002ae0:	697b      	ldr	r3, [r7, #20]
 8002ae2:	613b      	str	r3, [r7, #16]
 8002ae4:	693b      	ldr	r3, [r7, #16]
 8002ae6:	f383 8810 	msr	PRIMASK, r3
 8002aea:	46c0      	nop			; (mov r8, r8)
 8002aec:	4b16      	ldr	r3, [pc, #88]	; (8002b48 <HAL_FLASH_Unlock+0x94>)
 8002aee:	685b      	ldr	r3, [r3, #4]
 8002af0:	2201      	movs	r2, #1
 8002af2:	4013      	ands	r3, r2
 8002af4:	2b01      	cmp	r3, #1
 8002af6:	d101      	bne.n	8002afc <HAL_FLASH_Unlock+0x48>
 8002af8:	2301      	movs	r3, #1
 8002afa:	e021      	b.n	8002b40 <HAL_FLASH_Unlock+0x8c>
 8002afc:	4b12      	ldr	r3, [pc, #72]	; (8002b48 <HAL_FLASH_Unlock+0x94>)
 8002afe:	685b      	ldr	r3, [r3, #4]
 8002b00:	2202      	movs	r2, #2
 8002b02:	4013      	ands	r3, r2
 8002b04:	2b02      	cmp	r3, #2
 8002b06:	d11a      	bne.n	8002b3e <HAL_FLASH_Unlock+0x8a>
 8002b08:	f3ef 8310 	mrs	r3, PRIMASK
 8002b0c:	607b      	str	r3, [r7, #4]
 8002b0e:	687b      	ldr	r3, [r7, #4]
 8002b10:	617b      	str	r3, [r7, #20]
 8002b12:	b672      	cpsid	i
 8002b14:	46c0      	nop			; (mov r8, r8)
 8002b16:	4b0c      	ldr	r3, [pc, #48]	; (8002b48 <HAL_FLASH_Unlock+0x94>)
 8002b18:	4a0e      	ldr	r2, [pc, #56]	; (8002b54 <HAL_FLASH_Unlock+0xa0>)
 8002b1a:	611a      	str	r2, [r3, #16]
 8002b1c:	4b0a      	ldr	r3, [pc, #40]	; (8002b48 <HAL_FLASH_Unlock+0x94>)
 8002b1e:	4a0e      	ldr	r2, [pc, #56]	; (8002b58 <HAL_FLASH_Unlock+0xa4>)
 8002b20:	611a      	str	r2, [r3, #16]
 8002b22:	697b      	ldr	r3, [r7, #20]
 8002b24:	60bb      	str	r3, [r7, #8]
 8002b26:	68bb      	ldr	r3, [r7, #8]
 8002b28:	f383 8810 	msr	PRIMASK, r3
 8002b2c:	46c0      	nop			; (mov r8, r8)
 8002b2e:	4b06      	ldr	r3, [pc, #24]	; (8002b48 <HAL_FLASH_Unlock+0x94>)
 8002b30:	685b      	ldr	r3, [r3, #4]
 8002b32:	2202      	movs	r2, #2
 8002b34:	4013      	ands	r3, r2
 8002b36:	2b02      	cmp	r3, #2
 8002b38:	d101      	bne.n	8002b3e <HAL_FLASH_Unlock+0x8a>
 8002b3a:	2301      	movs	r3, #1
 8002b3c:	e000      	b.n	8002b40 <HAL_FLASH_Unlock+0x8c>
 8002b3e:	2300      	movs	r3, #0
 8002b40:	0018      	movs	r0, r3
 8002b42:	46bd      	mov	sp, r7
 8002b44:	b006      	add	sp, #24
 8002b46:	bd80      	pop	{r7, pc}
 8002b48:	40022000 	.word	0x40022000
 8002b4c:	89abcdef 	.word	0x89abcdef
 8002b50:	02030405 	.word	0x02030405
 8002b54:	8c9daebf 	.word	0x8c9daebf
 8002b58:	13141516 	.word	0x13141516

08002b5c <HAL_FLASH_Lock>:
 8002b5c:	b580      	push	{r7, lr}
 8002b5e:	af00      	add	r7, sp, #0
 8002b60:	4b07      	ldr	r3, [pc, #28]	; (8002b80 <HAL_FLASH_Lock+0x24>)
 8002b62:	685a      	ldr	r2, [r3, #4]
 8002b64:	4b06      	ldr	r3, [pc, #24]	; (8002b80 <HAL_FLASH_Lock+0x24>)
 8002b66:	2102      	movs	r1, #2
 8002b68:	430a      	orrs	r2, r1
 8002b6a:	605a      	str	r2, [r3, #4]
 8002b6c:	4b04      	ldr	r3, [pc, #16]	; (8002b80 <HAL_FLASH_Lock+0x24>)
 8002b6e:	685a      	ldr	r2, [r3, #4]
 8002b70:	4b03      	ldr	r3, [pc, #12]	; (8002b80 <HAL_FLASH_Lock+0x24>)
 8002b72:	2101      	movs	r1, #1
 8002b74:	430a      	orrs	r2, r1
 8002b76:	605a      	str	r2, [r3, #4]
 8002b78:	2300      	movs	r3, #0
 8002b7a:	0018      	movs	r0, r3
 8002b7c:	46bd      	mov	sp, r7
 8002b7e:	bd80      	pop	{r7, pc}
 8002b80:	40022000 	.word	0x40022000

08002b84 <FLASH_WaitForLastOperation>:
 8002b84:	b580      	push	{r7, lr}
 8002b86:	b084      	sub	sp, #16
 8002b88:	af00      	add	r7, sp, #0
 8002b8a:	6078      	str	r0, [r7, #4]
 8002b8c:	f7ff fdc2 	bl	8002714 <HAL_GetTick>
 8002b90:	0003      	movs	r3, r0
 8002b92:	60fb      	str	r3, [r7, #12]
 8002b94:	e00f      	b.n	8002bb6 <FLASH_WaitForLastOperation+0x32>
 8002b96:	687b      	ldr	r3, [r7, #4]
 8002b98:	3301      	adds	r3, #1
 8002b9a:	d00c      	beq.n	8002bb6 <FLASH_WaitForLastOperation+0x32>
 8002b9c:	687b      	ldr	r3, [r7, #4]
 8002b9e:	2b00      	cmp	r3, #0
 8002ba0:	d007      	beq.n	8002bb2 <FLASH_WaitForLastOperation+0x2e>
 8002ba2:	f7ff fdb7 	bl	8002714 <HAL_GetTick>
 8002ba6:	0002      	movs	r2, r0
 8002ba8:	68fb      	ldr	r3, [r7, #12]
 8002baa:	1ad3      	subs	r3, r2, r3
 8002bac:	687a      	ldr	r2, [r7, #4]
 8002bae:	429a      	cmp	r2, r3
 8002bb0:	d201      	bcs.n	8002bb6 <FLASH_WaitForLastOperation+0x32>
 8002bb2:	2303      	movs	r3, #3
 8002bb4:	e052      	b.n	8002c5c <FLASH_WaitForLastOperation+0xd8>
 8002bb6:	4b2b      	ldr	r3, [pc, #172]	; (8002c64 <FLASH_WaitForLastOperation+0xe0>)
 8002bb8:	699b      	ldr	r3, [r3, #24]
 8002bba:	2201      	movs	r2, #1
 8002bbc:	4013      	ands	r3, r2
 8002bbe:	2b01      	cmp	r3, #1
 8002bc0:	d0e9      	beq.n	8002b96 <FLASH_WaitForLastOperation+0x12>
 8002bc2:	4b28      	ldr	r3, [pc, #160]	; (8002c64 <FLASH_WaitForLastOperation+0xe0>)
 8002bc4:	699b      	ldr	r3, [r3, #24]
 8002bc6:	2202      	movs	r2, #2
 8002bc8:	4013      	ands	r3, r2
 8002bca:	2b02      	cmp	r3, #2
 8002bcc:	d102      	bne.n	8002bd4 <FLASH_WaitForLastOperation+0x50>
 8002bce:	4b25      	ldr	r3, [pc, #148]	; (8002c64 <FLASH_WaitForLastOperation+0xe0>)
 8002bd0:	2202      	movs	r2, #2
 8002bd2:	619a      	str	r2, [r3, #24]
 8002bd4:	4b23      	ldr	r3, [pc, #140]	; (8002c64 <FLASH_WaitForLastOperation+0xe0>)
 8002bd6:	699a      	ldr	r2, [r3, #24]
 8002bd8:	2380      	movs	r3, #128	; 0x80
 8002bda:	005b      	lsls	r3, r3, #1
 8002bdc:	401a      	ands	r2, r3
 8002bde:	2380      	movs	r3, #128	; 0x80
 8002be0:	005b      	lsls	r3, r3, #1
 8002be2:	429a      	cmp	r2, r3
 8002be4:	d035      	beq.n	8002c52 <FLASH_WaitForLastOperation+0xce>
 8002be6:	4b1f      	ldr	r3, [pc, #124]	; (8002c64 <FLASH_WaitForLastOperation+0xe0>)
 8002be8:	699a      	ldr	r2, [r3, #24]
 8002bea:	2380      	movs	r3, #128	; 0x80
 8002bec:	009b      	lsls	r3, r3, #2
 8002bee:	401a      	ands	r2, r3
 8002bf0:	2380      	movs	r3, #128	; 0x80
 8002bf2:	009b      	lsls	r3, r3, #2
 8002bf4:	429a      	cmp	r2, r3
 8002bf6:	d02c      	beq.n	8002c52 <FLASH_WaitForLastOperation+0xce>
 8002bf8:	4b1a      	ldr	r3, [pc, #104]	; (8002c64 <FLASH_WaitForLastOperation+0xe0>)
 8002bfa:	699a      	ldr	r2, [r3, #24]
 8002bfc:	2380      	movs	r3, #128	; 0x80
 8002bfe:	00db      	lsls	r3, r3, #3
 8002c00:	401a      	ands	r2, r3
 8002c02:	2380      	movs	r3, #128	; 0x80
 8002c04:	00db      	lsls	r3, r3, #3
 8002c06:	429a      	cmp	r2, r3
 8002c08:	d023      	beq.n	8002c52 <FLASH_WaitForLastOperation+0xce>
 8002c0a:	4b16      	ldr	r3, [pc, #88]	; (8002c64 <FLASH_WaitForLastOperation+0xe0>)
 8002c0c:	699a      	ldr	r2, [r3, #24]
 8002c0e:	2380      	movs	r3, #128	; 0x80
 8002c10:	011b      	lsls	r3, r3, #4
 8002c12:	401a      	ands	r2, r3
 8002c14:	2380      	movs	r3, #128	; 0x80
 8002c16:	011b      	lsls	r3, r3, #4
 8002c18:	429a      	cmp	r2, r3
 8002c1a:	d01a      	beq.n	8002c52 <FLASH_WaitForLastOperation+0xce>
 8002c1c:	4b11      	ldr	r3, [pc, #68]	; (8002c64 <FLASH_WaitForLastOperation+0xe0>)
 8002c1e:	699a      	ldr	r2, [r3, #24]
 8002c20:	2380      	movs	r3, #128	; 0x80
 8002c22:	019b      	lsls	r3, r3, #6
 8002c24:	401a      	ands	r2, r3
 8002c26:	2380      	movs	r3, #128	; 0x80
 8002c28:	019b      	lsls	r3, r3, #6
 8002c2a:	429a      	cmp	r2, r3
 8002c2c:	d011      	beq.n	8002c52 <FLASH_WaitForLastOperation+0xce>
 8002c2e:	4b0d      	ldr	r3, [pc, #52]	; (8002c64 <FLASH_WaitForLastOperation+0xe0>)
 8002c30:	699a      	ldr	r2, [r3, #24]
 8002c32:	2380      	movs	r3, #128	; 0x80
 8002c34:	029b      	lsls	r3, r3, #10
 8002c36:	401a      	ands	r2, r3
 8002c38:	2380      	movs	r3, #128	; 0x80
 8002c3a:	029b      	lsls	r3, r3, #10
 8002c3c:	429a      	cmp	r2, r3
 8002c3e:	d008      	beq.n	8002c52 <FLASH_WaitForLastOperation+0xce>
 8002c40:	4b08      	ldr	r3, [pc, #32]	; (8002c64 <FLASH_WaitForLastOperation+0xe0>)
 8002c42:	699a      	ldr	r2, [r3, #24]
 8002c44:	2380      	movs	r3, #128	; 0x80
 8002c46:	025b      	lsls	r3, r3, #9
 8002c48:	401a      	ands	r2, r3
 8002c4a:	2380      	movs	r3, #128	; 0x80
 8002c4c:	025b      	lsls	r3, r3, #9
 8002c4e:	429a      	cmp	r2, r3
 8002c50:	d103      	bne.n	8002c5a <FLASH_WaitForLastOperation+0xd6>
 8002c52:	f000 f809 	bl	8002c68 <FLASH_SetErrorCode>
 8002c56:	2301      	movs	r3, #1
 8002c58:	e000      	b.n	8002c5c <FLASH_WaitForLastOperation+0xd8>
 8002c5a:	2300      	movs	r3, #0
 8002c5c:	0018      	movs	r0, r3
 8002c5e:	46bd      	mov	sp, r7
 8002c60:	b004      	add	sp, #16
 8002c62:	bd80      	pop	{r7, pc}
 8002c64:	40022000 	.word	0x40022000

08002c68 <FLASH_SetErrorCode>:
 8002c68:	b580      	push	{r7, lr}
 8002c6a:	b082      	sub	sp, #8
 8002c6c:	af00      	add	r7, sp, #0
 8002c6e:	2300      	movs	r3, #0
 8002c70:	607b      	str	r3, [r7, #4]
 8002c72:	4b49      	ldr	r3, [pc, #292]	; (8002d98 <FLASH_SetErrorCode+0x130>)
 8002c74:	699a      	ldr	r2, [r3, #24]
 8002c76:	2380      	movs	r3, #128	; 0x80
 8002c78:	005b      	lsls	r3, r3, #1
 8002c7a:	401a      	ands	r2, r3
 8002c7c:	2380      	movs	r3, #128	; 0x80
 8002c7e:	005b      	lsls	r3, r3, #1
 8002c80:	429a      	cmp	r2, r3
 8002c82:	d10a      	bne.n	8002c9a <FLASH_SetErrorCode+0x32>
 8002c84:	4b45      	ldr	r3, [pc, #276]	; (8002d9c <FLASH_SetErrorCode+0x134>)
 8002c86:	695b      	ldr	r3, [r3, #20]
 8002c88:	2202      	movs	r2, #2
 8002c8a:	431a      	orrs	r2, r3
 8002c8c:	4b43      	ldr	r3, [pc, #268]	; (8002d9c <FLASH_SetErrorCode+0x134>)
 8002c8e:	615a      	str	r2, [r3, #20]
 8002c90:	687b      	ldr	r3, [r7, #4]
 8002c92:	2280      	movs	r2, #128	; 0x80
 8002c94:	0052      	lsls	r2, r2, #1
 8002c96:	4313      	orrs	r3, r2
 8002c98:	607b      	str	r3, [r7, #4]
 8002c9a:	4b3f      	ldr	r3, [pc, #252]	; (8002d98 <FLASH_SetErrorCode+0x130>)
 8002c9c:	699a      	ldr	r2, [r3, #24]
 8002c9e:	2380      	movs	r3, #128	; 0x80
 8002ca0:	009b      	lsls	r3, r3, #2
 8002ca2:	401a      	ands	r2, r3
 8002ca4:	2380      	movs	r3, #128	; 0x80
 8002ca6:	009b      	lsls	r3, r3, #2
 8002ca8:	429a      	cmp	r2, r3
 8002caa:	d10a      	bne.n	8002cc2 <FLASH_SetErrorCode+0x5a>
 8002cac:	4b3b      	ldr	r3, [pc, #236]	; (8002d9c <FLASH_SetErrorCode+0x134>)
 8002cae:	695b      	ldr	r3, [r3, #20]
 8002cb0:	2201      	movs	r2, #1
 8002cb2:	431a      	orrs	r2, r3
 8002cb4:	4b39      	ldr	r3, [pc, #228]	; (8002d9c <FLASH_SetErrorCode+0x134>)
 8002cb6:	615a      	str	r2, [r3, #20]
 8002cb8:	687b      	ldr	r3, [r7, #4]
 8002cba:	2280      	movs	r2, #128	; 0x80
 8002cbc:	0092      	lsls	r2, r2, #2
 8002cbe:	4313      	orrs	r3, r2
 8002cc0:	607b      	str	r3, [r7, #4]
 8002cc2:	4b35      	ldr	r3, [pc, #212]	; (8002d98 <FLASH_SetErrorCode+0x130>)
 8002cc4:	699a      	ldr	r2, [r3, #24]
 8002cc6:	2380      	movs	r3, #128	; 0x80
 8002cc8:	00db      	lsls	r3, r3, #3
 8002cca:	401a      	ands	r2, r3
 8002ccc:	2380      	movs	r3, #128	; 0x80
 8002cce:	00db      	lsls	r3, r3, #3
 8002cd0:	429a      	cmp	r2, r3
 8002cd2:	d10a      	bne.n	8002cea <FLASH_SetErrorCode+0x82>
 8002cd4:	4b31      	ldr	r3, [pc, #196]	; (8002d9c <FLASH_SetErrorCode+0x134>)
 8002cd6:	695b      	ldr	r3, [r3, #20]
 8002cd8:	2208      	movs	r2, #8
 8002cda:	431a      	orrs	r2, r3
 8002cdc:	4b2f      	ldr	r3, [pc, #188]	; (8002d9c <FLASH_SetErrorCode+0x134>)
 8002cde:	615a      	str	r2, [r3, #20]
 8002ce0:	687b      	ldr	r3, [r7, #4]
 8002ce2:	2280      	movs	r2, #128	; 0x80
 8002ce4:	00d2      	lsls	r2, r2, #3
 8002ce6:	4313      	orrs	r3, r2
 8002ce8:	607b      	str	r3, [r7, #4]
 8002cea:	4b2b      	ldr	r3, [pc, #172]	; (8002d98 <FLASH_SetErrorCode+0x130>)
 8002cec:	699a      	ldr	r2, [r3, #24]
 8002cee:	2380      	movs	r3, #128	; 0x80
 8002cf0:	011b      	lsls	r3, r3, #4
 8002cf2:	401a      	ands	r2, r3
 8002cf4:	2380      	movs	r3, #128	; 0x80
 8002cf6:	011b      	lsls	r3, r3, #4
 8002cf8:	429a      	cmp	r2, r3
 8002cfa:	d10a      	bne.n	8002d12 <FLASH_SetErrorCode+0xaa>
 8002cfc:	4b27      	ldr	r3, [pc, #156]	; (8002d9c <FLASH_SetErrorCode+0x134>)
 8002cfe:	695b      	ldr	r3, [r3, #20]
 8002d00:	2204      	movs	r2, #4
 8002d02:	431a      	orrs	r2, r3
 8002d04:	4b25      	ldr	r3, [pc, #148]	; (8002d9c <FLASH_SetErrorCode+0x134>)
 8002d06:	615a      	str	r2, [r3, #20]
 8002d08:	687b      	ldr	r3, [r7, #4]
 8002d0a:	2280      	movs	r2, #128	; 0x80
 8002d0c:	0112      	lsls	r2, r2, #4
 8002d0e:	4313      	orrs	r3, r2
 8002d10:	607b      	str	r3, [r7, #4]
 8002d12:	4b21      	ldr	r3, [pc, #132]	; (8002d98 <FLASH_SetErrorCode+0x130>)
 8002d14:	699a      	ldr	r2, [r3, #24]
 8002d16:	2380      	movs	r3, #128	; 0x80
 8002d18:	019b      	lsls	r3, r3, #6
 8002d1a:	401a      	ands	r2, r3
 8002d1c:	2380      	movs	r3, #128	; 0x80
 8002d1e:	019b      	lsls	r3, r3, #6
 8002d20:	429a      	cmp	r2, r3
 8002d22:	d10a      	bne.n	8002d3a <FLASH_SetErrorCode+0xd2>
 8002d24:	4b1d      	ldr	r3, [pc, #116]	; (8002d9c <FLASH_SetErrorCode+0x134>)
 8002d26:	695b      	ldr	r3, [r3, #20]
 8002d28:	2210      	movs	r2, #16
 8002d2a:	431a      	orrs	r2, r3
 8002d2c:	4b1b      	ldr	r3, [pc, #108]	; (8002d9c <FLASH_SetErrorCode+0x134>)
 8002d2e:	615a      	str	r2, [r3, #20]
 8002d30:	687b      	ldr	r3, [r7, #4]
 8002d32:	2280      	movs	r2, #128	; 0x80
 8002d34:	0192      	lsls	r2, r2, #6
 8002d36:	4313      	orrs	r3, r2
 8002d38:	607b      	str	r3, [r7, #4]
 8002d3a:	4b17      	ldr	r3, [pc, #92]	; (8002d98 <FLASH_SetErrorCode+0x130>)
 8002d3c:	699a      	ldr	r2, [r3, #24]
 8002d3e:	2380      	movs	r3, #128	; 0x80
 8002d40:	029b      	lsls	r3, r3, #10
 8002d42:	401a      	ands	r2, r3
 8002d44:	2380      	movs	r3, #128	; 0x80
 8002d46:	029b      	lsls	r3, r3, #10
 8002d48:	429a      	cmp	r2, r3
 8002d4a:	d109      	bne.n	8002d60 <FLASH_SetErrorCode+0xf8>
 8002d4c:	4b13      	ldr	r3, [pc, #76]	; (8002d9c <FLASH_SetErrorCode+0x134>)
 8002d4e:	695b      	ldr	r3, [r3, #20]
 8002d50:	2220      	movs	r2, #32
 8002d52:	431a      	orrs	r2, r3
 8002d54:	4b11      	ldr	r3, [pc, #68]	; (8002d9c <FLASH_SetErrorCode+0x134>)
 8002d56:	615a      	str	r2, [r3, #20]
 8002d58:	687b      	ldr	r3, [r7, #4]
 8002d5a:	2220      	movs	r2, #32
 8002d5c:	4313      	orrs	r3, r2
 8002d5e:	607b      	str	r3, [r7, #4]
 8002d60:	4b0d      	ldr	r3, [pc, #52]	; (8002d98 <FLASH_SetErrorCode+0x130>)
 8002d62:	699a      	ldr	r2, [r3, #24]
 8002d64:	2380      	movs	r3, #128	; 0x80
 8002d66:	025b      	lsls	r3, r3, #9
 8002d68:	401a      	ands	r2, r3
 8002d6a:	2380      	movs	r3, #128	; 0x80
 8002d6c:	025b      	lsls	r3, r3, #9
 8002d6e:	429a      	cmp	r2, r3
 8002d70:	d10a      	bne.n	8002d88 <FLASH_SetErrorCode+0x120>
 8002d72:	4b0a      	ldr	r3, [pc, #40]	; (8002d9c <FLASH_SetErrorCode+0x134>)
 8002d74:	695b      	ldr	r3, [r3, #20]
 8002d76:	2240      	movs	r2, #64	; 0x40
 8002d78:	431a      	orrs	r2, r3
 8002d7a:	4b08      	ldr	r3, [pc, #32]	; (8002d9c <FLASH_SetErrorCode+0x134>)
 8002d7c:	615a      	str	r2, [r3, #20]
 8002d7e:	687b      	ldr	r3, [r7, #4]
 8002d80:	2280      	movs	r2, #128	; 0x80
 8002d82:	0252      	lsls	r2, r2, #9
 8002d84:	4313      	orrs	r3, r2
 8002d86:	607b      	str	r3, [r7, #4]
 8002d88:	4b03      	ldr	r3, [pc, #12]	; (8002d98 <FLASH_SetErrorCode+0x130>)
 8002d8a:	687a      	ldr	r2, [r7, #4]
 8002d8c:	619a      	str	r2, [r3, #24]
 8002d8e:	46c0      	nop			; (mov r8, r8)
 8002d90:	46bd      	mov	sp, r7
 8002d92:	b002      	add	sp, #8
 8002d94:	bd80      	pop	{r7, pc}
 8002d96:	46c0      	nop			; (mov r8, r8)
 8002d98:	40022000 	.word	0x40022000
 8002d9c:	2000038c 	.word	0x2000038c

08002da0 <HAL_FLASHEx_Erase>:
 8002da0:	b5b0      	push	{r4, r5, r7, lr}
 8002da2:	b084      	sub	sp, #16
 8002da4:	af00      	add	r7, sp, #0
 8002da6:	6078      	str	r0, [r7, #4]
 8002da8:	6039      	str	r1, [r7, #0]
 8002daa:	230f      	movs	r3, #15
 8002dac:	18fb      	adds	r3, r7, r3
 8002dae:	2201      	movs	r2, #1
 8002db0:	701a      	strb	r2, [r3, #0]
 8002db2:	2300      	movs	r3, #0
 8002db4:	60bb      	str	r3, [r7, #8]
 8002db6:	4b29      	ldr	r3, [pc, #164]	; (8002e5c <HAL_FLASHEx_Erase+0xbc>)
 8002db8:	7c1b      	ldrb	r3, [r3, #16]
 8002dba:	2b01      	cmp	r3, #1
 8002dbc:	d101      	bne.n	8002dc2 <HAL_FLASHEx_Erase+0x22>
 8002dbe:	2302      	movs	r3, #2
 8002dc0:	e048      	b.n	8002e54 <HAL_FLASHEx_Erase+0xb4>
 8002dc2:	4b26      	ldr	r3, [pc, #152]	; (8002e5c <HAL_FLASHEx_Erase+0xbc>)
 8002dc4:	2201      	movs	r2, #1
 8002dc6:	741a      	strb	r2, [r3, #16]
 8002dc8:	250f      	movs	r5, #15
 8002dca:	197c      	adds	r4, r7, r5
 8002dcc:	4b24      	ldr	r3, [pc, #144]	; (8002e60 <HAL_FLASHEx_Erase+0xc0>)
 8002dce:	0018      	movs	r0, r3
 8002dd0:	f7ff fed8 	bl	8002b84 <FLASH_WaitForLastOperation>
 8002dd4:	0003      	movs	r3, r0
 8002dd6:	7023      	strb	r3, [r4, #0]
 8002dd8:	197b      	adds	r3, r7, r5
 8002dda:	781b      	ldrb	r3, [r3, #0]
 8002ddc:	2b00      	cmp	r3, #0
 8002dde:	d133      	bne.n	8002e48 <HAL_FLASHEx_Erase+0xa8>
 8002de0:	683b      	ldr	r3, [r7, #0]
 8002de2:	2201      	movs	r2, #1
 8002de4:	4252      	negs	r2, r2
 8002de6:	601a      	str	r2, [r3, #0]
 8002de8:	687b      	ldr	r3, [r7, #4]
 8002dea:	685b      	ldr	r3, [r3, #4]
 8002dec:	60bb      	str	r3, [r7, #8]
 8002dee:	e022      	b.n	8002e36 <HAL_FLASHEx_Erase+0x96>
 8002df0:	68bb      	ldr	r3, [r7, #8]
 8002df2:	0018      	movs	r0, r3
 8002df4:	f000 f83a 	bl	8002e6c <FLASH_PageErase>
 8002df8:	250f      	movs	r5, #15
 8002dfa:	197c      	adds	r4, r7, r5
 8002dfc:	4b18      	ldr	r3, [pc, #96]	; (8002e60 <HAL_FLASHEx_Erase+0xc0>)
 8002dfe:	0018      	movs	r0, r3
 8002e00:	f7ff fec0 	bl	8002b84 <FLASH_WaitForLastOperation>
 8002e04:	0003      	movs	r3, r0
 8002e06:	7023      	strb	r3, [r4, #0]
 8002e08:	4b16      	ldr	r3, [pc, #88]	; (8002e64 <HAL_FLASHEx_Erase+0xc4>)
 8002e0a:	685a      	ldr	r2, [r3, #4]
 8002e0c:	4b15      	ldr	r3, [pc, #84]	; (8002e64 <HAL_FLASHEx_Erase+0xc4>)
 8002e0e:	2108      	movs	r1, #8
 8002e10:	438a      	bics	r2, r1
 8002e12:	605a      	str	r2, [r3, #4]
 8002e14:	4b13      	ldr	r3, [pc, #76]	; (8002e64 <HAL_FLASHEx_Erase+0xc4>)
 8002e16:	685a      	ldr	r2, [r3, #4]
 8002e18:	4b12      	ldr	r3, [pc, #72]	; (8002e64 <HAL_FLASHEx_Erase+0xc4>)
 8002e1a:	4913      	ldr	r1, [pc, #76]	; (8002e68 <HAL_FLASHEx_Erase+0xc8>)
 8002e1c:	400a      	ands	r2, r1
 8002e1e:	605a      	str	r2, [r3, #4]
 8002e20:	197b      	adds	r3, r7, r5
 8002e22:	781b      	ldrb	r3, [r3, #0]
 8002e24:	2b00      	cmp	r3, #0
 8002e26:	d003      	beq.n	8002e30 <HAL_FLASHEx_Erase+0x90>
 8002e28:	683b      	ldr	r3, [r7, #0]
 8002e2a:	68ba      	ldr	r2, [r7, #8]
 8002e2c:	601a      	str	r2, [r3, #0]
 8002e2e:	e00b      	b.n	8002e48 <HAL_FLASHEx_Erase+0xa8>
 8002e30:	68bb      	ldr	r3, [r7, #8]
 8002e32:	3380      	adds	r3, #128	; 0x80
 8002e34:	60bb      	str	r3, [r7, #8]
 8002e36:	687b      	ldr	r3, [r7, #4]
 8002e38:	689b      	ldr	r3, [r3, #8]
 8002e3a:	01da      	lsls	r2, r3, #7
 8002e3c:	687b      	ldr	r3, [r7, #4]
 8002e3e:	685b      	ldr	r3, [r3, #4]
 8002e40:	18d3      	adds	r3, r2, r3
 8002e42:	68ba      	ldr	r2, [r7, #8]
 8002e44:	429a      	cmp	r2, r3
 8002e46:	d3d3      	bcc.n	8002df0 <HAL_FLASHEx_Erase+0x50>
 8002e48:	4b04      	ldr	r3, [pc, #16]	; (8002e5c <HAL_FLASHEx_Erase+0xbc>)
 8002e4a:	2200      	movs	r2, #0
 8002e4c:	741a      	strb	r2, [r3, #16]
 8002e4e:	230f      	movs	r3, #15
 8002e50:	18fb      	adds	r3, r7, r3
 8002e52:	781b      	ldrb	r3, [r3, #0]
 8002e54:	0018      	movs	r0, r3
 8002e56:	46bd      	mov	sp, r7
 8002e58:	b004      	add	sp, #16
 8002e5a:	bdb0      	pop	{r4, r5, r7, pc}
 8002e5c:	2000038c 	.word	0x2000038c
 8002e60:	0000c350 	.word	0x0000c350
 8002e64:	40022000 	.word	0x40022000
 8002e68:	fffffdff 	.word	0xfffffdff

08002e6c <FLASH_PageErase>:
 8002e6c:	b580      	push	{r7, lr}
 8002e6e:	b082      	sub	sp, #8
 8002e70:	af00      	add	r7, sp, #0
 8002e72:	6078      	str	r0, [r7, #4]
 8002e74:	4b0c      	ldr	r3, [pc, #48]	; (8002ea8 <FLASH_PageErase+0x3c>)
 8002e76:	2200      	movs	r2, #0
 8002e78:	615a      	str	r2, [r3, #20]
 8002e7a:	4b0c      	ldr	r3, [pc, #48]	; (8002eac <FLASH_PageErase+0x40>)
 8002e7c:	685a      	ldr	r2, [r3, #4]
 8002e7e:	4b0b      	ldr	r3, [pc, #44]	; (8002eac <FLASH_PageErase+0x40>)
 8002e80:	2180      	movs	r1, #128	; 0x80
 8002e82:	0089      	lsls	r1, r1, #2
 8002e84:	430a      	orrs	r2, r1
 8002e86:	605a      	str	r2, [r3, #4]
 8002e88:	4b08      	ldr	r3, [pc, #32]	; (8002eac <FLASH_PageErase+0x40>)
 8002e8a:	685a      	ldr	r2, [r3, #4]
 8002e8c:	4b07      	ldr	r3, [pc, #28]	; (8002eac <FLASH_PageErase+0x40>)
 8002e8e:	2108      	movs	r1, #8
 8002e90:	430a      	orrs	r2, r1
 8002e92:	605a      	str	r2, [r3, #4]
 8002e94:	687b      	ldr	r3, [r7, #4]
 8002e96:	227f      	movs	r2, #127	; 0x7f
 8002e98:	4393      	bics	r3, r2
 8002e9a:	2200      	movs	r2, #0
 8002e9c:	601a      	str	r2, [r3, #0]
 8002e9e:	46c0      	nop			; (mov r8, r8)
 8002ea0:	46bd      	mov	sp, r7
 8002ea2:	b002      	add	sp, #8
 8002ea4:	bd80      	pop	{r7, pc}
 8002ea6:	46c0      	nop			; (mov r8, r8)
 8002ea8:	2000038c 	.word	0x2000038c
 8002eac:	40022000 	.word	0x40022000

08002eb0 <HAL_GPIO_Init>:
 8002eb0:	b580      	push	{r7, lr}
 8002eb2:	b086      	sub	sp, #24
 8002eb4:	af00      	add	r7, sp, #0
 8002eb6:	6078      	str	r0, [r7, #4]
 8002eb8:	6039      	str	r1, [r7, #0]
 8002eba:	2300      	movs	r3, #0
 8002ebc:	617b      	str	r3, [r7, #20]
 8002ebe:	2300      	movs	r3, #0
 8002ec0:	60fb      	str	r3, [r7, #12]
 8002ec2:	2300      	movs	r3, #0
 8002ec4:	613b      	str	r3, [r7, #16]
 8002ec6:	e155      	b.n	8003174 <HAL_GPIO_Init+0x2c4>
 8002ec8:	683b      	ldr	r3, [r7, #0]
 8002eca:	681b      	ldr	r3, [r3, #0]
 8002ecc:	2101      	movs	r1, #1
 8002ece:	697a      	ldr	r2, [r7, #20]
 8002ed0:	4091      	lsls	r1, r2
 8002ed2:	000a      	movs	r2, r1
 8002ed4:	4013      	ands	r3, r2
 8002ed6:	60fb      	str	r3, [r7, #12]
 8002ed8:	68fb      	ldr	r3, [r7, #12]
 8002eda:	2b00      	cmp	r3, #0
 8002edc:	d100      	bne.n	8002ee0 <HAL_GPIO_Init+0x30>
 8002ede:	e146      	b.n	800316e <HAL_GPIO_Init+0x2be>
 8002ee0:	683b      	ldr	r3, [r7, #0]
 8002ee2:	685b      	ldr	r3, [r3, #4]
 8002ee4:	2203      	movs	r2, #3
 8002ee6:	4013      	ands	r3, r2
 8002ee8:	2b01      	cmp	r3, #1
 8002eea:	d005      	beq.n	8002ef8 <HAL_GPIO_Init+0x48>
 8002eec:	683b      	ldr	r3, [r7, #0]
 8002eee:	685b      	ldr	r3, [r3, #4]
 8002ef0:	2203      	movs	r2, #3
 8002ef2:	4013      	ands	r3, r2
 8002ef4:	2b02      	cmp	r3, #2
 8002ef6:	d130      	bne.n	8002f5a <HAL_GPIO_Init+0xaa>
 8002ef8:	687b      	ldr	r3, [r7, #4]
 8002efa:	689b      	ldr	r3, [r3, #8]
 8002efc:	613b      	str	r3, [r7, #16]
 8002efe:	697b      	ldr	r3, [r7, #20]
 8002f00:	005b      	lsls	r3, r3, #1
 8002f02:	2203      	movs	r2, #3
 8002f04:	409a      	lsls	r2, r3
 8002f06:	0013      	movs	r3, r2
 8002f08:	43da      	mvns	r2, r3
 8002f0a:	693b      	ldr	r3, [r7, #16]
 8002f0c:	4013      	ands	r3, r2
 8002f0e:	613b      	str	r3, [r7, #16]
 8002f10:	683b      	ldr	r3, [r7, #0]
 8002f12:	68da      	ldr	r2, [r3, #12]
 8002f14:	697b      	ldr	r3, [r7, #20]
 8002f16:	005b      	lsls	r3, r3, #1
 8002f18:	409a      	lsls	r2, r3
 8002f1a:	0013      	movs	r3, r2
 8002f1c:	693a      	ldr	r2, [r7, #16]
 8002f1e:	4313      	orrs	r3, r2
 8002f20:	613b      	str	r3, [r7, #16]
 8002f22:	687b      	ldr	r3, [r7, #4]
 8002f24:	693a      	ldr	r2, [r7, #16]
 8002f26:	609a      	str	r2, [r3, #8]
 8002f28:	687b      	ldr	r3, [r7, #4]
 8002f2a:	685b      	ldr	r3, [r3, #4]
 8002f2c:	613b      	str	r3, [r7, #16]
 8002f2e:	2201      	movs	r2, #1
 8002f30:	697b      	ldr	r3, [r7, #20]
 8002f32:	409a      	lsls	r2, r3
 8002f34:	0013      	movs	r3, r2
 8002f36:	43da      	mvns	r2, r3
 8002f38:	693b      	ldr	r3, [r7, #16]
 8002f3a:	4013      	ands	r3, r2
 8002f3c:	613b      	str	r3, [r7, #16]
 8002f3e:	683b      	ldr	r3, [r7, #0]
 8002f40:	685b      	ldr	r3, [r3, #4]
 8002f42:	091b      	lsrs	r3, r3, #4
 8002f44:	2201      	movs	r2, #1
 8002f46:	401a      	ands	r2, r3
 8002f48:	697b      	ldr	r3, [r7, #20]
 8002f4a:	409a      	lsls	r2, r3
 8002f4c:	0013      	movs	r3, r2
 8002f4e:	693a      	ldr	r2, [r7, #16]
 8002f50:	4313      	orrs	r3, r2
 8002f52:	613b      	str	r3, [r7, #16]
 8002f54:	687b      	ldr	r3, [r7, #4]
 8002f56:	693a      	ldr	r2, [r7, #16]
 8002f58:	605a      	str	r2, [r3, #4]
 8002f5a:	683b      	ldr	r3, [r7, #0]
 8002f5c:	685b      	ldr	r3, [r3, #4]
 8002f5e:	2203      	movs	r2, #3
 8002f60:	4013      	ands	r3, r2
 8002f62:	2b03      	cmp	r3, #3
 8002f64:	d017      	beq.n	8002f96 <HAL_GPIO_Init+0xe6>
 8002f66:	687b      	ldr	r3, [r7, #4]
 8002f68:	68db      	ldr	r3, [r3, #12]
 8002f6a:	613b      	str	r3, [r7, #16]
 8002f6c:	697b      	ldr	r3, [r7, #20]
 8002f6e:	005b      	lsls	r3, r3, #1
 8002f70:	2203      	movs	r2, #3
 8002f72:	409a      	lsls	r2, r3
 8002f74:	0013      	movs	r3, r2
 8002f76:	43da      	mvns	r2, r3
 8002f78:	693b      	ldr	r3, [r7, #16]
 8002f7a:	4013      	ands	r3, r2
 8002f7c:	613b      	str	r3, [r7, #16]
 8002f7e:	683b      	ldr	r3, [r7, #0]
 8002f80:	689a      	ldr	r2, [r3, #8]
 8002f82:	697b      	ldr	r3, [r7, #20]
 8002f84:	005b      	lsls	r3, r3, #1
 8002f86:	409a      	lsls	r2, r3
 8002f88:	0013      	movs	r3, r2
 8002f8a:	693a      	ldr	r2, [r7, #16]
 8002f8c:	4313      	orrs	r3, r2
 8002f8e:	613b      	str	r3, [r7, #16]
 8002f90:	687b      	ldr	r3, [r7, #4]
 8002f92:	693a      	ldr	r2, [r7, #16]
 8002f94:	60da      	str	r2, [r3, #12]
 8002f96:	683b      	ldr	r3, [r7, #0]
 8002f98:	685b      	ldr	r3, [r3, #4]
 8002f9a:	2203      	movs	r2, #3
 8002f9c:	4013      	ands	r3, r2
 8002f9e:	2b02      	cmp	r3, #2
 8002fa0:	d123      	bne.n	8002fea <HAL_GPIO_Init+0x13a>
 8002fa2:	697b      	ldr	r3, [r7, #20]
 8002fa4:	08da      	lsrs	r2, r3, #3
 8002fa6:	687b      	ldr	r3, [r7, #4]
 8002fa8:	3208      	adds	r2, #8
 8002faa:	0092      	lsls	r2, r2, #2
 8002fac:	58d3      	ldr	r3, [r2, r3]
 8002fae:	613b      	str	r3, [r7, #16]
 8002fb0:	697b      	ldr	r3, [r7, #20]
 8002fb2:	2207      	movs	r2, #7
 8002fb4:	4013      	ands	r3, r2
 8002fb6:	009b      	lsls	r3, r3, #2
 8002fb8:	220f      	movs	r2, #15
 8002fba:	409a      	lsls	r2, r3
 8002fbc:	0013      	movs	r3, r2
 8002fbe:	43da      	mvns	r2, r3
 8002fc0:	693b      	ldr	r3, [r7, #16]
 8002fc2:	4013      	ands	r3, r2
 8002fc4:	613b      	str	r3, [r7, #16]
 8002fc6:	683b      	ldr	r3, [r7, #0]
 8002fc8:	691a      	ldr	r2, [r3, #16]
 8002fca:	697b      	ldr	r3, [r7, #20]
 8002fcc:	2107      	movs	r1, #7
 8002fce:	400b      	ands	r3, r1
 8002fd0:	009b      	lsls	r3, r3, #2
 8002fd2:	409a      	lsls	r2, r3
 8002fd4:	0013      	movs	r3, r2
 8002fd6:	693a      	ldr	r2, [r7, #16]
 8002fd8:	4313      	orrs	r3, r2
 8002fda:	613b      	str	r3, [r7, #16]
 8002fdc:	697b      	ldr	r3, [r7, #20]
 8002fde:	08da      	lsrs	r2, r3, #3
 8002fe0:	687b      	ldr	r3, [r7, #4]
 8002fe2:	3208      	adds	r2, #8
 8002fe4:	0092      	lsls	r2, r2, #2
 8002fe6:	6939      	ldr	r1, [r7, #16]
 8002fe8:	50d1      	str	r1, [r2, r3]
 8002fea:	687b      	ldr	r3, [r7, #4]
 8002fec:	681b      	ldr	r3, [r3, #0]
 8002fee:	613b      	str	r3, [r7, #16]
 8002ff0:	697b      	ldr	r3, [r7, #20]
 8002ff2:	005b      	lsls	r3, r3, #1
 8002ff4:	2203      	movs	r2, #3
 8002ff6:	409a      	lsls	r2, r3
 8002ff8:	0013      	movs	r3, r2
 8002ffa:	43da      	mvns	r2, r3
 8002ffc:	693b      	ldr	r3, [r7, #16]
 8002ffe:	4013      	ands	r3, r2
 8003000:	613b      	str	r3, [r7, #16]
 8003002:	683b      	ldr	r3, [r7, #0]
 8003004:	685b      	ldr	r3, [r3, #4]
 8003006:	2203      	movs	r2, #3
 8003008:	401a      	ands	r2, r3
 800300a:	697b      	ldr	r3, [r7, #20]
 800300c:	005b      	lsls	r3, r3, #1
 800300e:	409a      	lsls	r2, r3
 8003010:	0013      	movs	r3, r2
 8003012:	693a      	ldr	r2, [r7, #16]
 8003014:	4313      	orrs	r3, r2
 8003016:	613b      	str	r3, [r7, #16]
 8003018:	687b      	ldr	r3, [r7, #4]
 800301a:	693a      	ldr	r2, [r7, #16]
 800301c:	601a      	str	r2, [r3, #0]
 800301e:	683b      	ldr	r3, [r7, #0]
 8003020:	685a      	ldr	r2, [r3, #4]
 8003022:	23c0      	movs	r3, #192	; 0xc0
 8003024:	029b      	lsls	r3, r3, #10
 8003026:	4013      	ands	r3, r2
 8003028:	d100      	bne.n	800302c <HAL_GPIO_Init+0x17c>
 800302a:	e0a0      	b.n	800316e <HAL_GPIO_Init+0x2be>
 800302c:	4b57      	ldr	r3, [pc, #348]	; (800318c <HAL_GPIO_Init+0x2dc>)
 800302e:	6b5a      	ldr	r2, [r3, #52]	; 0x34
 8003030:	4b56      	ldr	r3, [pc, #344]	; (800318c <HAL_GPIO_Init+0x2dc>)
 8003032:	2101      	movs	r1, #1
 8003034:	430a      	orrs	r2, r1
 8003036:	635a      	str	r2, [r3, #52]	; 0x34
 8003038:	4a55      	ldr	r2, [pc, #340]	; (8003190 <HAL_GPIO_Init+0x2e0>)
 800303a:	697b      	ldr	r3, [r7, #20]
 800303c:	089b      	lsrs	r3, r3, #2
 800303e:	3302      	adds	r3, #2
 8003040:	009b      	lsls	r3, r3, #2
 8003042:	589b      	ldr	r3, [r3, r2]
 8003044:	613b      	str	r3, [r7, #16]
 8003046:	697b      	ldr	r3, [r7, #20]
 8003048:	2203      	movs	r2, #3
 800304a:	4013      	ands	r3, r2
 800304c:	009b      	lsls	r3, r3, #2
 800304e:	220f      	movs	r2, #15
 8003050:	409a      	lsls	r2, r3
 8003052:	0013      	movs	r3, r2
 8003054:	43da      	mvns	r2, r3
 8003056:	693b      	ldr	r3, [r7, #16]
 8003058:	4013      	ands	r3, r2
 800305a:	613b      	str	r3, [r7, #16]
 800305c:	687a      	ldr	r2, [r7, #4]
 800305e:	23a0      	movs	r3, #160	; 0xa0
 8003060:	05db      	lsls	r3, r3, #23
 8003062:	429a      	cmp	r2, r3
 8003064:	d01f      	beq.n	80030a6 <HAL_GPIO_Init+0x1f6>
 8003066:	687b      	ldr	r3, [r7, #4]
 8003068:	4a4a      	ldr	r2, [pc, #296]	; (8003194 <HAL_GPIO_Init+0x2e4>)
 800306a:	4293      	cmp	r3, r2
 800306c:	d019      	beq.n	80030a2 <HAL_GPIO_Init+0x1f2>
 800306e:	687b      	ldr	r3, [r7, #4]
 8003070:	4a49      	ldr	r2, [pc, #292]	; (8003198 <HAL_GPIO_Init+0x2e8>)
 8003072:	4293      	cmp	r3, r2
 8003074:	d013      	beq.n	800309e <HAL_GPIO_Init+0x1ee>
 8003076:	687b      	ldr	r3, [r7, #4]
 8003078:	4a48      	ldr	r2, [pc, #288]	; (800319c <HAL_GPIO_Init+0x2ec>)
 800307a:	4293      	cmp	r3, r2
 800307c:	d00d      	beq.n	800309a <HAL_GPIO_Init+0x1ea>
 800307e:	687b      	ldr	r3, [r7, #4]
 8003080:	4a47      	ldr	r2, [pc, #284]	; (80031a0 <HAL_GPIO_Init+0x2f0>)
 8003082:	4293      	cmp	r3, r2
 8003084:	d007      	beq.n	8003096 <HAL_GPIO_Init+0x1e6>
 8003086:	687b      	ldr	r3, [r7, #4]
 8003088:	4a46      	ldr	r2, [pc, #280]	; (80031a4 <HAL_GPIO_Init+0x2f4>)
 800308a:	4293      	cmp	r3, r2
 800308c:	d101      	bne.n	8003092 <HAL_GPIO_Init+0x1e2>
 800308e:	2305      	movs	r3, #5
 8003090:	e00a      	b.n	80030a8 <HAL_GPIO_Init+0x1f8>
 8003092:	2306      	movs	r3, #6
 8003094:	e008      	b.n	80030a8 <HAL_GPIO_Init+0x1f8>
 8003096:	2304      	movs	r3, #4
 8003098:	e006      	b.n	80030a8 <HAL_GPIO_Init+0x1f8>
 800309a:	2303      	movs	r3, #3
 800309c:	e004      	b.n	80030a8 <HAL_GPIO_Init+0x1f8>
 800309e:	2302      	movs	r3, #2
 80030a0:	e002      	b.n	80030a8 <HAL_GPIO_Init+0x1f8>
 80030a2:	2301      	movs	r3, #1
 80030a4:	e000      	b.n	80030a8 <HAL_GPIO_Init+0x1f8>
 80030a6:	2300      	movs	r3, #0
 80030a8:	697a      	ldr	r2, [r7, #20]
 80030aa:	2103      	movs	r1, #3
 80030ac:	400a      	ands	r2, r1
 80030ae:	0092      	lsls	r2, r2, #2
 80030b0:	4093      	lsls	r3, r2
 80030b2:	693a      	ldr	r2, [r7, #16]
 80030b4:	4313      	orrs	r3, r2
 80030b6:	613b      	str	r3, [r7, #16]
 80030b8:	4935      	ldr	r1, [pc, #212]	; (8003190 <HAL_GPIO_Init+0x2e0>)
 80030ba:	697b      	ldr	r3, [r7, #20]
 80030bc:	089b      	lsrs	r3, r3, #2
 80030be:	3302      	adds	r3, #2
 80030c0:	009b      	lsls	r3, r3, #2
 80030c2:	693a      	ldr	r2, [r7, #16]
 80030c4:	505a      	str	r2, [r3, r1]
 80030c6:	4b38      	ldr	r3, [pc, #224]	; (80031a8 <HAL_GPIO_Init+0x2f8>)
 80030c8:	689b      	ldr	r3, [r3, #8]
 80030ca:	613b      	str	r3, [r7, #16]
 80030cc:	68fb      	ldr	r3, [r7, #12]
 80030ce:	43da      	mvns	r2, r3
 80030d0:	693b      	ldr	r3, [r7, #16]
 80030d2:	4013      	ands	r3, r2
 80030d4:	613b      	str	r3, [r7, #16]
 80030d6:	683b      	ldr	r3, [r7, #0]
 80030d8:	685a      	ldr	r2, [r3, #4]
 80030da:	2380      	movs	r3, #128	; 0x80
 80030dc:	035b      	lsls	r3, r3, #13
 80030de:	4013      	ands	r3, r2
 80030e0:	d003      	beq.n	80030ea <HAL_GPIO_Init+0x23a>
 80030e2:	693a      	ldr	r2, [r7, #16]
 80030e4:	68fb      	ldr	r3, [r7, #12]
 80030e6:	4313      	orrs	r3, r2
 80030e8:	613b      	str	r3, [r7, #16]
 80030ea:	4b2f      	ldr	r3, [pc, #188]	; (80031a8 <HAL_GPIO_Init+0x2f8>)
 80030ec:	693a      	ldr	r2, [r7, #16]
 80030ee:	609a      	str	r2, [r3, #8]
 80030f0:	4b2d      	ldr	r3, [pc, #180]	; (80031a8 <HAL_GPIO_Init+0x2f8>)
 80030f2:	68db      	ldr	r3, [r3, #12]
 80030f4:	613b      	str	r3, [r7, #16]
 80030f6:	68fb      	ldr	r3, [r7, #12]
 80030f8:	43da      	mvns	r2, r3
 80030fa:	693b      	ldr	r3, [r7, #16]
 80030fc:	4013      	ands	r3, r2
 80030fe:	613b      	str	r3, [r7, #16]
 8003100:	683b      	ldr	r3, [r7, #0]
 8003102:	685a      	ldr	r2, [r3, #4]
 8003104:	2380      	movs	r3, #128	; 0x80
 8003106:	039b      	lsls	r3, r3, #14
 8003108:	4013      	ands	r3, r2
 800310a:	d003      	beq.n	8003114 <HAL_GPIO_Init+0x264>
 800310c:	693a      	ldr	r2, [r7, #16]
 800310e:	68fb      	ldr	r3, [r7, #12]
 8003110:	4313      	orrs	r3, r2
 8003112:	613b      	str	r3, [r7, #16]
 8003114:	4b24      	ldr	r3, [pc, #144]	; (80031a8 <HAL_GPIO_Init+0x2f8>)
 8003116:	693a      	ldr	r2, [r7, #16]
 8003118:	60da      	str	r2, [r3, #12]
 800311a:	4b23      	ldr	r3, [pc, #140]	; (80031a8 <HAL_GPIO_Init+0x2f8>)
 800311c:	685b      	ldr	r3, [r3, #4]
 800311e:	613b      	str	r3, [r7, #16]
 8003120:	68fb      	ldr	r3, [r7, #12]
 8003122:	43da      	mvns	r2, r3
 8003124:	693b      	ldr	r3, [r7, #16]
 8003126:	4013      	ands	r3, r2
 8003128:	613b      	str	r3, [r7, #16]
 800312a:	683b      	ldr	r3, [r7, #0]
 800312c:	685a      	ldr	r2, [r3, #4]
 800312e:	2380      	movs	r3, #128	; 0x80
 8003130:	029b      	lsls	r3, r3, #10
 8003132:	4013      	ands	r3, r2
 8003134:	d003      	beq.n	800313e <HAL_GPIO_Init+0x28e>
 8003136:	693a      	ldr	r2, [r7, #16]
 8003138:	68fb      	ldr	r3, [r7, #12]
 800313a:	4313      	orrs	r3, r2
 800313c:	613b      	str	r3, [r7, #16]
 800313e:	4b1a      	ldr	r3, [pc, #104]	; (80031a8 <HAL_GPIO_Init+0x2f8>)
 8003140:	693a      	ldr	r2, [r7, #16]
 8003142:	605a      	str	r2, [r3, #4]
 8003144:	4b18      	ldr	r3, [pc, #96]	; (80031a8 <HAL_GPIO_Init+0x2f8>)
 8003146:	681b      	ldr	r3, [r3, #0]
 8003148:	613b      	str	r3, [r7, #16]
 800314a:	68fb      	ldr	r3, [r7, #12]
 800314c:	43da      	mvns	r2, r3
 800314e:	693b      	ldr	r3, [r7, #16]
 8003150:	4013      	ands	r3, r2
 8003152:	613b      	str	r3, [r7, #16]
 8003154:	683b      	ldr	r3, [r7, #0]
 8003156:	685a      	ldr	r2, [r3, #4]
 8003158:	2380      	movs	r3, #128	; 0x80
 800315a:	025b      	lsls	r3, r3, #9
 800315c:	4013      	ands	r3, r2
 800315e:	d003      	beq.n	8003168 <HAL_GPIO_Init+0x2b8>
 8003160:	693a      	ldr	r2, [r7, #16]
 8003162:	68fb      	ldr	r3, [r7, #12]
 8003164:	4313      	orrs	r3, r2
 8003166:	613b      	str	r3, [r7, #16]
 8003168:	4b0f      	ldr	r3, [pc, #60]	; (80031a8 <HAL_GPIO_Init+0x2f8>)
 800316a:	693a      	ldr	r2, [r7, #16]
 800316c:	601a      	str	r2, [r3, #0]
 800316e:	697b      	ldr	r3, [r7, #20]
 8003170:	3301      	adds	r3, #1
 8003172:	617b      	str	r3, [r7, #20]
 8003174:	683b      	ldr	r3, [r7, #0]
 8003176:	681a      	ldr	r2, [r3, #0]
 8003178:	697b      	ldr	r3, [r7, #20]
 800317a:	40da      	lsrs	r2, r3
 800317c:	1e13      	subs	r3, r2, #0
 800317e:	d000      	beq.n	8003182 <HAL_GPIO_Init+0x2d2>
 8003180:	e6a2      	b.n	8002ec8 <HAL_GPIO_Init+0x18>
 8003182:	46c0      	nop			; (mov r8, r8)
 8003184:	46c0      	nop			; (mov r8, r8)
 8003186:	46bd      	mov	sp, r7
 8003188:	b006      	add	sp, #24
 800318a:	bd80      	pop	{r7, pc}
 800318c:	40021000 	.word	0x40021000
 8003190:	40010000 	.word	0x40010000
 8003194:	50000400 	.word	0x50000400
 8003198:	50000800 	.word	0x50000800
 800319c:	50000c00 	.word	0x50000c00
 80031a0:	50001000 	.word	0x50001000
 80031a4:	50001c00 	.word	0x50001c00
 80031a8:	40010400 	.word	0x40010400

080031ac <HAL_GPIO_EXTI_IRQHandler>:
 80031ac:	b580      	push	{r7, lr}
 80031ae:	b082      	sub	sp, #8
 80031b0:	af00      	add	r7, sp, #0
 80031b2:	0002      	movs	r2, r0
 80031b4:	1dbb      	adds	r3, r7, #6
 80031b6:	801a      	strh	r2, [r3, #0]
 80031b8:	4b09      	ldr	r3, [pc, #36]	; (80031e0 <HAL_GPIO_EXTI_IRQHandler+0x34>)
 80031ba:	695b      	ldr	r3, [r3, #20]
 80031bc:	1dba      	adds	r2, r7, #6
 80031be:	8812      	ldrh	r2, [r2, #0]
 80031c0:	4013      	ands	r3, r2
 80031c2:	d008      	beq.n	80031d6 <HAL_GPIO_EXTI_IRQHandler+0x2a>
 80031c4:	4b06      	ldr	r3, [pc, #24]	; (80031e0 <HAL_GPIO_EXTI_IRQHandler+0x34>)
 80031c6:	1dba      	adds	r2, r7, #6
 80031c8:	8812      	ldrh	r2, [r2, #0]
 80031ca:	615a      	str	r2, [r3, #20]
 80031cc:	1dbb      	adds	r3, r7, #6
 80031ce:	881b      	ldrh	r3, [r3, #0]
 80031d0:	0018      	movs	r0, r3
 80031d2:	f7fe f841 	bl	8001258 <HAL_GPIO_EXTI_Callback>
 80031d6:	46c0      	nop			; (mov r8, r8)
 80031d8:	46bd      	mov	sp, r7
 80031da:	b002      	add	sp, #8
 80031dc:	bd80      	pop	{r7, pc}
 80031de:	46c0      	nop			; (mov r8, r8)
 80031e0:	40010400 	.word	0x40010400

080031e4 <HAL_PWR_ConfigPVD>:
 80031e4:	b580      	push	{r7, lr}
 80031e6:	b082      	sub	sp, #8
 80031e8:	af00      	add	r7, sp, #0
 80031ea:	6078      	str	r0, [r7, #4]
 80031ec:	4b2b      	ldr	r3, [pc, #172]	; (800329c <HAL_PWR_ConfigPVD+0xb8>)
 80031ee:	681b      	ldr	r3, [r3, #0]
 80031f0:	22e0      	movs	r2, #224	; 0xe0
 80031f2:	4393      	bics	r3, r2
 80031f4:	0019      	movs	r1, r3
 80031f6:	687b      	ldr	r3, [r7, #4]
 80031f8:	681a      	ldr	r2, [r3, #0]
 80031fa:	4b28      	ldr	r3, [pc, #160]	; (800329c <HAL_PWR_ConfigPVD+0xb8>)
 80031fc:	430a      	orrs	r2, r1
 80031fe:	601a      	str	r2, [r3, #0]
 8003200:	4b27      	ldr	r3, [pc, #156]	; (80032a0 <HAL_PWR_ConfigPVD+0xbc>)
 8003202:	685a      	ldr	r2, [r3, #4]
 8003204:	4b26      	ldr	r3, [pc, #152]	; (80032a0 <HAL_PWR_ConfigPVD+0xbc>)
 8003206:	4927      	ldr	r1, [pc, #156]	; (80032a4 <HAL_PWR_ConfigPVD+0xc0>)
 8003208:	400a      	ands	r2, r1
 800320a:	605a      	str	r2, [r3, #4]
 800320c:	4b24      	ldr	r3, [pc, #144]	; (80032a0 <HAL_PWR_ConfigPVD+0xbc>)
 800320e:	681a      	ldr	r2, [r3, #0]
 8003210:	4b23      	ldr	r3, [pc, #140]	; (80032a0 <HAL_PWR_ConfigPVD+0xbc>)
 8003212:	4924      	ldr	r1, [pc, #144]	; (80032a4 <HAL_PWR_ConfigPVD+0xc0>)
 8003214:	400a      	ands	r2, r1
 8003216:	601a      	str	r2, [r3, #0]
 8003218:	4b21      	ldr	r3, [pc, #132]	; (80032a0 <HAL_PWR_ConfigPVD+0xbc>)
 800321a:	68da      	ldr	r2, [r3, #12]
 800321c:	4b20      	ldr	r3, [pc, #128]	; (80032a0 <HAL_PWR_ConfigPVD+0xbc>)
 800321e:	4921      	ldr	r1, [pc, #132]	; (80032a4 <HAL_PWR_ConfigPVD+0xc0>)
 8003220:	400a      	ands	r2, r1
 8003222:	60da      	str	r2, [r3, #12]
 8003224:	4b1e      	ldr	r3, [pc, #120]	; (80032a0 <HAL_PWR_ConfigPVD+0xbc>)
 8003226:	689a      	ldr	r2, [r3, #8]
 8003228:	4b1d      	ldr	r3, [pc, #116]	; (80032a0 <HAL_PWR_ConfigPVD+0xbc>)
 800322a:	491e      	ldr	r1, [pc, #120]	; (80032a4 <HAL_PWR_ConfigPVD+0xc0>)
 800322c:	400a      	ands	r2, r1
 800322e:	609a      	str	r2, [r3, #8]
 8003230:	687b      	ldr	r3, [r7, #4]
 8003232:	685a      	ldr	r2, [r3, #4]
 8003234:	2380      	movs	r3, #128	; 0x80
 8003236:	025b      	lsls	r3, r3, #9
 8003238:	4013      	ands	r3, r2
 800323a:	d006      	beq.n	800324a <HAL_PWR_ConfigPVD+0x66>
 800323c:	4b18      	ldr	r3, [pc, #96]	; (80032a0 <HAL_PWR_ConfigPVD+0xbc>)
 800323e:	681a      	ldr	r2, [r3, #0]
 8003240:	4b17      	ldr	r3, [pc, #92]	; (80032a0 <HAL_PWR_ConfigPVD+0xbc>)
 8003242:	2180      	movs	r1, #128	; 0x80
 8003244:	0249      	lsls	r1, r1, #9
 8003246:	430a      	orrs	r2, r1
 8003248:	601a      	str	r2, [r3, #0]
 800324a:	687b      	ldr	r3, [r7, #4]
 800324c:	685a      	ldr	r2, [r3, #4]
 800324e:	2380      	movs	r3, #128	; 0x80
 8003250:	029b      	lsls	r3, r3, #10
 8003252:	4013      	ands	r3, r2
 8003254:	d006      	beq.n	8003264 <HAL_PWR_ConfigPVD+0x80>
 8003256:	4b12      	ldr	r3, [pc, #72]	; (80032a0 <HAL_PWR_ConfigPVD+0xbc>)
 8003258:	685a      	ldr	r2, [r3, #4]
 800325a:	4b11      	ldr	r3, [pc, #68]	; (80032a0 <HAL_PWR_ConfigPVD+0xbc>)
 800325c:	2180      	movs	r1, #128	; 0x80
 800325e:	0249      	lsls	r1, r1, #9
 8003260:	430a      	orrs	r2, r1
 8003262:	605a      	str	r2, [r3, #4]
 8003264:	687b      	ldr	r3, [r7, #4]
 8003266:	685b      	ldr	r3, [r3, #4]
 8003268:	2201      	movs	r2, #1
 800326a:	4013      	ands	r3, r2
 800326c:	d006      	beq.n	800327c <HAL_PWR_ConfigPVD+0x98>
 800326e:	4b0c      	ldr	r3, [pc, #48]	; (80032a0 <HAL_PWR_ConfigPVD+0xbc>)
 8003270:	689a      	ldr	r2, [r3, #8]
 8003272:	4b0b      	ldr	r3, [pc, #44]	; (80032a0 <HAL_PWR_ConfigPVD+0xbc>)
 8003274:	2180      	movs	r1, #128	; 0x80
 8003276:	0249      	lsls	r1, r1, #9
 8003278:	430a      	orrs	r2, r1
 800327a:	609a      	str	r2, [r3, #8]
 800327c:	687b      	ldr	r3, [r7, #4]
 800327e:	685b      	ldr	r3, [r3, #4]
 8003280:	2202      	movs	r2, #2
 8003282:	4013      	ands	r3, r2
 8003284:	d006      	beq.n	8003294 <HAL_PWR_ConfigPVD+0xb0>
 8003286:	4b06      	ldr	r3, [pc, #24]	; (80032a0 <HAL_PWR_ConfigPVD+0xbc>)
 8003288:	68da      	ldr	r2, [r3, #12]
 800328a:	4b05      	ldr	r3, [pc, #20]	; (80032a0 <HAL_PWR_ConfigPVD+0xbc>)
 800328c:	2180      	movs	r1, #128	; 0x80
 800328e:	0249      	lsls	r1, r1, #9
 8003290:	430a      	orrs	r2, r1
 8003292:	60da      	str	r2, [r3, #12]
 8003294:	46c0      	nop			; (mov r8, r8)
 8003296:	46bd      	mov	sp, r7
 8003298:	b002      	add	sp, #8
 800329a:	bd80      	pop	{r7, pc}
 800329c:	40007000 	.word	0x40007000
 80032a0:	40010400 	.word	0x40010400
 80032a4:	fffeffff 	.word	0xfffeffff

080032a8 <HAL_PWR_EnablePVD>:
 80032a8:	b580      	push	{r7, lr}
 80032aa:	af00      	add	r7, sp, #0
 80032ac:	4b04      	ldr	r3, [pc, #16]	; (80032c0 <HAL_PWR_EnablePVD+0x18>)
 80032ae:	681a      	ldr	r2, [r3, #0]
 80032b0:	4b03      	ldr	r3, [pc, #12]	; (80032c0 <HAL_PWR_EnablePVD+0x18>)
 80032b2:	2110      	movs	r1, #16
 80032b4:	430a      	orrs	r2, r1
 80032b6:	601a      	str	r2, [r3, #0]
 80032b8:	46c0      	nop			; (mov r8, r8)
 80032ba:	46bd      	mov	sp, r7
 80032bc:	bd80      	pop	{r7, pc}
 80032be:	46c0      	nop			; (mov r8, r8)
 80032c0:	40007000 	.word	0x40007000

080032c4 <HAL_PWR_PVD_IRQHandler>:
 80032c4:	b580      	push	{r7, lr}
 80032c6:	af00      	add	r7, sp, #0
 80032c8:	4b07      	ldr	r3, [pc, #28]	; (80032e8 <HAL_PWR_PVD_IRQHandler+0x24>)
 80032ca:	695a      	ldr	r2, [r3, #20]
 80032cc:	2380      	movs	r3, #128	; 0x80
 80032ce:	025b      	lsls	r3, r3, #9
 80032d0:	4013      	ands	r3, r2
 80032d2:	d005      	beq.n	80032e0 <HAL_PWR_PVD_IRQHandler+0x1c>
 80032d4:	f7fd ff90 	bl	80011f8 <HAL_PWR_PVDCallback>
 80032d8:	4b03      	ldr	r3, [pc, #12]	; (80032e8 <HAL_PWR_PVD_IRQHandler+0x24>)
 80032da:	2280      	movs	r2, #128	; 0x80
 80032dc:	0252      	lsls	r2, r2, #9
 80032de:	615a      	str	r2, [r3, #20]
 80032e0:	46c0      	nop			; (mov r8, r8)
 80032e2:	46bd      	mov	sp, r7
 80032e4:	bd80      	pop	{r7, pc}
 80032e6:	46c0      	nop			; (mov r8, r8)
 80032e8:	40010400 	.word	0x40010400

080032ec <HAL_RCC_OscConfig>:
 80032ec:	b5b0      	push	{r4, r5, r7, lr}
 80032ee:	b08a      	sub	sp, #40	; 0x28
 80032f0:	af00      	add	r7, sp, #0
 80032f2:	6078      	str	r0, [r7, #4]
 80032f4:	687b      	ldr	r3, [r7, #4]
 80032f6:	2b00      	cmp	r3, #0
 80032f8:	d102      	bne.n	8003300 <HAL_RCC_OscConfig+0x14>
 80032fa:	2301      	movs	r3, #1
 80032fc:	f000 fbbf 	bl	8003a7e <HAL_RCC_OscConfig+0x792>
 8003300:	4bc9      	ldr	r3, [pc, #804]	; (8003628 <HAL_RCC_OscConfig+0x33c>)
 8003302:	68db      	ldr	r3, [r3, #12]
 8003304:	220c      	movs	r2, #12
 8003306:	4013      	ands	r3, r2
 8003308:	61fb      	str	r3, [r7, #28]
 800330a:	4bc7      	ldr	r3, [pc, #796]	; (8003628 <HAL_RCC_OscConfig+0x33c>)
 800330c:	68da      	ldr	r2, [r3, #12]
 800330e:	2380      	movs	r3, #128	; 0x80
 8003310:	025b      	lsls	r3, r3, #9
 8003312:	4013      	ands	r3, r2
 8003314:	61bb      	str	r3, [r7, #24]
 8003316:	687b      	ldr	r3, [r7, #4]
 8003318:	681b      	ldr	r3, [r3, #0]
 800331a:	2201      	movs	r2, #1
 800331c:	4013      	ands	r3, r2
 800331e:	d100      	bne.n	8003322 <HAL_RCC_OscConfig+0x36>
 8003320:	e07e      	b.n	8003420 <HAL_RCC_OscConfig+0x134>
 8003322:	69fb      	ldr	r3, [r7, #28]
 8003324:	2b08      	cmp	r3, #8
 8003326:	d007      	beq.n	8003338 <HAL_RCC_OscConfig+0x4c>
 8003328:	69fb      	ldr	r3, [r7, #28]
 800332a:	2b0c      	cmp	r3, #12
 800332c:	d112      	bne.n	8003354 <HAL_RCC_OscConfig+0x68>
 800332e:	69ba      	ldr	r2, [r7, #24]
 8003330:	2380      	movs	r3, #128	; 0x80
 8003332:	025b      	lsls	r3, r3, #9
 8003334:	429a      	cmp	r2, r3
 8003336:	d10d      	bne.n	8003354 <HAL_RCC_OscConfig+0x68>
 8003338:	4bbb      	ldr	r3, [pc, #748]	; (8003628 <HAL_RCC_OscConfig+0x33c>)
 800333a:	681a      	ldr	r2, [r3, #0]
 800333c:	2380      	movs	r3, #128	; 0x80
 800333e:	029b      	lsls	r3, r3, #10
 8003340:	4013      	ands	r3, r2
 8003342:	d100      	bne.n	8003346 <HAL_RCC_OscConfig+0x5a>
 8003344:	e06b      	b.n	800341e <HAL_RCC_OscConfig+0x132>
 8003346:	687b      	ldr	r3, [r7, #4]
 8003348:	685b      	ldr	r3, [r3, #4]
 800334a:	2b00      	cmp	r3, #0
 800334c:	d167      	bne.n	800341e <HAL_RCC_OscConfig+0x132>
 800334e:	2301      	movs	r3, #1
 8003350:	f000 fb95 	bl	8003a7e <HAL_RCC_OscConfig+0x792>
 8003354:	687b      	ldr	r3, [r7, #4]
 8003356:	685a      	ldr	r2, [r3, #4]
 8003358:	2380      	movs	r3, #128	; 0x80
 800335a:	025b      	lsls	r3, r3, #9
 800335c:	429a      	cmp	r2, r3
 800335e:	d107      	bne.n	8003370 <HAL_RCC_OscConfig+0x84>
 8003360:	4bb1      	ldr	r3, [pc, #708]	; (8003628 <HAL_RCC_OscConfig+0x33c>)
 8003362:	681a      	ldr	r2, [r3, #0]
 8003364:	4bb0      	ldr	r3, [pc, #704]	; (8003628 <HAL_RCC_OscConfig+0x33c>)
 8003366:	2180      	movs	r1, #128	; 0x80
 8003368:	0249      	lsls	r1, r1, #9
 800336a:	430a      	orrs	r2, r1
 800336c:	601a      	str	r2, [r3, #0]
 800336e:	e027      	b.n	80033c0 <HAL_RCC_OscConfig+0xd4>
 8003370:	687b      	ldr	r3, [r7, #4]
 8003372:	685a      	ldr	r2, [r3, #4]
 8003374:	23a0      	movs	r3, #160	; 0xa0
 8003376:	02db      	lsls	r3, r3, #11
 8003378:	429a      	cmp	r2, r3
 800337a:	d10e      	bne.n	800339a <HAL_RCC_OscConfig+0xae>
 800337c:	4baa      	ldr	r3, [pc, #680]	; (8003628 <HAL_RCC_OscConfig+0x33c>)
 800337e:	681a      	ldr	r2, [r3, #0]
 8003380:	4ba9      	ldr	r3, [pc, #676]	; (8003628 <HAL_RCC_OscConfig+0x33c>)
 8003382:	2180      	movs	r1, #128	; 0x80
 8003384:	02c9      	lsls	r1, r1, #11
 8003386:	430a      	orrs	r2, r1
 8003388:	601a      	str	r2, [r3, #0]
 800338a:	4ba7      	ldr	r3, [pc, #668]	; (8003628 <HAL_RCC_OscConfig+0x33c>)
 800338c:	681a      	ldr	r2, [r3, #0]
 800338e:	4ba6      	ldr	r3, [pc, #664]	; (8003628 <HAL_RCC_OscConfig+0x33c>)
 8003390:	2180      	movs	r1, #128	; 0x80
 8003392:	0249      	lsls	r1, r1, #9
 8003394:	430a      	orrs	r2, r1
 8003396:	601a      	str	r2, [r3, #0]
 8003398:	e012      	b.n	80033c0 <HAL_RCC_OscConfig+0xd4>
 800339a:	4ba3      	ldr	r3, [pc, #652]	; (8003628 <HAL_RCC_OscConfig+0x33c>)
 800339c:	681a      	ldr	r2, [r3, #0]
 800339e:	4ba2      	ldr	r3, [pc, #648]	; (8003628 <HAL_RCC_OscConfig+0x33c>)
 80033a0:	49a2      	ldr	r1, [pc, #648]	; (800362c <HAL_RCC_OscConfig+0x340>)
 80033a2:	400a      	ands	r2, r1
 80033a4:	601a      	str	r2, [r3, #0]
 80033a6:	4ba0      	ldr	r3, [pc, #640]	; (8003628 <HAL_RCC_OscConfig+0x33c>)
 80033a8:	681a      	ldr	r2, [r3, #0]
 80033aa:	2380      	movs	r3, #128	; 0x80
 80033ac:	025b      	lsls	r3, r3, #9
 80033ae:	4013      	ands	r3, r2
 80033b0:	60fb      	str	r3, [r7, #12]
 80033b2:	68fb      	ldr	r3, [r7, #12]
 80033b4:	4b9c      	ldr	r3, [pc, #624]	; (8003628 <HAL_RCC_OscConfig+0x33c>)
 80033b6:	681a      	ldr	r2, [r3, #0]
 80033b8:	4b9b      	ldr	r3, [pc, #620]	; (8003628 <HAL_RCC_OscConfig+0x33c>)
 80033ba:	499d      	ldr	r1, [pc, #628]	; (8003630 <HAL_RCC_OscConfig+0x344>)
 80033bc:	400a      	ands	r2, r1
 80033be:	601a      	str	r2, [r3, #0]
 80033c0:	687b      	ldr	r3, [r7, #4]
 80033c2:	685b      	ldr	r3, [r3, #4]
 80033c4:	2b00      	cmp	r3, #0
 80033c6:	d015      	beq.n	80033f4 <HAL_RCC_OscConfig+0x108>
 80033c8:	f7ff f9a4 	bl	8002714 <HAL_GetTick>
 80033cc:	0003      	movs	r3, r0
 80033ce:	617b      	str	r3, [r7, #20]
 80033d0:	e009      	b.n	80033e6 <HAL_RCC_OscConfig+0xfa>
 80033d2:	f7ff f99f 	bl	8002714 <HAL_GetTick>
 80033d6:	0002      	movs	r2, r0
 80033d8:	697b      	ldr	r3, [r7, #20]
 80033da:	1ad3      	subs	r3, r2, r3
 80033dc:	2b64      	cmp	r3, #100	; 0x64
 80033de:	d902      	bls.n	80033e6 <HAL_RCC_OscConfig+0xfa>
 80033e0:	2303      	movs	r3, #3
 80033e2:	f000 fb4c 	bl	8003a7e <HAL_RCC_OscConfig+0x792>
 80033e6:	4b90      	ldr	r3, [pc, #576]	; (8003628 <HAL_RCC_OscConfig+0x33c>)
 80033e8:	681a      	ldr	r2, [r3, #0]
 80033ea:	2380      	movs	r3, #128	; 0x80
 80033ec:	029b      	lsls	r3, r3, #10
 80033ee:	4013      	ands	r3, r2
 80033f0:	d0ef      	beq.n	80033d2 <HAL_RCC_OscConfig+0xe6>
 80033f2:	e015      	b.n	8003420 <HAL_RCC_OscConfig+0x134>
 80033f4:	f7ff f98e 	bl	8002714 <HAL_GetTick>
 80033f8:	0003      	movs	r3, r0
 80033fa:	617b      	str	r3, [r7, #20]
 80033fc:	e008      	b.n	8003410 <HAL_RCC_OscConfig+0x124>
 80033fe:	f7ff f989 	bl	8002714 <HAL_GetTick>
 8003402:	0002      	movs	r2, r0
 8003404:	697b      	ldr	r3, [r7, #20]
 8003406:	1ad3      	subs	r3, r2, r3
 8003408:	2b64      	cmp	r3, #100	; 0x64
 800340a:	d901      	bls.n	8003410 <HAL_RCC_OscConfig+0x124>
 800340c:	2303      	movs	r3, #3
 800340e:	e336      	b.n	8003a7e <HAL_RCC_OscConfig+0x792>
 8003410:	4b85      	ldr	r3, [pc, #532]	; (8003628 <HAL_RCC_OscConfig+0x33c>)
 8003412:	681a      	ldr	r2, [r3, #0]
 8003414:	2380      	movs	r3, #128	; 0x80
 8003416:	029b      	lsls	r3, r3, #10
 8003418:	4013      	ands	r3, r2
 800341a:	d1f0      	bne.n	80033fe <HAL_RCC_OscConfig+0x112>
 800341c:	e000      	b.n	8003420 <HAL_RCC_OscConfig+0x134>
 800341e:	46c0      	nop			; (mov r8, r8)
 8003420:	687b      	ldr	r3, [r7, #4]
 8003422:	681b      	ldr	r3, [r3, #0]
 8003424:	2202      	movs	r2, #2
 8003426:	4013      	ands	r3, r2
 8003428:	d100      	bne.n	800342c <HAL_RCC_OscConfig+0x140>
 800342a:	e099      	b.n	8003560 <HAL_RCC_OscConfig+0x274>
 800342c:	687b      	ldr	r3, [r7, #4]
 800342e:	68db      	ldr	r3, [r3, #12]
 8003430:	627b      	str	r3, [r7, #36]	; 0x24
 8003432:	6a7b      	ldr	r3, [r7, #36]	; 0x24
 8003434:	2220      	movs	r2, #32
 8003436:	4013      	ands	r3, r2
 8003438:	d009      	beq.n	800344e <HAL_RCC_OscConfig+0x162>
 800343a:	4b7b      	ldr	r3, [pc, #492]	; (8003628 <HAL_RCC_OscConfig+0x33c>)
 800343c:	681a      	ldr	r2, [r3, #0]
 800343e:	4b7a      	ldr	r3, [pc, #488]	; (8003628 <HAL_RCC_OscConfig+0x33c>)
 8003440:	2120      	movs	r1, #32
 8003442:	430a      	orrs	r2, r1
 8003444:	601a      	str	r2, [r3, #0]
 8003446:	6a7b      	ldr	r3, [r7, #36]	; 0x24
 8003448:	2220      	movs	r2, #32
 800344a:	4393      	bics	r3, r2
 800344c:	627b      	str	r3, [r7, #36]	; 0x24
 800344e:	69fb      	ldr	r3, [r7, #28]
 8003450:	2b04      	cmp	r3, #4
 8003452:	d005      	beq.n	8003460 <HAL_RCC_OscConfig+0x174>
 8003454:	69fb      	ldr	r3, [r7, #28]
 8003456:	2b0c      	cmp	r3, #12
 8003458:	d13e      	bne.n	80034d8 <HAL_RCC_OscConfig+0x1ec>
 800345a:	69bb      	ldr	r3, [r7, #24]
 800345c:	2b00      	cmp	r3, #0
 800345e:	d13b      	bne.n	80034d8 <HAL_RCC_OscConfig+0x1ec>
 8003460:	4b71      	ldr	r3, [pc, #452]	; (8003628 <HAL_RCC_OscConfig+0x33c>)
 8003462:	681b      	ldr	r3, [r3, #0]
 8003464:	2204      	movs	r2, #4
 8003466:	4013      	ands	r3, r2
 8003468:	d004      	beq.n	8003474 <HAL_RCC_OscConfig+0x188>
 800346a:	6a7b      	ldr	r3, [r7, #36]	; 0x24
 800346c:	2b00      	cmp	r3, #0
 800346e:	d101      	bne.n	8003474 <HAL_RCC_OscConfig+0x188>
 8003470:	2301      	movs	r3, #1
 8003472:	e304      	b.n	8003a7e <HAL_RCC_OscConfig+0x792>
 8003474:	4b6c      	ldr	r3, [pc, #432]	; (8003628 <HAL_RCC_OscConfig+0x33c>)
 8003476:	685b      	ldr	r3, [r3, #4]
 8003478:	4a6e      	ldr	r2, [pc, #440]	; (8003634 <HAL_RCC_OscConfig+0x348>)
 800347a:	4013      	ands	r3, r2
 800347c:	0019      	movs	r1, r3
 800347e:	687b      	ldr	r3, [r7, #4]
 8003480:	691b      	ldr	r3, [r3, #16]
 8003482:	021a      	lsls	r2, r3, #8
 8003484:	4b68      	ldr	r3, [pc, #416]	; (8003628 <HAL_RCC_OscConfig+0x33c>)
 8003486:	430a      	orrs	r2, r1
 8003488:	605a      	str	r2, [r3, #4]
 800348a:	4b67      	ldr	r3, [pc, #412]	; (8003628 <HAL_RCC_OscConfig+0x33c>)
 800348c:	681b      	ldr	r3, [r3, #0]
 800348e:	2209      	movs	r2, #9
 8003490:	4393      	bics	r3, r2
 8003492:	0019      	movs	r1, r3
 8003494:	4b64      	ldr	r3, [pc, #400]	; (8003628 <HAL_RCC_OscConfig+0x33c>)
 8003496:	6a7a      	ldr	r2, [r7, #36]	; 0x24
 8003498:	430a      	orrs	r2, r1
 800349a:	601a      	str	r2, [r3, #0]
 800349c:	f000 fc42 	bl	8003d24 <HAL_RCC_GetSysClockFreq>
 80034a0:	0001      	movs	r1, r0
 80034a2:	4b61      	ldr	r3, [pc, #388]	; (8003628 <HAL_RCC_OscConfig+0x33c>)
 80034a4:	68db      	ldr	r3, [r3, #12]
 80034a6:	091b      	lsrs	r3, r3, #4
 80034a8:	220f      	movs	r2, #15
 80034aa:	4013      	ands	r3, r2
 80034ac:	4a62      	ldr	r2, [pc, #392]	; (8003638 <HAL_RCC_OscConfig+0x34c>)
 80034ae:	5cd3      	ldrb	r3, [r2, r3]
 80034b0:	000a      	movs	r2, r1
 80034b2:	40da      	lsrs	r2, r3
 80034b4:	4b61      	ldr	r3, [pc, #388]	; (800363c <HAL_RCC_OscConfig+0x350>)
 80034b6:	601a      	str	r2, [r3, #0]
 80034b8:	4b61      	ldr	r3, [pc, #388]	; (8003640 <HAL_RCC_OscConfig+0x354>)
 80034ba:	681b      	ldr	r3, [r3, #0]
 80034bc:	2513      	movs	r5, #19
 80034be:	197c      	adds	r4, r7, r5
 80034c0:	0018      	movs	r0, r3
 80034c2:	f7ff f8e1 	bl	8002688 <HAL_InitTick>
 80034c6:	0003      	movs	r3, r0
 80034c8:	7023      	strb	r3, [r4, #0]
 80034ca:	197b      	adds	r3, r7, r5
 80034cc:	781b      	ldrb	r3, [r3, #0]
 80034ce:	2b00      	cmp	r3, #0
 80034d0:	d046      	beq.n	8003560 <HAL_RCC_OscConfig+0x274>
 80034d2:	197b      	adds	r3, r7, r5
 80034d4:	781b      	ldrb	r3, [r3, #0]
 80034d6:	e2d2      	b.n	8003a7e <HAL_RCC_OscConfig+0x792>
 80034d8:	6a7b      	ldr	r3, [r7, #36]	; 0x24
 80034da:	2b00      	cmp	r3, #0
 80034dc:	d027      	beq.n	800352e <HAL_RCC_OscConfig+0x242>
 80034de:	4b52      	ldr	r3, [pc, #328]	; (8003628 <HAL_RCC_OscConfig+0x33c>)
 80034e0:	681b      	ldr	r3, [r3, #0]
 80034e2:	2209      	movs	r2, #9
 80034e4:	4393      	bics	r3, r2
 80034e6:	0019      	movs	r1, r3
 80034e8:	4b4f      	ldr	r3, [pc, #316]	; (8003628 <HAL_RCC_OscConfig+0x33c>)
 80034ea:	6a7a      	ldr	r2, [r7, #36]	; 0x24
 80034ec:	430a      	orrs	r2, r1
 80034ee:	601a      	str	r2, [r3, #0]
 80034f0:	f7ff f910 	bl	8002714 <HAL_GetTick>
 80034f4:	0003      	movs	r3, r0
 80034f6:	617b      	str	r3, [r7, #20]
 80034f8:	e008      	b.n	800350c <HAL_RCC_OscConfig+0x220>
 80034fa:	f7ff f90b 	bl	8002714 <HAL_GetTick>
 80034fe:	0002      	movs	r2, r0
 8003500:	697b      	ldr	r3, [r7, #20]
 8003502:	1ad3      	subs	r3, r2, r3
 8003504:	2b02      	cmp	r3, #2
 8003506:	d901      	bls.n	800350c <HAL_RCC_OscConfig+0x220>
 8003508:	2303      	movs	r3, #3
 800350a:	e2b8      	b.n	8003a7e <HAL_RCC_OscConfig+0x792>
 800350c:	4b46      	ldr	r3, [pc, #280]	; (8003628 <HAL_RCC_OscConfig+0x33c>)
 800350e:	681b      	ldr	r3, [r3, #0]
 8003510:	2204      	movs	r2, #4
 8003512:	4013      	ands	r3, r2
 8003514:	d0f1      	beq.n	80034fa <HAL_RCC_OscConfig+0x20e>
 8003516:	4b44      	ldr	r3, [pc, #272]	; (8003628 <HAL_RCC_OscConfig+0x33c>)
 8003518:	685b      	ldr	r3, [r3, #4]
 800351a:	4a46      	ldr	r2, [pc, #280]	; (8003634 <HAL_RCC_OscConfig+0x348>)
 800351c:	4013      	ands	r3, r2
 800351e:	0019      	movs	r1, r3
 8003520:	687b      	ldr	r3, [r7, #4]
 8003522:	691b      	ldr	r3, [r3, #16]
 8003524:	021a      	lsls	r2, r3, #8
 8003526:	4b40      	ldr	r3, [pc, #256]	; (8003628 <HAL_RCC_OscConfig+0x33c>)
 8003528:	430a      	orrs	r2, r1
 800352a:	605a      	str	r2, [r3, #4]
 800352c:	e018      	b.n	8003560 <HAL_RCC_OscConfig+0x274>
 800352e:	4b3e      	ldr	r3, [pc, #248]	; (8003628 <HAL_RCC_OscConfig+0x33c>)
 8003530:	681a      	ldr	r2, [r3, #0]
 8003532:	4b3d      	ldr	r3, [pc, #244]	; (8003628 <HAL_RCC_OscConfig+0x33c>)
 8003534:	2101      	movs	r1, #1
 8003536:	438a      	bics	r2, r1
 8003538:	601a      	str	r2, [r3, #0]
 800353a:	f7ff f8eb 	bl	8002714 <HAL_GetTick>
 800353e:	0003      	movs	r3, r0
 8003540:	617b      	str	r3, [r7, #20]
 8003542:	e008      	b.n	8003556 <HAL_RCC_OscConfig+0x26a>
 8003544:	f7ff f8e6 	bl	8002714 <HAL_GetTick>
 8003548:	0002      	movs	r2, r0
 800354a:	697b      	ldr	r3, [r7, #20]
 800354c:	1ad3      	subs	r3, r2, r3
 800354e:	2b02      	cmp	r3, #2
 8003550:	d901      	bls.n	8003556 <HAL_RCC_OscConfig+0x26a>
 8003552:	2303      	movs	r3, #3
 8003554:	e293      	b.n	8003a7e <HAL_RCC_OscConfig+0x792>
 8003556:	4b34      	ldr	r3, [pc, #208]	; (8003628 <HAL_RCC_OscConfig+0x33c>)
 8003558:	681b      	ldr	r3, [r3, #0]
 800355a:	2204      	movs	r2, #4
 800355c:	4013      	ands	r3, r2
 800355e:	d1f1      	bne.n	8003544 <HAL_RCC_OscConfig+0x258>
 8003560:	687b      	ldr	r3, [r7, #4]
 8003562:	681b      	ldr	r3, [r3, #0]
 8003564:	2210      	movs	r2, #16
 8003566:	4013      	ands	r3, r2
 8003568:	d100      	bne.n	800356c <HAL_RCC_OscConfig+0x280>
 800356a:	e0a2      	b.n	80036b2 <HAL_RCC_OscConfig+0x3c6>
 800356c:	69fb      	ldr	r3, [r7, #28]
 800356e:	2b00      	cmp	r3, #0
 8003570:	d140      	bne.n	80035f4 <HAL_RCC_OscConfig+0x308>
 8003572:	4b2d      	ldr	r3, [pc, #180]	; (8003628 <HAL_RCC_OscConfig+0x33c>)
 8003574:	681a      	ldr	r2, [r3, #0]
 8003576:	2380      	movs	r3, #128	; 0x80
 8003578:	009b      	lsls	r3, r3, #2
 800357a:	4013      	ands	r3, r2
 800357c:	d005      	beq.n	800358a <HAL_RCC_OscConfig+0x29e>
 800357e:	687b      	ldr	r3, [r7, #4]
 8003580:	69db      	ldr	r3, [r3, #28]
 8003582:	2b00      	cmp	r3, #0
 8003584:	d101      	bne.n	800358a <HAL_RCC_OscConfig+0x29e>
 8003586:	2301      	movs	r3, #1
 8003588:	e279      	b.n	8003a7e <HAL_RCC_OscConfig+0x792>
 800358a:	4b27      	ldr	r3, [pc, #156]	; (8003628 <HAL_RCC_OscConfig+0x33c>)
 800358c:	685b      	ldr	r3, [r3, #4]
 800358e:	4a2d      	ldr	r2, [pc, #180]	; (8003644 <HAL_RCC_OscConfig+0x358>)
 8003590:	4013      	ands	r3, r2
 8003592:	0019      	movs	r1, r3
 8003594:	687b      	ldr	r3, [r7, #4]
 8003596:	6a5a      	ldr	r2, [r3, #36]	; 0x24
 8003598:	4b23      	ldr	r3, [pc, #140]	; (8003628 <HAL_RCC_OscConfig+0x33c>)
 800359a:	430a      	orrs	r2, r1
 800359c:	605a      	str	r2, [r3, #4]
 800359e:	4b22      	ldr	r3, [pc, #136]	; (8003628 <HAL_RCC_OscConfig+0x33c>)
 80035a0:	685b      	ldr	r3, [r3, #4]
 80035a2:	021b      	lsls	r3, r3, #8
 80035a4:	0a19      	lsrs	r1, r3, #8
 80035a6:	687b      	ldr	r3, [r7, #4]
 80035a8:	6a1b      	ldr	r3, [r3, #32]
 80035aa:	061a      	lsls	r2, r3, #24
 80035ac:	4b1e      	ldr	r3, [pc, #120]	; (8003628 <HAL_RCC_OscConfig+0x33c>)
 80035ae:	430a      	orrs	r2, r1
 80035b0:	605a      	str	r2, [r3, #4]
 80035b2:	687b      	ldr	r3, [r7, #4]
 80035b4:	6a5b      	ldr	r3, [r3, #36]	; 0x24
 80035b6:	0b5b      	lsrs	r3, r3, #13
 80035b8:	3301      	adds	r3, #1
 80035ba:	2280      	movs	r2, #128	; 0x80
 80035bc:	0212      	lsls	r2, r2, #8
 80035be:	409a      	lsls	r2, r3
 80035c0:	4b19      	ldr	r3, [pc, #100]	; (8003628 <HAL_RCC_OscConfig+0x33c>)
 80035c2:	68db      	ldr	r3, [r3, #12]
 80035c4:	091b      	lsrs	r3, r3, #4
 80035c6:	210f      	movs	r1, #15
 80035c8:	400b      	ands	r3, r1
 80035ca:	491b      	ldr	r1, [pc, #108]	; (8003638 <HAL_RCC_OscConfig+0x34c>)
 80035cc:	5ccb      	ldrb	r3, [r1, r3]
 80035ce:	40da      	lsrs	r2, r3
 80035d0:	4b1a      	ldr	r3, [pc, #104]	; (800363c <HAL_RCC_OscConfig+0x350>)
 80035d2:	601a      	str	r2, [r3, #0]
 80035d4:	4b1a      	ldr	r3, [pc, #104]	; (8003640 <HAL_RCC_OscConfig+0x354>)
 80035d6:	681b      	ldr	r3, [r3, #0]
 80035d8:	2513      	movs	r5, #19
 80035da:	197c      	adds	r4, r7, r5
 80035dc:	0018      	movs	r0, r3
 80035de:	f7ff f853 	bl	8002688 <HAL_InitTick>
 80035e2:	0003      	movs	r3, r0
 80035e4:	7023      	strb	r3, [r4, #0]
 80035e6:	197b      	adds	r3, r7, r5
 80035e8:	781b      	ldrb	r3, [r3, #0]
 80035ea:	2b00      	cmp	r3, #0
 80035ec:	d061      	beq.n	80036b2 <HAL_RCC_OscConfig+0x3c6>
 80035ee:	197b      	adds	r3, r7, r5
 80035f0:	781b      	ldrb	r3, [r3, #0]
 80035f2:	e244      	b.n	8003a7e <HAL_RCC_OscConfig+0x792>
 80035f4:	687b      	ldr	r3, [r7, #4]
 80035f6:	69db      	ldr	r3, [r3, #28]
 80035f8:	2b00      	cmp	r3, #0
 80035fa:	d040      	beq.n	800367e <HAL_RCC_OscConfig+0x392>
 80035fc:	4b0a      	ldr	r3, [pc, #40]	; (8003628 <HAL_RCC_OscConfig+0x33c>)
 80035fe:	681a      	ldr	r2, [r3, #0]
 8003600:	4b09      	ldr	r3, [pc, #36]	; (8003628 <HAL_RCC_OscConfig+0x33c>)
 8003602:	2180      	movs	r1, #128	; 0x80
 8003604:	0049      	lsls	r1, r1, #1
 8003606:	430a      	orrs	r2, r1
 8003608:	601a      	str	r2, [r3, #0]
 800360a:	f7ff f883 	bl	8002714 <HAL_GetTick>
 800360e:	0003      	movs	r3, r0
 8003610:	617b      	str	r3, [r7, #20]
 8003612:	e019      	b.n	8003648 <HAL_RCC_OscConfig+0x35c>
 8003614:	f7ff f87e 	bl	8002714 <HAL_GetTick>
 8003618:	0002      	movs	r2, r0
 800361a:	697b      	ldr	r3, [r7, #20]
 800361c:	1ad3      	subs	r3, r2, r3
 800361e:	2b02      	cmp	r3, #2
 8003620:	d912      	bls.n	8003648 <HAL_RCC_OscConfig+0x35c>
 8003622:	2303      	movs	r3, #3
 8003624:	e22b      	b.n	8003a7e <HAL_RCC_OscConfig+0x792>
 8003626:	46c0      	nop			; (mov r8, r8)
 8003628:	40021000 	.word	0x40021000
 800362c:	fffeffff 	.word	0xfffeffff
 8003630:	fffbffff 	.word	0xfffbffff
 8003634:	ffffe0ff 	.word	0xffffe0ff
 8003638:	080070c0 	.word	0x080070c0
 800363c:	200001a4 	.word	0x200001a4
 8003640:	200001a8 	.word	0x200001a8
 8003644:	ffff1fff 	.word	0xffff1fff
 8003648:	4bca      	ldr	r3, [pc, #808]	; (8003974 <HAL_RCC_OscConfig+0x688>)
 800364a:	681a      	ldr	r2, [r3, #0]
 800364c:	2380      	movs	r3, #128	; 0x80
 800364e:	009b      	lsls	r3, r3, #2
 8003650:	4013      	ands	r3, r2
 8003652:	d0df      	beq.n	8003614 <HAL_RCC_OscConfig+0x328>
 8003654:	4bc7      	ldr	r3, [pc, #796]	; (8003974 <HAL_RCC_OscConfig+0x688>)
 8003656:	685b      	ldr	r3, [r3, #4]
 8003658:	4ac7      	ldr	r2, [pc, #796]	; (8003978 <HAL_RCC_OscConfig+0x68c>)
 800365a:	4013      	ands	r3, r2
 800365c:	0019      	movs	r1, r3
 800365e:	687b      	ldr	r3, [r7, #4]
 8003660:	6a5a      	ldr	r2, [r3, #36]	; 0x24
 8003662:	4bc4      	ldr	r3, [pc, #784]	; (8003974 <HAL_RCC_OscConfig+0x688>)
 8003664:	430a      	orrs	r2, r1
 8003666:	605a      	str	r2, [r3, #4]
 8003668:	4bc2      	ldr	r3, [pc, #776]	; (8003974 <HAL_RCC_OscConfig+0x688>)
 800366a:	685b      	ldr	r3, [r3, #4]
 800366c:	021b      	lsls	r3, r3, #8
 800366e:	0a19      	lsrs	r1, r3, #8
 8003670:	687b      	ldr	r3, [r7, #4]
 8003672:	6a1b      	ldr	r3, [r3, #32]
 8003674:	061a      	lsls	r2, r3, #24
 8003676:	4bbf      	ldr	r3, [pc, #764]	; (8003974 <HAL_RCC_OscConfig+0x688>)
 8003678:	430a      	orrs	r2, r1
 800367a:	605a      	str	r2, [r3, #4]
 800367c:	e019      	b.n	80036b2 <HAL_RCC_OscConfig+0x3c6>
 800367e:	4bbd      	ldr	r3, [pc, #756]	; (8003974 <HAL_RCC_OscConfig+0x688>)
 8003680:	681a      	ldr	r2, [r3, #0]
 8003682:	4bbc      	ldr	r3, [pc, #752]	; (8003974 <HAL_RCC_OscConfig+0x688>)
 8003684:	49bd      	ldr	r1, [pc, #756]	; (800397c <HAL_RCC_OscConfig+0x690>)
 8003686:	400a      	ands	r2, r1
 8003688:	601a      	str	r2, [r3, #0]
 800368a:	f7ff f843 	bl	8002714 <HAL_GetTick>
 800368e:	0003      	movs	r3, r0
 8003690:	617b      	str	r3, [r7, #20]
 8003692:	e008      	b.n	80036a6 <HAL_RCC_OscConfig+0x3ba>
 8003694:	f7ff f83e 	bl	8002714 <HAL_GetTick>
 8003698:	0002      	movs	r2, r0
 800369a:	697b      	ldr	r3, [r7, #20]
 800369c:	1ad3      	subs	r3, r2, r3
 800369e:	2b02      	cmp	r3, #2
 80036a0:	d901      	bls.n	80036a6 <HAL_RCC_OscConfig+0x3ba>
 80036a2:	2303      	movs	r3, #3
 80036a4:	e1eb      	b.n	8003a7e <HAL_RCC_OscConfig+0x792>
 80036a6:	4bb3      	ldr	r3, [pc, #716]	; (8003974 <HAL_RCC_OscConfig+0x688>)
 80036a8:	681a      	ldr	r2, [r3, #0]
 80036aa:	2380      	movs	r3, #128	; 0x80
 80036ac:	009b      	lsls	r3, r3, #2
 80036ae:	4013      	ands	r3, r2
 80036b0:	d1f0      	bne.n	8003694 <HAL_RCC_OscConfig+0x3a8>
 80036b2:	687b      	ldr	r3, [r7, #4]
 80036b4:	681b      	ldr	r3, [r3, #0]
 80036b6:	2208      	movs	r2, #8
 80036b8:	4013      	ands	r3, r2
 80036ba:	d036      	beq.n	800372a <HAL_RCC_OscConfig+0x43e>
 80036bc:	687b      	ldr	r3, [r7, #4]
 80036be:	695b      	ldr	r3, [r3, #20]
 80036c0:	2b00      	cmp	r3, #0
 80036c2:	d019      	beq.n	80036f8 <HAL_RCC_OscConfig+0x40c>
 80036c4:	4bab      	ldr	r3, [pc, #684]	; (8003974 <HAL_RCC_OscConfig+0x688>)
 80036c6:	6d1a      	ldr	r2, [r3, #80]	; 0x50
 80036c8:	4baa      	ldr	r3, [pc, #680]	; (8003974 <HAL_RCC_OscConfig+0x688>)
 80036ca:	2101      	movs	r1, #1
 80036cc:	430a      	orrs	r2, r1
 80036ce:	651a      	str	r2, [r3, #80]	; 0x50
 80036d0:	f7ff f820 	bl	8002714 <HAL_GetTick>
 80036d4:	0003      	movs	r3, r0
 80036d6:	617b      	str	r3, [r7, #20]
 80036d8:	e008      	b.n	80036ec <HAL_RCC_OscConfig+0x400>
 80036da:	f7ff f81b 	bl	8002714 <HAL_GetTick>
 80036de:	0002      	movs	r2, r0
 80036e0:	697b      	ldr	r3, [r7, #20]
 80036e2:	1ad3      	subs	r3, r2, r3
 80036e4:	2b02      	cmp	r3, #2
 80036e6:	d901      	bls.n	80036ec <HAL_RCC_OscConfig+0x400>
 80036e8:	2303      	movs	r3, #3
 80036ea:	e1c8      	b.n	8003a7e <HAL_RCC_OscConfig+0x792>
 80036ec:	4ba1      	ldr	r3, [pc, #644]	; (8003974 <HAL_RCC_OscConfig+0x688>)
 80036ee:	6d1b      	ldr	r3, [r3, #80]	; 0x50
 80036f0:	2202      	movs	r2, #2
 80036f2:	4013      	ands	r3, r2
 80036f4:	d0f1      	beq.n	80036da <HAL_RCC_OscConfig+0x3ee>
 80036f6:	e018      	b.n	800372a <HAL_RCC_OscConfig+0x43e>
 80036f8:	4b9e      	ldr	r3, [pc, #632]	; (8003974 <HAL_RCC_OscConfig+0x688>)
 80036fa:	6d1a      	ldr	r2, [r3, #80]	; 0x50
 80036fc:	4b9d      	ldr	r3, [pc, #628]	; (8003974 <HAL_RCC_OscConfig+0x688>)
 80036fe:	2101      	movs	r1, #1
 8003700:	438a      	bics	r2, r1
 8003702:	651a      	str	r2, [r3, #80]	; 0x50
 8003704:	f7ff f806 	bl	8002714 <HAL_GetTick>
 8003708:	0003      	movs	r3, r0
 800370a:	617b      	str	r3, [r7, #20]
 800370c:	e008      	b.n	8003720 <HAL_RCC_OscConfig+0x434>
 800370e:	f7ff f801 	bl	8002714 <HAL_GetTick>
 8003712:	0002      	movs	r2, r0
 8003714:	697b      	ldr	r3, [r7, #20]
 8003716:	1ad3      	subs	r3, r2, r3
 8003718:	2b02      	cmp	r3, #2
 800371a:	d901      	bls.n	8003720 <HAL_RCC_OscConfig+0x434>
 800371c:	2303      	movs	r3, #3
 800371e:	e1ae      	b.n	8003a7e <HAL_RCC_OscConfig+0x792>
 8003720:	4b94      	ldr	r3, [pc, #592]	; (8003974 <HAL_RCC_OscConfig+0x688>)
 8003722:	6d1b      	ldr	r3, [r3, #80]	; 0x50
 8003724:	2202      	movs	r2, #2
 8003726:	4013      	ands	r3, r2
 8003728:	d1f1      	bne.n	800370e <HAL_RCC_OscConfig+0x422>
 800372a:	687b      	ldr	r3, [r7, #4]
 800372c:	681b      	ldr	r3, [r3, #0]
 800372e:	2204      	movs	r2, #4
 8003730:	4013      	ands	r3, r2
 8003732:	d100      	bne.n	8003736 <HAL_RCC_OscConfig+0x44a>
 8003734:	e0ae      	b.n	8003894 <HAL_RCC_OscConfig+0x5a8>
 8003736:	2023      	movs	r0, #35	; 0x23
 8003738:	183b      	adds	r3, r7, r0
 800373a:	2200      	movs	r2, #0
 800373c:	701a      	strb	r2, [r3, #0]
 800373e:	4b8d      	ldr	r3, [pc, #564]	; (8003974 <HAL_RCC_OscConfig+0x688>)
 8003740:	6b9a      	ldr	r2, [r3, #56]	; 0x38
 8003742:	2380      	movs	r3, #128	; 0x80
 8003744:	055b      	lsls	r3, r3, #21
 8003746:	4013      	ands	r3, r2
 8003748:	d109      	bne.n	800375e <HAL_RCC_OscConfig+0x472>
 800374a:	4b8a      	ldr	r3, [pc, #552]	; (8003974 <HAL_RCC_OscConfig+0x688>)
 800374c:	6b9a      	ldr	r2, [r3, #56]	; 0x38
 800374e:	4b89      	ldr	r3, [pc, #548]	; (8003974 <HAL_RCC_OscConfig+0x688>)
 8003750:	2180      	movs	r1, #128	; 0x80
 8003752:	0549      	lsls	r1, r1, #21
 8003754:	430a      	orrs	r2, r1
 8003756:	639a      	str	r2, [r3, #56]	; 0x38
 8003758:	183b      	adds	r3, r7, r0
 800375a:	2201      	movs	r2, #1
 800375c:	701a      	strb	r2, [r3, #0]
 800375e:	4b88      	ldr	r3, [pc, #544]	; (8003980 <HAL_RCC_OscConfig+0x694>)
 8003760:	681a      	ldr	r2, [r3, #0]
 8003762:	2380      	movs	r3, #128	; 0x80
 8003764:	005b      	lsls	r3, r3, #1
 8003766:	4013      	ands	r3, r2
 8003768:	d11a      	bne.n	80037a0 <HAL_RCC_OscConfig+0x4b4>
 800376a:	4b85      	ldr	r3, [pc, #532]	; (8003980 <HAL_RCC_OscConfig+0x694>)
 800376c:	681a      	ldr	r2, [r3, #0]
 800376e:	4b84      	ldr	r3, [pc, #528]	; (8003980 <HAL_RCC_OscConfig+0x694>)
 8003770:	2180      	movs	r1, #128	; 0x80
 8003772:	0049      	lsls	r1, r1, #1
 8003774:	430a      	orrs	r2, r1
 8003776:	601a      	str	r2, [r3, #0]
 8003778:	f7fe ffcc 	bl	8002714 <HAL_GetTick>
 800377c:	0003      	movs	r3, r0
 800377e:	617b      	str	r3, [r7, #20]
 8003780:	e008      	b.n	8003794 <HAL_RCC_OscConfig+0x4a8>
 8003782:	f7fe ffc7 	bl	8002714 <HAL_GetTick>
 8003786:	0002      	movs	r2, r0
 8003788:	697b      	ldr	r3, [r7, #20]
 800378a:	1ad3      	subs	r3, r2, r3
 800378c:	2b64      	cmp	r3, #100	; 0x64
 800378e:	d901      	bls.n	8003794 <HAL_RCC_OscConfig+0x4a8>
 8003790:	2303      	movs	r3, #3
 8003792:	e174      	b.n	8003a7e <HAL_RCC_OscConfig+0x792>
 8003794:	4b7a      	ldr	r3, [pc, #488]	; (8003980 <HAL_RCC_OscConfig+0x694>)
 8003796:	681a      	ldr	r2, [r3, #0]
 8003798:	2380      	movs	r3, #128	; 0x80
 800379a:	005b      	lsls	r3, r3, #1
 800379c:	4013      	ands	r3, r2
 800379e:	d0f0      	beq.n	8003782 <HAL_RCC_OscConfig+0x496>
 80037a0:	687b      	ldr	r3, [r7, #4]
 80037a2:	689a      	ldr	r2, [r3, #8]
 80037a4:	2380      	movs	r3, #128	; 0x80
 80037a6:	005b      	lsls	r3, r3, #1
 80037a8:	429a      	cmp	r2, r3
 80037aa:	d107      	bne.n	80037bc <HAL_RCC_OscConfig+0x4d0>
 80037ac:	4b71      	ldr	r3, [pc, #452]	; (8003974 <HAL_RCC_OscConfig+0x688>)
 80037ae:	6d1a      	ldr	r2, [r3, #80]	; 0x50
 80037b0:	4b70      	ldr	r3, [pc, #448]	; (8003974 <HAL_RCC_OscConfig+0x688>)
 80037b2:	2180      	movs	r1, #128	; 0x80
 80037b4:	0049      	lsls	r1, r1, #1
 80037b6:	430a      	orrs	r2, r1
 80037b8:	651a      	str	r2, [r3, #80]	; 0x50
 80037ba:	e031      	b.n	8003820 <HAL_RCC_OscConfig+0x534>
 80037bc:	687b      	ldr	r3, [r7, #4]
 80037be:	689b      	ldr	r3, [r3, #8]
 80037c0:	2b00      	cmp	r3, #0
 80037c2:	d10c      	bne.n	80037de <HAL_RCC_OscConfig+0x4f2>
 80037c4:	4b6b      	ldr	r3, [pc, #428]	; (8003974 <HAL_RCC_OscConfig+0x688>)
 80037c6:	6d1a      	ldr	r2, [r3, #80]	; 0x50
 80037c8:	4b6a      	ldr	r3, [pc, #424]	; (8003974 <HAL_RCC_OscConfig+0x688>)
 80037ca:	496c      	ldr	r1, [pc, #432]	; (800397c <HAL_RCC_OscConfig+0x690>)
 80037cc:	400a      	ands	r2, r1
 80037ce:	651a      	str	r2, [r3, #80]	; 0x50
 80037d0:	4b68      	ldr	r3, [pc, #416]	; (8003974 <HAL_RCC_OscConfig+0x688>)
 80037d2:	6d1a      	ldr	r2, [r3, #80]	; 0x50
 80037d4:	4b67      	ldr	r3, [pc, #412]	; (8003974 <HAL_RCC_OscConfig+0x688>)
 80037d6:	496b      	ldr	r1, [pc, #428]	; (8003984 <HAL_RCC_OscConfig+0x698>)
 80037d8:	400a      	ands	r2, r1
 80037da:	651a      	str	r2, [r3, #80]	; 0x50
 80037dc:	e020      	b.n	8003820 <HAL_RCC_OscConfig+0x534>
 80037de:	687b      	ldr	r3, [r7, #4]
 80037e0:	689a      	ldr	r2, [r3, #8]
 80037e2:	23a0      	movs	r3, #160	; 0xa0
 80037e4:	00db      	lsls	r3, r3, #3
 80037e6:	429a      	cmp	r2, r3
 80037e8:	d10e      	bne.n	8003808 <HAL_RCC_OscConfig+0x51c>
 80037ea:	4b62      	ldr	r3, [pc, #392]	; (8003974 <HAL_RCC_OscConfig+0x688>)
 80037ec:	6d1a      	ldr	r2, [r3, #80]	; 0x50
 80037ee:	4b61      	ldr	r3, [pc, #388]	; (8003974 <HAL_RCC_OscConfig+0x688>)
 80037f0:	2180      	movs	r1, #128	; 0x80
 80037f2:	00c9      	lsls	r1, r1, #3
 80037f4:	430a      	orrs	r2, r1
 80037f6:	651a      	str	r2, [r3, #80]	; 0x50
 80037f8:	4b5e      	ldr	r3, [pc, #376]	; (8003974 <HAL_RCC_OscConfig+0x688>)
 80037fa:	6d1a      	ldr	r2, [r3, #80]	; 0x50
 80037fc:	4b5d      	ldr	r3, [pc, #372]	; (8003974 <HAL_RCC_OscConfig+0x688>)
 80037fe:	2180      	movs	r1, #128	; 0x80
 8003800:	0049      	lsls	r1, r1, #1
 8003802:	430a      	orrs	r2, r1
 8003804:	651a      	str	r2, [r3, #80]	; 0x50
 8003806:	e00b      	b.n	8003820 <HAL_RCC_OscConfig+0x534>
 8003808:	4b5a      	ldr	r3, [pc, #360]	; (8003974 <HAL_RCC_OscConfig+0x688>)
 800380a:	6d1a      	ldr	r2, [r3, #80]	; 0x50
 800380c:	4b59      	ldr	r3, [pc, #356]	; (8003974 <HAL_RCC_OscConfig+0x688>)
 800380e:	495b      	ldr	r1, [pc, #364]	; (800397c <HAL_RCC_OscConfig+0x690>)
 8003810:	400a      	ands	r2, r1
 8003812:	651a      	str	r2, [r3, #80]	; 0x50
 8003814:	4b57      	ldr	r3, [pc, #348]	; (8003974 <HAL_RCC_OscConfig+0x688>)
 8003816:	6d1a      	ldr	r2, [r3, #80]	; 0x50
 8003818:	4b56      	ldr	r3, [pc, #344]	; (8003974 <HAL_RCC_OscConfig+0x688>)
 800381a:	495a      	ldr	r1, [pc, #360]	; (8003984 <HAL_RCC_OscConfig+0x698>)
 800381c:	400a      	ands	r2, r1
 800381e:	651a      	str	r2, [r3, #80]	; 0x50
 8003820:	687b      	ldr	r3, [r7, #4]
 8003822:	689b      	ldr	r3, [r3, #8]
 8003824:	2b00      	cmp	r3, #0
 8003826:	d015      	beq.n	8003854 <HAL_RCC_OscConfig+0x568>
 8003828:	f7fe ff74 	bl	8002714 <HAL_GetTick>
 800382c:	0003      	movs	r3, r0
 800382e:	617b      	str	r3, [r7, #20]
 8003830:	e009      	b.n	8003846 <HAL_RCC_OscConfig+0x55a>
 8003832:	f7fe ff6f 	bl	8002714 <HAL_GetTick>
 8003836:	0002      	movs	r2, r0
 8003838:	697b      	ldr	r3, [r7, #20]
 800383a:	1ad3      	subs	r3, r2, r3
 800383c:	4a52      	ldr	r2, [pc, #328]	; (8003988 <HAL_RCC_OscConfig+0x69c>)
 800383e:	4293      	cmp	r3, r2
 8003840:	d901      	bls.n	8003846 <HAL_RCC_OscConfig+0x55a>
 8003842:	2303      	movs	r3, #3
 8003844:	e11b      	b.n	8003a7e <HAL_RCC_OscConfig+0x792>
 8003846:	4b4b      	ldr	r3, [pc, #300]	; (8003974 <HAL_RCC_OscConfig+0x688>)
 8003848:	6d1a      	ldr	r2, [r3, #80]	; 0x50
 800384a:	2380      	movs	r3, #128	; 0x80
 800384c:	009b      	lsls	r3, r3, #2
 800384e:	4013      	ands	r3, r2
 8003850:	d0ef      	beq.n	8003832 <HAL_RCC_OscConfig+0x546>
 8003852:	e014      	b.n	800387e <HAL_RCC_OscConfig+0x592>
 8003854:	f7fe ff5e 	bl	8002714 <HAL_GetTick>
 8003858:	0003      	movs	r3, r0
 800385a:	617b      	str	r3, [r7, #20]
 800385c:	e009      	b.n	8003872 <HAL_RCC_OscConfig+0x586>
 800385e:	f7fe ff59 	bl	8002714 <HAL_GetTick>
 8003862:	0002      	movs	r2, r0
 8003864:	697b      	ldr	r3, [r7, #20]
 8003866:	1ad3      	subs	r3, r2, r3
 8003868:	4a47      	ldr	r2, [pc, #284]	; (8003988 <HAL_RCC_OscConfig+0x69c>)
 800386a:	4293      	cmp	r3, r2
 800386c:	d901      	bls.n	8003872 <HAL_RCC_OscConfig+0x586>
 800386e:	2303      	movs	r3, #3
 8003870:	e105      	b.n	8003a7e <HAL_RCC_OscConfig+0x792>
 8003872:	4b40      	ldr	r3, [pc, #256]	; (8003974 <HAL_RCC_OscConfig+0x688>)
 8003874:	6d1a      	ldr	r2, [r3, #80]	; 0x50
 8003876:	2380      	movs	r3, #128	; 0x80
 8003878:	009b      	lsls	r3, r3, #2
 800387a:	4013      	ands	r3, r2
 800387c:	d1ef      	bne.n	800385e <HAL_RCC_OscConfig+0x572>
 800387e:	2323      	movs	r3, #35	; 0x23
 8003880:	18fb      	adds	r3, r7, r3
 8003882:	781b      	ldrb	r3, [r3, #0]
 8003884:	2b01      	cmp	r3, #1
 8003886:	d105      	bne.n	8003894 <HAL_RCC_OscConfig+0x5a8>
 8003888:	4b3a      	ldr	r3, [pc, #232]	; (8003974 <HAL_RCC_OscConfig+0x688>)
 800388a:	6b9a      	ldr	r2, [r3, #56]	; 0x38
 800388c:	4b39      	ldr	r3, [pc, #228]	; (8003974 <HAL_RCC_OscConfig+0x688>)
 800388e:	493f      	ldr	r1, [pc, #252]	; (800398c <HAL_RCC_OscConfig+0x6a0>)
 8003890:	400a      	ands	r2, r1
 8003892:	639a      	str	r2, [r3, #56]	; 0x38
 8003894:	687b      	ldr	r3, [r7, #4]
 8003896:	681b      	ldr	r3, [r3, #0]
 8003898:	2220      	movs	r2, #32
 800389a:	4013      	ands	r3, r2
 800389c:	d049      	beq.n	8003932 <HAL_RCC_OscConfig+0x646>
 800389e:	687b      	ldr	r3, [r7, #4]
 80038a0:	699b      	ldr	r3, [r3, #24]
 80038a2:	2b00      	cmp	r3, #0
 80038a4:	d026      	beq.n	80038f4 <HAL_RCC_OscConfig+0x608>
 80038a6:	4b33      	ldr	r3, [pc, #204]	; (8003974 <HAL_RCC_OscConfig+0x688>)
 80038a8:	689a      	ldr	r2, [r3, #8]
 80038aa:	4b32      	ldr	r3, [pc, #200]	; (8003974 <HAL_RCC_OscConfig+0x688>)
 80038ac:	2101      	movs	r1, #1
 80038ae:	430a      	orrs	r2, r1
 80038b0:	609a      	str	r2, [r3, #8]
 80038b2:	4b30      	ldr	r3, [pc, #192]	; (8003974 <HAL_RCC_OscConfig+0x688>)
 80038b4:	6b5a      	ldr	r2, [r3, #52]	; 0x34
 80038b6:	4b2f      	ldr	r3, [pc, #188]	; (8003974 <HAL_RCC_OscConfig+0x688>)
 80038b8:	2101      	movs	r1, #1
 80038ba:	430a      	orrs	r2, r1
 80038bc:	635a      	str	r2, [r3, #52]	; 0x34
 80038be:	4b34      	ldr	r3, [pc, #208]	; (8003990 <HAL_RCC_OscConfig+0x6a4>)
 80038c0:	6a1a      	ldr	r2, [r3, #32]
 80038c2:	4b33      	ldr	r3, [pc, #204]	; (8003990 <HAL_RCC_OscConfig+0x6a4>)
 80038c4:	2180      	movs	r1, #128	; 0x80
 80038c6:	0189      	lsls	r1, r1, #6
 80038c8:	430a      	orrs	r2, r1
 80038ca:	621a      	str	r2, [r3, #32]
 80038cc:	f7fe ff22 	bl	8002714 <HAL_GetTick>
 80038d0:	0003      	movs	r3, r0
 80038d2:	617b      	str	r3, [r7, #20]
 80038d4:	e008      	b.n	80038e8 <HAL_RCC_OscConfig+0x5fc>
 80038d6:	f7fe ff1d 	bl	8002714 <HAL_GetTick>
 80038da:	0002      	movs	r2, r0
 80038dc:	697b      	ldr	r3, [r7, #20]
 80038de:	1ad3      	subs	r3, r2, r3
 80038e0:	2b02      	cmp	r3, #2
 80038e2:	d901      	bls.n	80038e8 <HAL_RCC_OscConfig+0x5fc>
 80038e4:	2303      	movs	r3, #3
 80038e6:	e0ca      	b.n	8003a7e <HAL_RCC_OscConfig+0x792>
 80038e8:	4b22      	ldr	r3, [pc, #136]	; (8003974 <HAL_RCC_OscConfig+0x688>)
 80038ea:	689b      	ldr	r3, [r3, #8]
 80038ec:	2202      	movs	r2, #2
 80038ee:	4013      	ands	r3, r2
 80038f0:	d0f1      	beq.n	80038d6 <HAL_RCC_OscConfig+0x5ea>
 80038f2:	e01e      	b.n	8003932 <HAL_RCC_OscConfig+0x646>
 80038f4:	4b1f      	ldr	r3, [pc, #124]	; (8003974 <HAL_RCC_OscConfig+0x688>)
 80038f6:	689a      	ldr	r2, [r3, #8]
 80038f8:	4b1e      	ldr	r3, [pc, #120]	; (8003974 <HAL_RCC_OscConfig+0x688>)
 80038fa:	2101      	movs	r1, #1
 80038fc:	438a      	bics	r2, r1
 80038fe:	609a      	str	r2, [r3, #8]
 8003900:	4b23      	ldr	r3, [pc, #140]	; (8003990 <HAL_RCC_OscConfig+0x6a4>)
 8003902:	6a1a      	ldr	r2, [r3, #32]
 8003904:	4b22      	ldr	r3, [pc, #136]	; (8003990 <HAL_RCC_OscConfig+0x6a4>)
 8003906:	4923      	ldr	r1, [pc, #140]	; (8003994 <HAL_RCC_OscConfig+0x6a8>)
 8003908:	400a      	ands	r2, r1
 800390a:	621a      	str	r2, [r3, #32]
 800390c:	f7fe ff02 	bl	8002714 <HAL_GetTick>
 8003910:	0003      	movs	r3, r0
 8003912:	617b      	str	r3, [r7, #20]
 8003914:	e008      	b.n	8003928 <HAL_RCC_OscConfig+0x63c>
 8003916:	f7fe fefd 	bl	8002714 <HAL_GetTick>
 800391a:	0002      	movs	r2, r0
 800391c:	697b      	ldr	r3, [r7, #20]
 800391e:	1ad3      	subs	r3, r2, r3
 8003920:	2b02      	cmp	r3, #2
 8003922:	d901      	bls.n	8003928 <HAL_RCC_OscConfig+0x63c>
 8003924:	2303      	movs	r3, #3
 8003926:	e0aa      	b.n	8003a7e <HAL_RCC_OscConfig+0x792>
 8003928:	4b12      	ldr	r3, [pc, #72]	; (8003974 <HAL_RCC_OscConfig+0x688>)
 800392a:	689b      	ldr	r3, [r3, #8]
 800392c:	2202      	movs	r2, #2
 800392e:	4013      	ands	r3, r2
 8003930:	d1f1      	bne.n	8003916 <HAL_RCC_OscConfig+0x62a>
 8003932:	687b      	ldr	r3, [r7, #4]
 8003934:	6a9b      	ldr	r3, [r3, #40]	; 0x28
 8003936:	2b00      	cmp	r3, #0
 8003938:	d100      	bne.n	800393c <HAL_RCC_OscConfig+0x650>
 800393a:	e09f      	b.n	8003a7c <HAL_RCC_OscConfig+0x790>
 800393c:	69fb      	ldr	r3, [r7, #28]
 800393e:	2b0c      	cmp	r3, #12
 8003940:	d100      	bne.n	8003944 <HAL_RCC_OscConfig+0x658>
 8003942:	e078      	b.n	8003a36 <HAL_RCC_OscConfig+0x74a>
 8003944:	687b      	ldr	r3, [r7, #4]
 8003946:	6a9b      	ldr	r3, [r3, #40]	; 0x28
 8003948:	2b02      	cmp	r3, #2
 800394a:	d159      	bne.n	8003a00 <HAL_RCC_OscConfig+0x714>
 800394c:	4b09      	ldr	r3, [pc, #36]	; (8003974 <HAL_RCC_OscConfig+0x688>)
 800394e:	681a      	ldr	r2, [r3, #0]
 8003950:	4b08      	ldr	r3, [pc, #32]	; (8003974 <HAL_RCC_OscConfig+0x688>)
 8003952:	4911      	ldr	r1, [pc, #68]	; (8003998 <HAL_RCC_OscConfig+0x6ac>)
 8003954:	400a      	ands	r2, r1
 8003956:	601a      	str	r2, [r3, #0]
 8003958:	f7fe fedc 	bl	8002714 <HAL_GetTick>
 800395c:	0003      	movs	r3, r0
 800395e:	617b      	str	r3, [r7, #20]
 8003960:	e01c      	b.n	800399c <HAL_RCC_OscConfig+0x6b0>
 8003962:	f7fe fed7 	bl	8002714 <HAL_GetTick>
 8003966:	0002      	movs	r2, r0
 8003968:	697b      	ldr	r3, [r7, #20]
 800396a:	1ad3      	subs	r3, r2, r3
 800396c:	2b02      	cmp	r3, #2
 800396e:	d915      	bls.n	800399c <HAL_RCC_OscConfig+0x6b0>
 8003970:	2303      	movs	r3, #3
 8003972:	e084      	b.n	8003a7e <HAL_RCC_OscConfig+0x792>
 8003974:	40021000 	.word	0x40021000
 8003978:	ffff1fff 	.word	0xffff1fff
 800397c:	fffffeff 	.word	0xfffffeff
 8003980:	40007000 	.word	0x40007000
 8003984:	fffffbff 	.word	0xfffffbff
 8003988:	00001388 	.word	0x00001388
 800398c:	efffffff 	.word	0xefffffff
 8003990:	40010000 	.word	0x40010000
 8003994:	ffffdfff 	.word	0xffffdfff
 8003998:	feffffff 	.word	0xfeffffff
 800399c:	4b3a      	ldr	r3, [pc, #232]	; (8003a88 <HAL_RCC_OscConfig+0x79c>)
 800399e:	681a      	ldr	r2, [r3, #0]
 80039a0:	2380      	movs	r3, #128	; 0x80
 80039a2:	049b      	lsls	r3, r3, #18
 80039a4:	4013      	ands	r3, r2
 80039a6:	d1dc      	bne.n	8003962 <HAL_RCC_OscConfig+0x676>
 80039a8:	4b37      	ldr	r3, [pc, #220]	; (8003a88 <HAL_RCC_OscConfig+0x79c>)
 80039aa:	68db      	ldr	r3, [r3, #12]
 80039ac:	4a37      	ldr	r2, [pc, #220]	; (8003a8c <HAL_RCC_OscConfig+0x7a0>)
 80039ae:	4013      	ands	r3, r2
 80039b0:	0019      	movs	r1, r3
 80039b2:	687b      	ldr	r3, [r7, #4]
 80039b4:	6ada      	ldr	r2, [r3, #44]	; 0x2c
 80039b6:	687b      	ldr	r3, [r7, #4]
 80039b8:	6b1b      	ldr	r3, [r3, #48]	; 0x30
 80039ba:	431a      	orrs	r2, r3
 80039bc:	687b      	ldr	r3, [r7, #4]
 80039be:	6b5b      	ldr	r3, [r3, #52]	; 0x34
 80039c0:	431a      	orrs	r2, r3
 80039c2:	4b31      	ldr	r3, [pc, #196]	; (8003a88 <HAL_RCC_OscConfig+0x79c>)
 80039c4:	430a      	orrs	r2, r1
 80039c6:	60da      	str	r2, [r3, #12]
 80039c8:	4b2f      	ldr	r3, [pc, #188]	; (8003a88 <HAL_RCC_OscConfig+0x79c>)
 80039ca:	681a      	ldr	r2, [r3, #0]
 80039cc:	4b2e      	ldr	r3, [pc, #184]	; (8003a88 <HAL_RCC_OscConfig+0x79c>)
 80039ce:	2180      	movs	r1, #128	; 0x80
 80039d0:	0449      	lsls	r1, r1, #17
 80039d2:	430a      	orrs	r2, r1
 80039d4:	601a      	str	r2, [r3, #0]
 80039d6:	f7fe fe9d 	bl	8002714 <HAL_GetTick>
 80039da:	0003      	movs	r3, r0
 80039dc:	617b      	str	r3, [r7, #20]
 80039de:	e008      	b.n	80039f2 <HAL_RCC_OscConfig+0x706>
 80039e0:	f7fe fe98 	bl	8002714 <HAL_GetTick>
 80039e4:	0002      	movs	r2, r0
 80039e6:	697b      	ldr	r3, [r7, #20]
 80039e8:	1ad3      	subs	r3, r2, r3
 80039ea:	2b02      	cmp	r3, #2
 80039ec:	d901      	bls.n	80039f2 <HAL_RCC_OscConfig+0x706>
 80039ee:	2303      	movs	r3, #3
 80039f0:	e045      	b.n	8003a7e <HAL_RCC_OscConfig+0x792>
 80039f2:	4b25      	ldr	r3, [pc, #148]	; (8003a88 <HAL_RCC_OscConfig+0x79c>)
 80039f4:	681a      	ldr	r2, [r3, #0]
 80039f6:	2380      	movs	r3, #128	; 0x80
 80039f8:	049b      	lsls	r3, r3, #18
 80039fa:	4013      	ands	r3, r2
 80039fc:	d0f0      	beq.n	80039e0 <HAL_RCC_OscConfig+0x6f4>
 80039fe:	e03d      	b.n	8003a7c <HAL_RCC_OscConfig+0x790>
 8003a00:	4b21      	ldr	r3, [pc, #132]	; (8003a88 <HAL_RCC_OscConfig+0x79c>)
 8003a02:	681a      	ldr	r2, [r3, #0]
 8003a04:	4b20      	ldr	r3, [pc, #128]	; (8003a88 <HAL_RCC_OscConfig+0x79c>)
 8003a06:	4922      	ldr	r1, [pc, #136]	; (8003a90 <HAL_RCC_OscConfig+0x7a4>)
 8003a08:	400a      	ands	r2, r1
 8003a0a:	601a      	str	r2, [r3, #0]
 8003a0c:	f7fe fe82 	bl	8002714 <HAL_GetTick>
 8003a10:	0003      	movs	r3, r0
 8003a12:	617b      	str	r3, [r7, #20]
 8003a14:	e008      	b.n	8003a28 <HAL_RCC_OscConfig+0x73c>
 8003a16:	f7fe fe7d 	bl	8002714 <HAL_GetTick>
 8003a1a:	0002      	movs	r2, r0
 8003a1c:	697b      	ldr	r3, [r7, #20]
 8003a1e:	1ad3      	subs	r3, r2, r3
 8003a20:	2b02      	cmp	r3, #2
 8003a22:	d901      	bls.n	8003a28 <HAL_RCC_OscConfig+0x73c>
 8003a24:	2303      	movs	r3, #3
 8003a26:	e02a      	b.n	8003a7e <HAL_RCC_OscConfig+0x792>
 8003a28:	4b17      	ldr	r3, [pc, #92]	; (8003a88 <HAL_RCC_OscConfig+0x79c>)
 8003a2a:	681a      	ldr	r2, [r3, #0]
 8003a2c:	2380      	movs	r3, #128	; 0x80
 8003a2e:	049b      	lsls	r3, r3, #18
 8003a30:	4013      	ands	r3, r2
 8003a32:	d1f0      	bne.n	8003a16 <HAL_RCC_OscConfig+0x72a>
 8003a34:	e022      	b.n	8003a7c <HAL_RCC_OscConfig+0x790>
 8003a36:	687b      	ldr	r3, [r7, #4]
 8003a38:	6a9b      	ldr	r3, [r3, #40]	; 0x28
 8003a3a:	2b01      	cmp	r3, #1
 8003a3c:	d101      	bne.n	8003a42 <HAL_RCC_OscConfig+0x756>
 8003a3e:	2301      	movs	r3, #1
 8003a40:	e01d      	b.n	8003a7e <HAL_RCC_OscConfig+0x792>
 8003a42:	4b11      	ldr	r3, [pc, #68]	; (8003a88 <HAL_RCC_OscConfig+0x79c>)
 8003a44:	68db      	ldr	r3, [r3, #12]
 8003a46:	61bb      	str	r3, [r7, #24]
 8003a48:	69ba      	ldr	r2, [r7, #24]
 8003a4a:	2380      	movs	r3, #128	; 0x80
 8003a4c:	025b      	lsls	r3, r3, #9
 8003a4e:	401a      	ands	r2, r3
 8003a50:	687b      	ldr	r3, [r7, #4]
 8003a52:	6adb      	ldr	r3, [r3, #44]	; 0x2c
 8003a54:	429a      	cmp	r2, r3
 8003a56:	d10f      	bne.n	8003a78 <HAL_RCC_OscConfig+0x78c>
 8003a58:	69ba      	ldr	r2, [r7, #24]
 8003a5a:	23f0      	movs	r3, #240	; 0xf0
 8003a5c:	039b      	lsls	r3, r3, #14
 8003a5e:	401a      	ands	r2, r3
 8003a60:	687b      	ldr	r3, [r7, #4]
 8003a62:	6b1b      	ldr	r3, [r3, #48]	; 0x30
 8003a64:	429a      	cmp	r2, r3
 8003a66:	d107      	bne.n	8003a78 <HAL_RCC_OscConfig+0x78c>
 8003a68:	69ba      	ldr	r2, [r7, #24]
 8003a6a:	23c0      	movs	r3, #192	; 0xc0
 8003a6c:	041b      	lsls	r3, r3, #16
 8003a6e:	401a      	ands	r2, r3
 8003a70:	687b      	ldr	r3, [r7, #4]
 8003a72:	6b5b      	ldr	r3, [r3, #52]	; 0x34
 8003a74:	429a      	cmp	r2, r3
 8003a76:	d001      	beq.n	8003a7c <HAL_RCC_OscConfig+0x790>
 8003a78:	2301      	movs	r3, #1
 8003a7a:	e000      	b.n	8003a7e <HAL_RCC_OscConfig+0x792>
 8003a7c:	2300      	movs	r3, #0
 8003a7e:	0018      	movs	r0, r3
 8003a80:	46bd      	mov	sp, r7
 8003a82:	b00a      	add	sp, #40	; 0x28
 8003a84:	bdb0      	pop	{r4, r5, r7, pc}
 8003a86:	46c0      	nop			; (mov r8, r8)
 8003a88:	40021000 	.word	0x40021000
 8003a8c:	ff02ffff 	.word	0xff02ffff
 8003a90:	feffffff 	.word	0xfeffffff

08003a94 <HAL_RCC_ClockConfig>:
 8003a94:	b5b0      	push	{r4, r5, r7, lr}
 8003a96:	b084      	sub	sp, #16
 8003a98:	af00      	add	r7, sp, #0
 8003a9a:	6078      	str	r0, [r7, #4]
 8003a9c:	6039      	str	r1, [r7, #0]
 8003a9e:	687b      	ldr	r3, [r7, #4]
 8003aa0:	2b00      	cmp	r3, #0
 8003aa2:	d101      	bne.n	8003aa8 <HAL_RCC_ClockConfig+0x14>
 8003aa4:	2301      	movs	r3, #1
 8003aa6:	e128      	b.n	8003cfa <HAL_RCC_ClockConfig+0x266>
 8003aa8:	4b96      	ldr	r3, [pc, #600]	; (8003d04 <HAL_RCC_ClockConfig+0x270>)
 8003aaa:	681b      	ldr	r3, [r3, #0]
 8003aac:	2201      	movs	r2, #1
 8003aae:	4013      	ands	r3, r2
 8003ab0:	683a      	ldr	r2, [r7, #0]
 8003ab2:	429a      	cmp	r2, r3
 8003ab4:	d91e      	bls.n	8003af4 <HAL_RCC_ClockConfig+0x60>
 8003ab6:	4b93      	ldr	r3, [pc, #588]	; (8003d04 <HAL_RCC_ClockConfig+0x270>)
 8003ab8:	681b      	ldr	r3, [r3, #0]
 8003aba:	2201      	movs	r2, #1
 8003abc:	4393      	bics	r3, r2
 8003abe:	0019      	movs	r1, r3
 8003ac0:	4b90      	ldr	r3, [pc, #576]	; (8003d04 <HAL_RCC_ClockConfig+0x270>)
 8003ac2:	683a      	ldr	r2, [r7, #0]
 8003ac4:	430a      	orrs	r2, r1
 8003ac6:	601a      	str	r2, [r3, #0]
 8003ac8:	f7fe fe24 	bl	8002714 <HAL_GetTick>
 8003acc:	0003      	movs	r3, r0
 8003ace:	60fb      	str	r3, [r7, #12]
 8003ad0:	e009      	b.n	8003ae6 <HAL_RCC_ClockConfig+0x52>
 8003ad2:	f7fe fe1f 	bl	8002714 <HAL_GetTick>
 8003ad6:	0002      	movs	r2, r0
 8003ad8:	68fb      	ldr	r3, [r7, #12]
 8003ada:	1ad3      	subs	r3, r2, r3
 8003adc:	4a8a      	ldr	r2, [pc, #552]	; (8003d08 <HAL_RCC_ClockConfig+0x274>)
 8003ade:	4293      	cmp	r3, r2
 8003ae0:	d901      	bls.n	8003ae6 <HAL_RCC_ClockConfig+0x52>
 8003ae2:	2303      	movs	r3, #3
 8003ae4:	e109      	b.n	8003cfa <HAL_RCC_ClockConfig+0x266>
 8003ae6:	4b87      	ldr	r3, [pc, #540]	; (8003d04 <HAL_RCC_ClockConfig+0x270>)
 8003ae8:	681b      	ldr	r3, [r3, #0]
 8003aea:	2201      	movs	r2, #1
 8003aec:	4013      	ands	r3, r2
 8003aee:	683a      	ldr	r2, [r7, #0]
 8003af0:	429a      	cmp	r2, r3
 8003af2:	d1ee      	bne.n	8003ad2 <HAL_RCC_ClockConfig+0x3e>
 8003af4:	687b      	ldr	r3, [r7, #4]
 8003af6:	681b      	ldr	r3, [r3, #0]
 8003af8:	2202      	movs	r2, #2
 8003afa:	4013      	ands	r3, r2
 8003afc:	d009      	beq.n	8003b12 <HAL_RCC_ClockConfig+0x7e>
 8003afe:	4b83      	ldr	r3, [pc, #524]	; (8003d0c <HAL_RCC_ClockConfig+0x278>)
 8003b00:	68db      	ldr	r3, [r3, #12]
 8003b02:	22f0      	movs	r2, #240	; 0xf0
 8003b04:	4393      	bics	r3, r2
 8003b06:	0019      	movs	r1, r3
 8003b08:	687b      	ldr	r3, [r7, #4]
 8003b0a:	689a      	ldr	r2, [r3, #8]
 8003b0c:	4b7f      	ldr	r3, [pc, #508]	; (8003d0c <HAL_RCC_ClockConfig+0x278>)
 8003b0e:	430a      	orrs	r2, r1
 8003b10:	60da      	str	r2, [r3, #12]
 8003b12:	687b      	ldr	r3, [r7, #4]
 8003b14:	681b      	ldr	r3, [r3, #0]
 8003b16:	2201      	movs	r2, #1
 8003b18:	4013      	ands	r3, r2
 8003b1a:	d100      	bne.n	8003b1e <HAL_RCC_ClockConfig+0x8a>
 8003b1c:	e089      	b.n	8003c32 <HAL_RCC_ClockConfig+0x19e>
 8003b1e:	687b      	ldr	r3, [r7, #4]
 8003b20:	685b      	ldr	r3, [r3, #4]
 8003b22:	2b02      	cmp	r3, #2
 8003b24:	d107      	bne.n	8003b36 <HAL_RCC_ClockConfig+0xa2>
 8003b26:	4b79      	ldr	r3, [pc, #484]	; (8003d0c <HAL_RCC_ClockConfig+0x278>)
 8003b28:	681a      	ldr	r2, [r3, #0]
 8003b2a:	2380      	movs	r3, #128	; 0x80
 8003b2c:	029b      	lsls	r3, r3, #10
 8003b2e:	4013      	ands	r3, r2
 8003b30:	d120      	bne.n	8003b74 <HAL_RCC_ClockConfig+0xe0>
 8003b32:	2301      	movs	r3, #1
 8003b34:	e0e1      	b.n	8003cfa <HAL_RCC_ClockConfig+0x266>
 8003b36:	687b      	ldr	r3, [r7, #4]
 8003b38:	685b      	ldr	r3, [r3, #4]
 8003b3a:	2b03      	cmp	r3, #3
 8003b3c:	d107      	bne.n	8003b4e <HAL_RCC_ClockConfig+0xba>
 8003b3e:	4b73      	ldr	r3, [pc, #460]	; (8003d0c <HAL_RCC_ClockConfig+0x278>)
 8003b40:	681a      	ldr	r2, [r3, #0]
 8003b42:	2380      	movs	r3, #128	; 0x80
 8003b44:	049b      	lsls	r3, r3, #18
 8003b46:	4013      	ands	r3, r2
 8003b48:	d114      	bne.n	8003b74 <HAL_RCC_ClockConfig+0xe0>
 8003b4a:	2301      	movs	r3, #1
 8003b4c:	e0d5      	b.n	8003cfa <HAL_RCC_ClockConfig+0x266>
 8003b4e:	687b      	ldr	r3, [r7, #4]
 8003b50:	685b      	ldr	r3, [r3, #4]
 8003b52:	2b01      	cmp	r3, #1
 8003b54:	d106      	bne.n	8003b64 <HAL_RCC_ClockConfig+0xd0>
 8003b56:	4b6d      	ldr	r3, [pc, #436]	; (8003d0c <HAL_RCC_ClockConfig+0x278>)
 8003b58:	681b      	ldr	r3, [r3, #0]
 8003b5a:	2204      	movs	r2, #4
 8003b5c:	4013      	ands	r3, r2
 8003b5e:	d109      	bne.n	8003b74 <HAL_RCC_ClockConfig+0xe0>
 8003b60:	2301      	movs	r3, #1
 8003b62:	e0ca      	b.n	8003cfa <HAL_RCC_ClockConfig+0x266>
 8003b64:	4b69      	ldr	r3, [pc, #420]	; (8003d0c <HAL_RCC_ClockConfig+0x278>)
 8003b66:	681a      	ldr	r2, [r3, #0]
 8003b68:	2380      	movs	r3, #128	; 0x80
 8003b6a:	009b      	lsls	r3, r3, #2
 8003b6c:	4013      	ands	r3, r2
 8003b6e:	d101      	bne.n	8003b74 <HAL_RCC_ClockConfig+0xe0>
 8003b70:	2301      	movs	r3, #1
 8003b72:	e0c2      	b.n	8003cfa <HAL_RCC_ClockConfig+0x266>
 8003b74:	4b65      	ldr	r3, [pc, #404]	; (8003d0c <HAL_RCC_ClockConfig+0x278>)
 8003b76:	68db      	ldr	r3, [r3, #12]
 8003b78:	2203      	movs	r2, #3
 8003b7a:	4393      	bics	r3, r2
 8003b7c:	0019      	movs	r1, r3
 8003b7e:	687b      	ldr	r3, [r7, #4]
 8003b80:	685a      	ldr	r2, [r3, #4]
 8003b82:	4b62      	ldr	r3, [pc, #392]	; (8003d0c <HAL_RCC_ClockConfig+0x278>)
 8003b84:	430a      	orrs	r2, r1
 8003b86:	60da      	str	r2, [r3, #12]
 8003b88:	f7fe fdc4 	bl	8002714 <HAL_GetTick>
 8003b8c:	0003      	movs	r3, r0
 8003b8e:	60fb      	str	r3, [r7, #12]
 8003b90:	687b      	ldr	r3, [r7, #4]
 8003b92:	685b      	ldr	r3, [r3, #4]
 8003b94:	2b02      	cmp	r3, #2
 8003b96:	d111      	bne.n	8003bbc <HAL_RCC_ClockConfig+0x128>
 8003b98:	e009      	b.n	8003bae <HAL_RCC_ClockConfig+0x11a>
 8003b9a:	f7fe fdbb 	bl	8002714 <HAL_GetTick>
 8003b9e:	0002      	movs	r2, r0
 8003ba0:	68fb      	ldr	r3, [r7, #12]
 8003ba2:	1ad3      	subs	r3, r2, r3
 8003ba4:	4a58      	ldr	r2, [pc, #352]	; (8003d08 <HAL_RCC_ClockConfig+0x274>)
 8003ba6:	4293      	cmp	r3, r2
 8003ba8:	d901      	bls.n	8003bae <HAL_RCC_ClockConfig+0x11a>
 8003baa:	2303      	movs	r3, #3
 8003bac:	e0a5      	b.n	8003cfa <HAL_RCC_ClockConfig+0x266>
 8003bae:	4b57      	ldr	r3, [pc, #348]	; (8003d0c <HAL_RCC_ClockConfig+0x278>)
 8003bb0:	68db      	ldr	r3, [r3, #12]
 8003bb2:	220c      	movs	r2, #12
 8003bb4:	4013      	ands	r3, r2
 8003bb6:	2b08      	cmp	r3, #8
 8003bb8:	d1ef      	bne.n	8003b9a <HAL_RCC_ClockConfig+0x106>
 8003bba:	e03a      	b.n	8003c32 <HAL_RCC_ClockConfig+0x19e>
 8003bbc:	687b      	ldr	r3, [r7, #4]
 8003bbe:	685b      	ldr	r3, [r3, #4]
 8003bc0:	2b03      	cmp	r3, #3
 8003bc2:	d111      	bne.n	8003be8 <HAL_RCC_ClockConfig+0x154>
 8003bc4:	e009      	b.n	8003bda <HAL_RCC_ClockConfig+0x146>
 8003bc6:	f7fe fda5 	bl	8002714 <HAL_GetTick>
 8003bca:	0002      	movs	r2, r0
 8003bcc:	68fb      	ldr	r3, [r7, #12]
 8003bce:	1ad3      	subs	r3, r2, r3
 8003bd0:	4a4d      	ldr	r2, [pc, #308]	; (8003d08 <HAL_RCC_ClockConfig+0x274>)
 8003bd2:	4293      	cmp	r3, r2
 8003bd4:	d901      	bls.n	8003bda <HAL_RCC_ClockConfig+0x146>
 8003bd6:	2303      	movs	r3, #3
 8003bd8:	e08f      	b.n	8003cfa <HAL_RCC_ClockConfig+0x266>
 8003bda:	4b4c      	ldr	r3, [pc, #304]	; (8003d0c <HAL_RCC_ClockConfig+0x278>)
 8003bdc:	68db      	ldr	r3, [r3, #12]
 8003bde:	220c      	movs	r2, #12
 8003be0:	4013      	ands	r3, r2
 8003be2:	2b0c      	cmp	r3, #12
 8003be4:	d1ef      	bne.n	8003bc6 <HAL_RCC_ClockConfig+0x132>
 8003be6:	e024      	b.n	8003c32 <HAL_RCC_ClockConfig+0x19e>
 8003be8:	687b      	ldr	r3, [r7, #4]
 8003bea:	685b      	ldr	r3, [r3, #4]
 8003bec:	2b01      	cmp	r3, #1
 8003bee:	d11b      	bne.n	8003c28 <HAL_RCC_ClockConfig+0x194>
 8003bf0:	e009      	b.n	8003c06 <HAL_RCC_ClockConfig+0x172>
 8003bf2:	f7fe fd8f 	bl	8002714 <HAL_GetTick>
 8003bf6:	0002      	movs	r2, r0
 8003bf8:	68fb      	ldr	r3, [r7, #12]
 8003bfa:	1ad3      	subs	r3, r2, r3
 8003bfc:	4a42      	ldr	r2, [pc, #264]	; (8003d08 <HAL_RCC_ClockConfig+0x274>)
 8003bfe:	4293      	cmp	r3, r2
 8003c00:	d901      	bls.n	8003c06 <HAL_RCC_ClockConfig+0x172>
 8003c02:	2303      	movs	r3, #3
 8003c04:	e079      	b.n	8003cfa <HAL_RCC_ClockConfig+0x266>
 8003c06:	4b41      	ldr	r3, [pc, #260]	; (8003d0c <HAL_RCC_ClockConfig+0x278>)
 8003c08:	68db      	ldr	r3, [r3, #12]
 8003c0a:	220c      	movs	r2, #12
 8003c0c:	4013      	ands	r3, r2
 8003c0e:	2b04      	cmp	r3, #4
 8003c10:	d1ef      	bne.n	8003bf2 <HAL_RCC_ClockConfig+0x15e>
 8003c12:	e00e      	b.n	8003c32 <HAL_RCC_ClockConfig+0x19e>
 8003c14:	f7fe fd7e 	bl	8002714 <HAL_GetTick>
 8003c18:	0002      	movs	r2, r0
 8003c1a:	68fb      	ldr	r3, [r7, #12]
 8003c1c:	1ad3      	subs	r3, r2, r3
 8003c1e:	4a3a      	ldr	r2, [pc, #232]	; (8003d08 <HAL_RCC_ClockConfig+0x274>)
 8003c20:	4293      	cmp	r3, r2
 8003c22:	d901      	bls.n	8003c28 <HAL_RCC_ClockConfig+0x194>
 8003c24:	2303      	movs	r3, #3
 8003c26:	e068      	b.n	8003cfa <HAL_RCC_ClockConfig+0x266>
 8003c28:	4b38      	ldr	r3, [pc, #224]	; (8003d0c <HAL_RCC_ClockConfig+0x278>)
 8003c2a:	68db      	ldr	r3, [r3, #12]
 8003c2c:	220c      	movs	r2, #12
 8003c2e:	4013      	ands	r3, r2
 8003c30:	d1f0      	bne.n	8003c14 <HAL_RCC_ClockConfig+0x180>
 8003c32:	4b34      	ldr	r3, [pc, #208]	; (8003d04 <HAL_RCC_ClockConfig+0x270>)
 8003c34:	681b      	ldr	r3, [r3, #0]
 8003c36:	2201      	movs	r2, #1
 8003c38:	4013      	ands	r3, r2
 8003c3a:	683a      	ldr	r2, [r7, #0]
 8003c3c:	429a      	cmp	r2, r3
 8003c3e:	d21e      	bcs.n	8003c7e <HAL_RCC_ClockConfig+0x1ea>
 8003c40:	4b30      	ldr	r3, [pc, #192]	; (8003d04 <HAL_RCC_ClockConfig+0x270>)
 8003c42:	681b      	ldr	r3, [r3, #0]
 8003c44:	2201      	movs	r2, #1
 8003c46:	4393      	bics	r3, r2
 8003c48:	0019      	movs	r1, r3
 8003c4a:	4b2e      	ldr	r3, [pc, #184]	; (8003d04 <HAL_RCC_ClockConfig+0x270>)
 8003c4c:	683a      	ldr	r2, [r7, #0]
 8003c4e:	430a      	orrs	r2, r1
 8003c50:	601a      	str	r2, [r3, #0]
 8003c52:	f7fe fd5f 	bl	8002714 <HAL_GetTick>
 8003c56:	0003      	movs	r3, r0
 8003c58:	60fb      	str	r3, [r7, #12]
 8003c5a:	e009      	b.n	8003c70 <HAL_RCC_ClockConfig+0x1dc>
 8003c5c:	f7fe fd5a 	bl	8002714 <HAL_GetTick>
 8003c60:	0002      	movs	r2, r0
 8003c62:	68fb      	ldr	r3, [r7, #12]
 8003c64:	1ad3      	subs	r3, r2, r3
 8003c66:	4a28      	ldr	r2, [pc, #160]	; (8003d08 <HAL_RCC_ClockConfig+0x274>)
 8003c68:	4293      	cmp	r3, r2
 8003c6a:	d901      	bls.n	8003c70 <HAL_RCC_ClockConfig+0x1dc>
 8003c6c:	2303      	movs	r3, #3
 8003c6e:	e044      	b.n	8003cfa <HAL_RCC_ClockConfig+0x266>
 8003c70:	4b24      	ldr	r3, [pc, #144]	; (8003d04 <HAL_RCC_ClockConfig+0x270>)
 8003c72:	681b      	ldr	r3, [r3, #0]
 8003c74:	2201      	movs	r2, #1
 8003c76:	4013      	ands	r3, r2
 8003c78:	683a      	ldr	r2, [r7, #0]
 8003c7a:	429a      	cmp	r2, r3
 8003c7c:	d1ee      	bne.n	8003c5c <HAL_RCC_ClockConfig+0x1c8>
 8003c7e:	687b      	ldr	r3, [r7, #4]
 8003c80:	681b      	ldr	r3, [r3, #0]
 8003c82:	2204      	movs	r2, #4
 8003c84:	4013      	ands	r3, r2
 8003c86:	d009      	beq.n	8003c9c <HAL_RCC_ClockConfig+0x208>
 8003c88:	4b20      	ldr	r3, [pc, #128]	; (8003d0c <HAL_RCC_ClockConfig+0x278>)
 8003c8a:	68db      	ldr	r3, [r3, #12]
 8003c8c:	4a20      	ldr	r2, [pc, #128]	; (8003d10 <HAL_RCC_ClockConfig+0x27c>)
 8003c8e:	4013      	ands	r3, r2
 8003c90:	0019      	movs	r1, r3
 8003c92:	687b      	ldr	r3, [r7, #4]
 8003c94:	68da      	ldr	r2, [r3, #12]
 8003c96:	4b1d      	ldr	r3, [pc, #116]	; (8003d0c <HAL_RCC_ClockConfig+0x278>)
 8003c98:	430a      	orrs	r2, r1
 8003c9a:	60da      	str	r2, [r3, #12]
 8003c9c:	687b      	ldr	r3, [r7, #4]
 8003c9e:	681b      	ldr	r3, [r3, #0]
 8003ca0:	2208      	movs	r2, #8
 8003ca2:	4013      	ands	r3, r2
 8003ca4:	d00a      	beq.n	8003cbc <HAL_RCC_ClockConfig+0x228>
 8003ca6:	4b19      	ldr	r3, [pc, #100]	; (8003d0c <HAL_RCC_ClockConfig+0x278>)
 8003ca8:	68db      	ldr	r3, [r3, #12]
 8003caa:	4a1a      	ldr	r2, [pc, #104]	; (8003d14 <HAL_RCC_ClockConfig+0x280>)
 8003cac:	4013      	ands	r3, r2
 8003cae:	0019      	movs	r1, r3
 8003cb0:	687b      	ldr	r3, [r7, #4]
 8003cb2:	691b      	ldr	r3, [r3, #16]
 8003cb4:	00da      	lsls	r2, r3, #3
 8003cb6:	4b15      	ldr	r3, [pc, #84]	; (8003d0c <HAL_RCC_ClockConfig+0x278>)
 8003cb8:	430a      	orrs	r2, r1
 8003cba:	60da      	str	r2, [r3, #12]
 8003cbc:	f000 f832 	bl	8003d24 <HAL_RCC_GetSysClockFreq>
 8003cc0:	0001      	movs	r1, r0
 8003cc2:	4b12      	ldr	r3, [pc, #72]	; (8003d0c <HAL_RCC_ClockConfig+0x278>)
 8003cc4:	68db      	ldr	r3, [r3, #12]
 8003cc6:	091b      	lsrs	r3, r3, #4
 8003cc8:	220f      	movs	r2, #15
 8003cca:	4013      	ands	r3, r2
 8003ccc:	4a12      	ldr	r2, [pc, #72]	; (8003d18 <HAL_RCC_ClockConfig+0x284>)
 8003cce:	5cd3      	ldrb	r3, [r2, r3]
 8003cd0:	000a      	movs	r2, r1
 8003cd2:	40da      	lsrs	r2, r3
 8003cd4:	4b11      	ldr	r3, [pc, #68]	; (8003d1c <HAL_RCC_ClockConfig+0x288>)
 8003cd6:	601a      	str	r2, [r3, #0]
 8003cd8:	4b11      	ldr	r3, [pc, #68]	; (8003d20 <HAL_RCC_ClockConfig+0x28c>)
 8003cda:	681b      	ldr	r3, [r3, #0]
 8003cdc:	250b      	movs	r5, #11
 8003cde:	197c      	adds	r4, r7, r5
 8003ce0:	0018      	movs	r0, r3
 8003ce2:	f7fe fcd1 	bl	8002688 <HAL_InitTick>
 8003ce6:	0003      	movs	r3, r0
 8003ce8:	7023      	strb	r3, [r4, #0]
 8003cea:	197b      	adds	r3, r7, r5
 8003cec:	781b      	ldrb	r3, [r3, #0]
 8003cee:	2b00      	cmp	r3, #0
 8003cf0:	d002      	beq.n	8003cf8 <HAL_RCC_ClockConfig+0x264>
 8003cf2:	197b      	adds	r3, r7, r5
 8003cf4:	781b      	ldrb	r3, [r3, #0]
 8003cf6:	e000      	b.n	8003cfa <HAL_RCC_ClockConfig+0x266>
 8003cf8:	2300      	movs	r3, #0
 8003cfa:	0018      	movs	r0, r3
 8003cfc:	46bd      	mov	sp, r7
 8003cfe:	b004      	add	sp, #16
 8003d00:	bdb0      	pop	{r4, r5, r7, pc}
 8003d02:	46c0      	nop			; (mov r8, r8)
 8003d04:	40022000 	.word	0x40022000
 8003d08:	00001388 	.word	0x00001388
 8003d0c:	40021000 	.word	0x40021000
 8003d10:	fffff8ff 	.word	0xfffff8ff
 8003d14:	ffffc7ff 	.word	0xffffc7ff
 8003d18:	080070c0 	.word	0x080070c0
 8003d1c:	200001a4 	.word	0x200001a4
 8003d20:	200001a8 	.word	0x200001a8

08003d24 <HAL_RCC_GetSysClockFreq>:
 8003d24:	b5b0      	push	{r4, r5, r7, lr}
 8003d26:	b08e      	sub	sp, #56	; 0x38
 8003d28:	af00      	add	r7, sp, #0
 8003d2a:	4b4c      	ldr	r3, [pc, #304]	; (8003e5c <HAL_RCC_GetSysClockFreq+0x138>)
 8003d2c:	68db      	ldr	r3, [r3, #12]
 8003d2e:	62fb      	str	r3, [r7, #44]	; 0x2c
 8003d30:	6afa      	ldr	r2, [r7, #44]	; 0x2c
 8003d32:	230c      	movs	r3, #12
 8003d34:	4013      	ands	r3, r2
 8003d36:	2b0c      	cmp	r3, #12
 8003d38:	d014      	beq.n	8003d64 <HAL_RCC_GetSysClockFreq+0x40>
 8003d3a:	d900      	bls.n	8003d3e <HAL_RCC_GetSysClockFreq+0x1a>
 8003d3c:	e07b      	b.n	8003e36 <HAL_RCC_GetSysClockFreq+0x112>
 8003d3e:	2b04      	cmp	r3, #4
 8003d40:	d002      	beq.n	8003d48 <HAL_RCC_GetSysClockFreq+0x24>
 8003d42:	2b08      	cmp	r3, #8
 8003d44:	d00b      	beq.n	8003d5e <HAL_RCC_GetSysClockFreq+0x3a>
 8003d46:	e076      	b.n	8003e36 <HAL_RCC_GetSysClockFreq+0x112>
 8003d48:	4b44      	ldr	r3, [pc, #272]	; (8003e5c <HAL_RCC_GetSysClockFreq+0x138>)
 8003d4a:	681b      	ldr	r3, [r3, #0]
 8003d4c:	2210      	movs	r2, #16
 8003d4e:	4013      	ands	r3, r2
 8003d50:	d002      	beq.n	8003d58 <HAL_RCC_GetSysClockFreq+0x34>
 8003d52:	4b43      	ldr	r3, [pc, #268]	; (8003e60 <HAL_RCC_GetSysClockFreq+0x13c>)
 8003d54:	633b      	str	r3, [r7, #48]	; 0x30
 8003d56:	e07c      	b.n	8003e52 <HAL_RCC_GetSysClockFreq+0x12e>
 8003d58:	4b42      	ldr	r3, [pc, #264]	; (8003e64 <HAL_RCC_GetSysClockFreq+0x140>)
 8003d5a:	633b      	str	r3, [r7, #48]	; 0x30
 8003d5c:	e079      	b.n	8003e52 <HAL_RCC_GetSysClockFreq+0x12e>
 8003d5e:	4b42      	ldr	r3, [pc, #264]	; (8003e68 <HAL_RCC_GetSysClockFreq+0x144>)
 8003d60:	633b      	str	r3, [r7, #48]	; 0x30
 8003d62:	e076      	b.n	8003e52 <HAL_RCC_GetSysClockFreq+0x12e>
 8003d64:	6afb      	ldr	r3, [r7, #44]	; 0x2c
 8003d66:	0c9a      	lsrs	r2, r3, #18
 8003d68:	230f      	movs	r3, #15
 8003d6a:	401a      	ands	r2, r3
 8003d6c:	4b3f      	ldr	r3, [pc, #252]	; (8003e6c <HAL_RCC_GetSysClockFreq+0x148>)
 8003d6e:	5c9b      	ldrb	r3, [r3, r2]
 8003d70:	62bb      	str	r3, [r7, #40]	; 0x28
 8003d72:	6afb      	ldr	r3, [r7, #44]	; 0x2c
 8003d74:	0d9a      	lsrs	r2, r3, #22
 8003d76:	2303      	movs	r3, #3
 8003d78:	4013      	ands	r3, r2
 8003d7a:	3301      	adds	r3, #1
 8003d7c:	627b      	str	r3, [r7, #36]	; 0x24
 8003d7e:	4b37      	ldr	r3, [pc, #220]	; (8003e5c <HAL_RCC_GetSysClockFreq+0x138>)
 8003d80:	68da      	ldr	r2, [r3, #12]
 8003d82:	2380      	movs	r3, #128	; 0x80
 8003d84:	025b      	lsls	r3, r3, #9
 8003d86:	4013      	ands	r3, r2
 8003d88:	d01a      	beq.n	8003dc0 <HAL_RCC_GetSysClockFreq+0x9c>
 8003d8a:	6abb      	ldr	r3, [r7, #40]	; 0x28
 8003d8c:	61bb      	str	r3, [r7, #24]
 8003d8e:	2300      	movs	r3, #0
 8003d90:	61fb      	str	r3, [r7, #28]
 8003d92:	4a35      	ldr	r2, [pc, #212]	; (8003e68 <HAL_RCC_GetSysClockFreq+0x144>)
 8003d94:	2300      	movs	r3, #0
 8003d96:	69b8      	ldr	r0, [r7, #24]
 8003d98:	69f9      	ldr	r1, [r7, #28]
 8003d9a:	f7fc fa7d 	bl	8000298 <__aeabi_lmul>
 8003d9e:	0002      	movs	r2, r0
 8003da0:	000b      	movs	r3, r1
 8003da2:	0010      	movs	r0, r2
 8003da4:	0019      	movs	r1, r3
 8003da6:	6a7b      	ldr	r3, [r7, #36]	; 0x24
 8003da8:	613b      	str	r3, [r7, #16]
 8003daa:	2300      	movs	r3, #0
 8003dac:	617b      	str	r3, [r7, #20]
 8003dae:	693a      	ldr	r2, [r7, #16]
 8003db0:	697b      	ldr	r3, [r7, #20]
 8003db2:	f7fc fa51 	bl	8000258 <__aeabi_uldivmod>
 8003db6:	0002      	movs	r2, r0
 8003db8:	000b      	movs	r3, r1
 8003dba:	0013      	movs	r3, r2
 8003dbc:	637b      	str	r3, [r7, #52]	; 0x34
 8003dbe:	e037      	b.n	8003e30 <HAL_RCC_GetSysClockFreq+0x10c>
 8003dc0:	4b26      	ldr	r3, [pc, #152]	; (8003e5c <HAL_RCC_GetSysClockFreq+0x138>)
 8003dc2:	681b      	ldr	r3, [r3, #0]
 8003dc4:	2210      	movs	r2, #16
 8003dc6:	4013      	ands	r3, r2
 8003dc8:	d01a      	beq.n	8003e00 <HAL_RCC_GetSysClockFreq+0xdc>
 8003dca:	6abb      	ldr	r3, [r7, #40]	; 0x28
 8003dcc:	60bb      	str	r3, [r7, #8]
 8003dce:	2300      	movs	r3, #0
 8003dd0:	60fb      	str	r3, [r7, #12]
 8003dd2:	4a23      	ldr	r2, [pc, #140]	; (8003e60 <HAL_RCC_GetSysClockFreq+0x13c>)
 8003dd4:	2300      	movs	r3, #0
 8003dd6:	68b8      	ldr	r0, [r7, #8]
 8003dd8:	68f9      	ldr	r1, [r7, #12]
 8003dda:	f7fc fa5d 	bl	8000298 <__aeabi_lmul>
 8003dde:	0002      	movs	r2, r0
 8003de0:	000b      	movs	r3, r1
 8003de2:	0010      	movs	r0, r2
 8003de4:	0019      	movs	r1, r3
 8003de6:	6a7b      	ldr	r3, [r7, #36]	; 0x24
 8003de8:	603b      	str	r3, [r7, #0]
 8003dea:	2300      	movs	r3, #0
 8003dec:	607b      	str	r3, [r7, #4]
 8003dee:	683a      	ldr	r2, [r7, #0]
 8003df0:	687b      	ldr	r3, [r7, #4]
 8003df2:	f7fc fa31 	bl	8000258 <__aeabi_uldivmod>
 8003df6:	0002      	movs	r2, r0
 8003df8:	000b      	movs	r3, r1
 8003dfa:	0013      	movs	r3, r2
 8003dfc:	637b      	str	r3, [r7, #52]	; 0x34
 8003dfe:	e017      	b.n	8003e30 <HAL_RCC_GetSysClockFreq+0x10c>
 8003e00:	6abb      	ldr	r3, [r7, #40]	; 0x28
 8003e02:	0018      	movs	r0, r3
 8003e04:	2300      	movs	r3, #0
 8003e06:	0019      	movs	r1, r3
 8003e08:	4a16      	ldr	r2, [pc, #88]	; (8003e64 <HAL_RCC_GetSysClockFreq+0x140>)
 8003e0a:	2300      	movs	r3, #0
 8003e0c:	f7fc fa44 	bl	8000298 <__aeabi_lmul>
 8003e10:	0002      	movs	r2, r0
 8003e12:	000b      	movs	r3, r1
 8003e14:	0010      	movs	r0, r2
 8003e16:	0019      	movs	r1, r3
 8003e18:	6a7b      	ldr	r3, [r7, #36]	; 0x24
 8003e1a:	001c      	movs	r4, r3
 8003e1c:	2300      	movs	r3, #0
 8003e1e:	001d      	movs	r5, r3
 8003e20:	0022      	movs	r2, r4
 8003e22:	002b      	movs	r3, r5
 8003e24:	f7fc fa18 	bl	8000258 <__aeabi_uldivmod>
 8003e28:	0002      	movs	r2, r0
 8003e2a:	000b      	movs	r3, r1
 8003e2c:	0013      	movs	r3, r2
 8003e2e:	637b      	str	r3, [r7, #52]	; 0x34
 8003e30:	6b7b      	ldr	r3, [r7, #52]	; 0x34
 8003e32:	633b      	str	r3, [r7, #48]	; 0x30
 8003e34:	e00d      	b.n	8003e52 <HAL_RCC_GetSysClockFreq+0x12e>
 8003e36:	4b09      	ldr	r3, [pc, #36]	; (8003e5c <HAL_RCC_GetSysClockFreq+0x138>)
 8003e38:	685b      	ldr	r3, [r3, #4]
 8003e3a:	0b5b      	lsrs	r3, r3, #13
 8003e3c:	2207      	movs	r2, #7
 8003e3e:	4013      	ands	r3, r2
 8003e40:	623b      	str	r3, [r7, #32]
 8003e42:	6a3b      	ldr	r3, [r7, #32]
 8003e44:	3301      	adds	r3, #1
 8003e46:	2280      	movs	r2, #128	; 0x80
 8003e48:	0212      	lsls	r2, r2, #8
 8003e4a:	409a      	lsls	r2, r3
 8003e4c:	0013      	movs	r3, r2
 8003e4e:	633b      	str	r3, [r7, #48]	; 0x30
 8003e50:	46c0      	nop			; (mov r8, r8)
 8003e52:	6b3b      	ldr	r3, [r7, #48]	; 0x30
 8003e54:	0018      	movs	r0, r3
 8003e56:	46bd      	mov	sp, r7
 8003e58:	b00e      	add	sp, #56	; 0x38
 8003e5a:	bdb0      	pop	{r4, r5, r7, pc}
 8003e5c:	40021000 	.word	0x40021000
 8003e60:	003d0900 	.word	0x003d0900
 8003e64:	00f42400 	.word	0x00f42400
 8003e68:	007a1200 	.word	0x007a1200
 8003e6c:	080070d8 	.word	0x080070d8

08003e70 <HAL_RCC_GetHCLKFreq>:
 8003e70:	b580      	push	{r7, lr}
 8003e72:	af00      	add	r7, sp, #0
 8003e74:	4b02      	ldr	r3, [pc, #8]	; (8003e80 <HAL_RCC_GetHCLKFreq+0x10>)
 8003e76:	681b      	ldr	r3, [r3, #0]
 8003e78:	0018      	movs	r0, r3
 8003e7a:	46bd      	mov	sp, r7
 8003e7c:	bd80      	pop	{r7, pc}
 8003e7e:	46c0      	nop			; (mov r8, r8)
 8003e80:	200001a4 	.word	0x200001a4

08003e84 <HAL_RCC_GetPCLK1Freq>:
 8003e84:	b580      	push	{r7, lr}
 8003e86:	af00      	add	r7, sp, #0
 8003e88:	f7ff fff2 	bl	8003e70 <HAL_RCC_GetHCLKFreq>
 8003e8c:	0001      	movs	r1, r0
 8003e8e:	4b06      	ldr	r3, [pc, #24]	; (8003ea8 <HAL_RCC_GetPCLK1Freq+0x24>)
 8003e90:	68db      	ldr	r3, [r3, #12]
 8003e92:	0a1b      	lsrs	r3, r3, #8
 8003e94:	2207      	movs	r2, #7
 8003e96:	4013      	ands	r3, r2
 8003e98:	4a04      	ldr	r2, [pc, #16]	; (8003eac <HAL_RCC_GetPCLK1Freq+0x28>)
 8003e9a:	5cd3      	ldrb	r3, [r2, r3]
 8003e9c:	40d9      	lsrs	r1, r3
 8003e9e:	000b      	movs	r3, r1
 8003ea0:	0018      	movs	r0, r3
 8003ea2:	46bd      	mov	sp, r7
 8003ea4:	bd80      	pop	{r7, pc}
 8003ea6:	46c0      	nop			; (mov r8, r8)
 8003ea8:	40021000 	.word	0x40021000
 8003eac:	080070d0 	.word	0x080070d0

08003eb0 <HAL_RCC_GetPCLK2Freq>:
 8003eb0:	b580      	push	{r7, lr}
 8003eb2:	af00      	add	r7, sp, #0
 8003eb4:	f7ff ffdc 	bl	8003e70 <HAL_RCC_GetHCLKFreq>
 8003eb8:	0001      	movs	r1, r0
 8003eba:	4b06      	ldr	r3, [pc, #24]	; (8003ed4 <HAL_RCC_GetPCLK2Freq+0x24>)
 8003ebc:	68db      	ldr	r3, [r3, #12]
 8003ebe:	0adb      	lsrs	r3, r3, #11
 8003ec0:	2207      	movs	r2, #7
 8003ec2:	4013      	ands	r3, r2
 8003ec4:	4a04      	ldr	r2, [pc, #16]	; (8003ed8 <HAL_RCC_GetPCLK2Freq+0x28>)
 8003ec6:	5cd3      	ldrb	r3, [r2, r3]
 8003ec8:	40d9      	lsrs	r1, r3
 8003eca:	000b      	movs	r3, r1
 8003ecc:	0018      	movs	r0, r3
 8003ece:	46bd      	mov	sp, r7
 8003ed0:	bd80      	pop	{r7, pc}
 8003ed2:	46c0      	nop			; (mov r8, r8)
 8003ed4:	40021000 	.word	0x40021000
 8003ed8:	080070d0 	.word	0x080070d0

08003edc <HAL_RCCEx_PeriphCLKConfig>:
 8003edc:	b580      	push	{r7, lr}
 8003ede:	b086      	sub	sp, #24
 8003ee0:	af00      	add	r7, sp, #0
 8003ee2:	6078      	str	r0, [r7, #4]
 8003ee4:	2317      	movs	r3, #23
 8003ee6:	18fb      	adds	r3, r7, r3
 8003ee8:	2200      	movs	r2, #0
 8003eea:	701a      	strb	r2, [r3, #0]
 8003eec:	687b      	ldr	r3, [r7, #4]
 8003eee:	681b      	ldr	r3, [r3, #0]
 8003ef0:	2220      	movs	r2, #32
 8003ef2:	4013      	ands	r3, r2
 8003ef4:	d106      	bne.n	8003f04 <HAL_RCCEx_PeriphCLKConfig+0x28>
 8003ef6:	687b      	ldr	r3, [r7, #4]
 8003ef8:	681a      	ldr	r2, [r3, #0]
 8003efa:	2380      	movs	r3, #128	; 0x80
 8003efc:	011b      	lsls	r3, r3, #4
 8003efe:	4013      	ands	r3, r2
 8003f00:	d100      	bne.n	8003f04 <HAL_RCCEx_PeriphCLKConfig+0x28>
 8003f02:	e104      	b.n	800410e <HAL_RCCEx_PeriphCLKConfig+0x232>
 8003f04:	4bb9      	ldr	r3, [pc, #740]	; (80041ec <HAL_RCCEx_PeriphCLKConfig+0x310>)
 8003f06:	6b9a      	ldr	r2, [r3, #56]	; 0x38
 8003f08:	2380      	movs	r3, #128	; 0x80
 8003f0a:	055b      	lsls	r3, r3, #21
 8003f0c:	4013      	ands	r3, r2
 8003f0e:	d10a      	bne.n	8003f26 <HAL_RCCEx_PeriphCLKConfig+0x4a>
 8003f10:	4bb6      	ldr	r3, [pc, #728]	; (80041ec <HAL_RCCEx_PeriphCLKConfig+0x310>)
 8003f12:	6b9a      	ldr	r2, [r3, #56]	; 0x38
 8003f14:	4bb5      	ldr	r3, [pc, #724]	; (80041ec <HAL_RCCEx_PeriphCLKConfig+0x310>)
 8003f16:	2180      	movs	r1, #128	; 0x80
 8003f18:	0549      	lsls	r1, r1, #21
 8003f1a:	430a      	orrs	r2, r1
 8003f1c:	639a      	str	r2, [r3, #56]	; 0x38
 8003f1e:	2317      	movs	r3, #23
 8003f20:	18fb      	adds	r3, r7, r3
 8003f22:	2201      	movs	r2, #1
 8003f24:	701a      	strb	r2, [r3, #0]
 8003f26:	4bb2      	ldr	r3, [pc, #712]	; (80041f0 <HAL_RCCEx_PeriphCLKConfig+0x314>)
 8003f28:	681a      	ldr	r2, [r3, #0]
 8003f2a:	2380      	movs	r3, #128	; 0x80
 8003f2c:	005b      	lsls	r3, r3, #1
 8003f2e:	4013      	ands	r3, r2
 8003f30:	d11a      	bne.n	8003f68 <HAL_RCCEx_PeriphCLKConfig+0x8c>
 8003f32:	4baf      	ldr	r3, [pc, #700]	; (80041f0 <HAL_RCCEx_PeriphCLKConfig+0x314>)
 8003f34:	681a      	ldr	r2, [r3, #0]
 8003f36:	4bae      	ldr	r3, [pc, #696]	; (80041f0 <HAL_RCCEx_PeriphCLKConfig+0x314>)
 8003f38:	2180      	movs	r1, #128	; 0x80
 8003f3a:	0049      	lsls	r1, r1, #1
 8003f3c:	430a      	orrs	r2, r1
 8003f3e:	601a      	str	r2, [r3, #0]
 8003f40:	f7fe fbe8 	bl	8002714 <HAL_GetTick>
 8003f44:	0003      	movs	r3, r0
 8003f46:	613b      	str	r3, [r7, #16]
 8003f48:	e008      	b.n	8003f5c <HAL_RCCEx_PeriphCLKConfig+0x80>
 8003f4a:	f7fe fbe3 	bl	8002714 <HAL_GetTick>
 8003f4e:	0002      	movs	r2, r0
 8003f50:	693b      	ldr	r3, [r7, #16]
 8003f52:	1ad3      	subs	r3, r2, r3
 8003f54:	2b64      	cmp	r3, #100	; 0x64
 8003f56:	d901      	bls.n	8003f5c <HAL_RCCEx_PeriphCLKConfig+0x80>
 8003f58:	2303      	movs	r3, #3
 8003f5a:	e143      	b.n	80041e4 <HAL_RCCEx_PeriphCLKConfig+0x308>
 8003f5c:	4ba4      	ldr	r3, [pc, #656]	; (80041f0 <HAL_RCCEx_PeriphCLKConfig+0x314>)
 8003f5e:	681a      	ldr	r2, [r3, #0]
 8003f60:	2380      	movs	r3, #128	; 0x80
 8003f62:	005b      	lsls	r3, r3, #1
 8003f64:	4013      	ands	r3, r2
 8003f66:	d0f0      	beq.n	8003f4a <HAL_RCCEx_PeriphCLKConfig+0x6e>
 8003f68:	4ba0      	ldr	r3, [pc, #640]	; (80041ec <HAL_RCCEx_PeriphCLKConfig+0x310>)
 8003f6a:	681a      	ldr	r2, [r3, #0]
 8003f6c:	23c0      	movs	r3, #192	; 0xc0
 8003f6e:	039b      	lsls	r3, r3, #14
 8003f70:	4013      	ands	r3, r2
 8003f72:	60fb      	str	r3, [r7, #12]
 8003f74:	687b      	ldr	r3, [r7, #4]
 8003f76:	685a      	ldr	r2, [r3, #4]
 8003f78:	23c0      	movs	r3, #192	; 0xc0
 8003f7a:	039b      	lsls	r3, r3, #14
 8003f7c:	4013      	ands	r3, r2
 8003f7e:	68fa      	ldr	r2, [r7, #12]
 8003f80:	429a      	cmp	r2, r3
 8003f82:	d107      	bne.n	8003f94 <HAL_RCCEx_PeriphCLKConfig+0xb8>
 8003f84:	687b      	ldr	r3, [r7, #4]
 8003f86:	689a      	ldr	r2, [r3, #8]
 8003f88:	23c0      	movs	r3, #192	; 0xc0
 8003f8a:	039b      	lsls	r3, r3, #14
 8003f8c:	4013      	ands	r3, r2
 8003f8e:	68fa      	ldr	r2, [r7, #12]
 8003f90:	429a      	cmp	r2, r3
 8003f92:	d013      	beq.n	8003fbc <HAL_RCCEx_PeriphCLKConfig+0xe0>
 8003f94:	687b      	ldr	r3, [r7, #4]
 8003f96:	685a      	ldr	r2, [r3, #4]
 8003f98:	23c0      	movs	r3, #192	; 0xc0
 8003f9a:	029b      	lsls	r3, r3, #10
 8003f9c:	401a      	ands	r2, r3
 8003f9e:	23c0      	movs	r3, #192	; 0xc0
 8003fa0:	029b      	lsls	r3, r3, #10
 8003fa2:	429a      	cmp	r2, r3
 8003fa4:	d10a      	bne.n	8003fbc <HAL_RCCEx_PeriphCLKConfig+0xe0>
 8003fa6:	4b91      	ldr	r3, [pc, #580]	; (80041ec <HAL_RCCEx_PeriphCLKConfig+0x310>)
 8003fa8:	681a      	ldr	r2, [r3, #0]
 8003faa:	2380      	movs	r3, #128	; 0x80
 8003fac:	029b      	lsls	r3, r3, #10
 8003fae:	401a      	ands	r2, r3
 8003fb0:	2380      	movs	r3, #128	; 0x80
 8003fb2:	029b      	lsls	r3, r3, #10
 8003fb4:	429a      	cmp	r2, r3
 8003fb6:	d101      	bne.n	8003fbc <HAL_RCCEx_PeriphCLKConfig+0xe0>
 8003fb8:	2301      	movs	r3, #1
 8003fba:	e113      	b.n	80041e4 <HAL_RCCEx_PeriphCLKConfig+0x308>
 8003fbc:	4b8b      	ldr	r3, [pc, #556]	; (80041ec <HAL_RCCEx_PeriphCLKConfig+0x310>)
 8003fbe:	6d1a      	ldr	r2, [r3, #80]	; 0x50
 8003fc0:	23c0      	movs	r3, #192	; 0xc0
 8003fc2:	029b      	lsls	r3, r3, #10
 8003fc4:	4013      	ands	r3, r2
 8003fc6:	60fb      	str	r3, [r7, #12]
 8003fc8:	68fb      	ldr	r3, [r7, #12]
 8003fca:	2b00      	cmp	r3, #0
 8003fcc:	d049      	beq.n	8004062 <HAL_RCCEx_PeriphCLKConfig+0x186>
 8003fce:	687b      	ldr	r3, [r7, #4]
 8003fd0:	685a      	ldr	r2, [r3, #4]
 8003fd2:	23c0      	movs	r3, #192	; 0xc0
 8003fd4:	029b      	lsls	r3, r3, #10
 8003fd6:	4013      	ands	r3, r2
 8003fd8:	68fa      	ldr	r2, [r7, #12]
 8003fda:	429a      	cmp	r2, r3
 8003fdc:	d004      	beq.n	8003fe8 <HAL_RCCEx_PeriphCLKConfig+0x10c>
 8003fde:	687b      	ldr	r3, [r7, #4]
 8003fe0:	681b      	ldr	r3, [r3, #0]
 8003fe2:	2220      	movs	r2, #32
 8003fe4:	4013      	ands	r3, r2
 8003fe6:	d10d      	bne.n	8004004 <HAL_RCCEx_PeriphCLKConfig+0x128>
 8003fe8:	687b      	ldr	r3, [r7, #4]
 8003fea:	689a      	ldr	r2, [r3, #8]
 8003fec:	23c0      	movs	r3, #192	; 0xc0
 8003fee:	029b      	lsls	r3, r3, #10
 8003ff0:	4013      	ands	r3, r2
 8003ff2:	68fa      	ldr	r2, [r7, #12]
 8003ff4:	429a      	cmp	r2, r3
 8003ff6:	d034      	beq.n	8004062 <HAL_RCCEx_PeriphCLKConfig+0x186>
 8003ff8:	687b      	ldr	r3, [r7, #4]
 8003ffa:	681a      	ldr	r2, [r3, #0]
 8003ffc:	2380      	movs	r3, #128	; 0x80
 8003ffe:	011b      	lsls	r3, r3, #4
 8004000:	4013      	ands	r3, r2
 8004002:	d02e      	beq.n	8004062 <HAL_RCCEx_PeriphCLKConfig+0x186>
 8004004:	4b79      	ldr	r3, [pc, #484]	; (80041ec <HAL_RCCEx_PeriphCLKConfig+0x310>)
 8004006:	6d1b      	ldr	r3, [r3, #80]	; 0x50
 8004008:	4a7a      	ldr	r2, [pc, #488]	; (80041f4 <HAL_RCCEx_PeriphCLKConfig+0x318>)
 800400a:	4013      	ands	r3, r2
 800400c:	60fb      	str	r3, [r7, #12]
 800400e:	4b77      	ldr	r3, [pc, #476]	; (80041ec <HAL_RCCEx_PeriphCLKConfig+0x310>)
 8004010:	6d1a      	ldr	r2, [r3, #80]	; 0x50
 8004012:	4b76      	ldr	r3, [pc, #472]	; (80041ec <HAL_RCCEx_PeriphCLKConfig+0x310>)
 8004014:	2180      	movs	r1, #128	; 0x80
 8004016:	0309      	lsls	r1, r1, #12
 8004018:	430a      	orrs	r2, r1
 800401a:	651a      	str	r2, [r3, #80]	; 0x50
 800401c:	4b73      	ldr	r3, [pc, #460]	; (80041ec <HAL_RCCEx_PeriphCLKConfig+0x310>)
 800401e:	6d1a      	ldr	r2, [r3, #80]	; 0x50
 8004020:	4b72      	ldr	r3, [pc, #456]	; (80041ec <HAL_RCCEx_PeriphCLKConfig+0x310>)
 8004022:	4975      	ldr	r1, [pc, #468]	; (80041f8 <HAL_RCCEx_PeriphCLKConfig+0x31c>)
 8004024:	400a      	ands	r2, r1
 8004026:	651a      	str	r2, [r3, #80]	; 0x50
 8004028:	4b70      	ldr	r3, [pc, #448]	; (80041ec <HAL_RCCEx_PeriphCLKConfig+0x310>)
 800402a:	68fa      	ldr	r2, [r7, #12]
 800402c:	651a      	str	r2, [r3, #80]	; 0x50
 800402e:	68fa      	ldr	r2, [r7, #12]
 8004030:	2380      	movs	r3, #128	; 0x80
 8004032:	005b      	lsls	r3, r3, #1
 8004034:	4013      	ands	r3, r2
 8004036:	d014      	beq.n	8004062 <HAL_RCCEx_PeriphCLKConfig+0x186>
 8004038:	f7fe fb6c 	bl	8002714 <HAL_GetTick>
 800403c:	0003      	movs	r3, r0
 800403e:	613b      	str	r3, [r7, #16]
 8004040:	e009      	b.n	8004056 <HAL_RCCEx_PeriphCLKConfig+0x17a>
 8004042:	f7fe fb67 	bl	8002714 <HAL_GetTick>
 8004046:	0002      	movs	r2, r0
 8004048:	693b      	ldr	r3, [r7, #16]
 800404a:	1ad3      	subs	r3, r2, r3
 800404c:	4a6b      	ldr	r2, [pc, #428]	; (80041fc <HAL_RCCEx_PeriphCLKConfig+0x320>)
 800404e:	4293      	cmp	r3, r2
 8004050:	d901      	bls.n	8004056 <HAL_RCCEx_PeriphCLKConfig+0x17a>
 8004052:	2303      	movs	r3, #3
 8004054:	e0c6      	b.n	80041e4 <HAL_RCCEx_PeriphCLKConfig+0x308>
 8004056:	4b65      	ldr	r3, [pc, #404]	; (80041ec <HAL_RCCEx_PeriphCLKConfig+0x310>)
 8004058:	6d1a      	ldr	r2, [r3, #80]	; 0x50
 800405a:	2380      	movs	r3, #128	; 0x80
 800405c:	009b      	lsls	r3, r3, #2
 800405e:	4013      	ands	r3, r2
 8004060:	d0ef      	beq.n	8004042 <HAL_RCCEx_PeriphCLKConfig+0x166>
 8004062:	687b      	ldr	r3, [r7, #4]
 8004064:	681a      	ldr	r2, [r3, #0]
 8004066:	2380      	movs	r3, #128	; 0x80
 8004068:	011b      	lsls	r3, r3, #4
 800406a:	4013      	ands	r3, r2
 800406c:	d01f      	beq.n	80040ae <HAL_RCCEx_PeriphCLKConfig+0x1d2>
 800406e:	687b      	ldr	r3, [r7, #4]
 8004070:	689a      	ldr	r2, [r3, #8]
 8004072:	23c0      	movs	r3, #192	; 0xc0
 8004074:	029b      	lsls	r3, r3, #10
 8004076:	401a      	ands	r2, r3
 8004078:	23c0      	movs	r3, #192	; 0xc0
 800407a:	029b      	lsls	r3, r3, #10
 800407c:	429a      	cmp	r2, r3
 800407e:	d10c      	bne.n	800409a <HAL_RCCEx_PeriphCLKConfig+0x1be>
 8004080:	4b5a      	ldr	r3, [pc, #360]	; (80041ec <HAL_RCCEx_PeriphCLKConfig+0x310>)
 8004082:	681b      	ldr	r3, [r3, #0]
 8004084:	4a5e      	ldr	r2, [pc, #376]	; (8004200 <HAL_RCCEx_PeriphCLKConfig+0x324>)
 8004086:	4013      	ands	r3, r2
 8004088:	0019      	movs	r1, r3
 800408a:	687b      	ldr	r3, [r7, #4]
 800408c:	689a      	ldr	r2, [r3, #8]
 800408e:	23c0      	movs	r3, #192	; 0xc0
 8004090:	039b      	lsls	r3, r3, #14
 8004092:	401a      	ands	r2, r3
 8004094:	4b55      	ldr	r3, [pc, #340]	; (80041ec <HAL_RCCEx_PeriphCLKConfig+0x310>)
 8004096:	430a      	orrs	r2, r1
 8004098:	601a      	str	r2, [r3, #0]
 800409a:	4b54      	ldr	r3, [pc, #336]	; (80041ec <HAL_RCCEx_PeriphCLKConfig+0x310>)
 800409c:	6d19      	ldr	r1, [r3, #80]	; 0x50
 800409e:	687b      	ldr	r3, [r7, #4]
 80040a0:	689a      	ldr	r2, [r3, #8]
 80040a2:	23c0      	movs	r3, #192	; 0xc0
 80040a4:	029b      	lsls	r3, r3, #10
 80040a6:	401a      	ands	r2, r3
 80040a8:	4b50      	ldr	r3, [pc, #320]	; (80041ec <HAL_RCCEx_PeriphCLKConfig+0x310>)
 80040aa:	430a      	orrs	r2, r1
 80040ac:	651a      	str	r2, [r3, #80]	; 0x50
 80040ae:	687b      	ldr	r3, [r7, #4]
 80040b0:	681b      	ldr	r3, [r3, #0]
 80040b2:	2220      	movs	r2, #32
 80040b4:	4013      	ands	r3, r2
 80040b6:	d01f      	beq.n	80040f8 <HAL_RCCEx_PeriphCLKConfig+0x21c>
 80040b8:	687b      	ldr	r3, [r7, #4]
 80040ba:	685a      	ldr	r2, [r3, #4]
 80040bc:	23c0      	movs	r3, #192	; 0xc0
 80040be:	029b      	lsls	r3, r3, #10
 80040c0:	401a      	ands	r2, r3
 80040c2:	23c0      	movs	r3, #192	; 0xc0
 80040c4:	029b      	lsls	r3, r3, #10
 80040c6:	429a      	cmp	r2, r3
 80040c8:	d10c      	bne.n	80040e4 <HAL_RCCEx_PeriphCLKConfig+0x208>
 80040ca:	4b48      	ldr	r3, [pc, #288]	; (80041ec <HAL_RCCEx_PeriphCLKConfig+0x310>)
 80040cc:	681b      	ldr	r3, [r3, #0]
 80040ce:	4a4c      	ldr	r2, [pc, #304]	; (8004200 <HAL_RCCEx_PeriphCLKConfig+0x324>)
 80040d0:	4013      	ands	r3, r2
 80040d2:	0019      	movs	r1, r3
 80040d4:	687b      	ldr	r3, [r7, #4]
 80040d6:	685a      	ldr	r2, [r3, #4]
 80040d8:	23c0      	movs	r3, #192	; 0xc0
 80040da:	039b      	lsls	r3, r3, #14
 80040dc:	401a      	ands	r2, r3
 80040de:	4b43      	ldr	r3, [pc, #268]	; (80041ec <HAL_RCCEx_PeriphCLKConfig+0x310>)
 80040e0:	430a      	orrs	r2, r1
 80040e2:	601a      	str	r2, [r3, #0]
 80040e4:	4b41      	ldr	r3, [pc, #260]	; (80041ec <HAL_RCCEx_PeriphCLKConfig+0x310>)
 80040e6:	6d19      	ldr	r1, [r3, #80]	; 0x50
 80040e8:	687b      	ldr	r3, [r7, #4]
 80040ea:	685a      	ldr	r2, [r3, #4]
 80040ec:	23c0      	movs	r3, #192	; 0xc0
 80040ee:	029b      	lsls	r3, r3, #10
 80040f0:	401a      	ands	r2, r3
 80040f2:	4b3e      	ldr	r3, [pc, #248]	; (80041ec <HAL_RCCEx_PeriphCLKConfig+0x310>)
 80040f4:	430a      	orrs	r2, r1
 80040f6:	651a      	str	r2, [r3, #80]	; 0x50
 80040f8:	2317      	movs	r3, #23
 80040fa:	18fb      	adds	r3, r7, r3
 80040fc:	781b      	ldrb	r3, [r3, #0]
 80040fe:	2b01      	cmp	r3, #1
 8004100:	d105      	bne.n	800410e <HAL_RCCEx_PeriphCLKConfig+0x232>
 8004102:	4b3a      	ldr	r3, [pc, #232]	; (80041ec <HAL_RCCEx_PeriphCLKConfig+0x310>)
 8004104:	6b9a      	ldr	r2, [r3, #56]	; 0x38
 8004106:	4b39      	ldr	r3, [pc, #228]	; (80041ec <HAL_RCCEx_PeriphCLKConfig+0x310>)
 8004108:	493e      	ldr	r1, [pc, #248]	; (8004204 <HAL_RCCEx_PeriphCLKConfig+0x328>)
 800410a:	400a      	ands	r2, r1
 800410c:	639a      	str	r2, [r3, #56]	; 0x38
 800410e:	687b      	ldr	r3, [r7, #4]
 8004110:	681b      	ldr	r3, [r3, #0]
 8004112:	2201      	movs	r2, #1
 8004114:	4013      	ands	r3, r2
 8004116:	d009      	beq.n	800412c <HAL_RCCEx_PeriphCLKConfig+0x250>
 8004118:	4b34      	ldr	r3, [pc, #208]	; (80041ec <HAL_RCCEx_PeriphCLKConfig+0x310>)
 800411a:	6cdb      	ldr	r3, [r3, #76]	; 0x4c
 800411c:	2203      	movs	r2, #3
 800411e:	4393      	bics	r3, r2
 8004120:	0019      	movs	r1, r3
 8004122:	687b      	ldr	r3, [r7, #4]
 8004124:	68da      	ldr	r2, [r3, #12]
 8004126:	4b31      	ldr	r3, [pc, #196]	; (80041ec <HAL_RCCEx_PeriphCLKConfig+0x310>)
 8004128:	430a      	orrs	r2, r1
 800412a:	64da      	str	r2, [r3, #76]	; 0x4c
 800412c:	687b      	ldr	r3, [r7, #4]
 800412e:	681b      	ldr	r3, [r3, #0]
 8004130:	2202      	movs	r2, #2
 8004132:	4013      	ands	r3, r2
 8004134:	d009      	beq.n	800414a <HAL_RCCEx_PeriphCLKConfig+0x26e>
 8004136:	4b2d      	ldr	r3, [pc, #180]	; (80041ec <HAL_RCCEx_PeriphCLKConfig+0x310>)
 8004138:	6cdb      	ldr	r3, [r3, #76]	; 0x4c
 800413a:	220c      	movs	r2, #12
 800413c:	4393      	bics	r3, r2
 800413e:	0019      	movs	r1, r3
 8004140:	687b      	ldr	r3, [r7, #4]
 8004142:	691a      	ldr	r2, [r3, #16]
 8004144:	4b29      	ldr	r3, [pc, #164]	; (80041ec <HAL_RCCEx_PeriphCLKConfig+0x310>)
 8004146:	430a      	orrs	r2, r1
 8004148:	64da      	str	r2, [r3, #76]	; 0x4c
 800414a:	687b      	ldr	r3, [r7, #4]
 800414c:	681b      	ldr	r3, [r3, #0]
 800414e:	2204      	movs	r2, #4
 8004150:	4013      	ands	r3, r2
 8004152:	d009      	beq.n	8004168 <HAL_RCCEx_PeriphCLKConfig+0x28c>
 8004154:	4b25      	ldr	r3, [pc, #148]	; (80041ec <HAL_RCCEx_PeriphCLKConfig+0x310>)
 8004156:	6cdb      	ldr	r3, [r3, #76]	; 0x4c
 8004158:	4a2b      	ldr	r2, [pc, #172]	; (8004208 <HAL_RCCEx_PeriphCLKConfig+0x32c>)
 800415a:	4013      	ands	r3, r2
 800415c:	0019      	movs	r1, r3
 800415e:	687b      	ldr	r3, [r7, #4]
 8004160:	695a      	ldr	r2, [r3, #20]
 8004162:	4b22      	ldr	r3, [pc, #136]	; (80041ec <HAL_RCCEx_PeriphCLKConfig+0x310>)
 8004164:	430a      	orrs	r2, r1
 8004166:	64da      	str	r2, [r3, #76]	; 0x4c
 8004168:	687b      	ldr	r3, [r7, #4]
 800416a:	681b      	ldr	r3, [r3, #0]
 800416c:	2208      	movs	r2, #8
 800416e:	4013      	ands	r3, r2
 8004170:	d009      	beq.n	8004186 <HAL_RCCEx_PeriphCLKConfig+0x2aa>
 8004172:	4b1e      	ldr	r3, [pc, #120]	; (80041ec <HAL_RCCEx_PeriphCLKConfig+0x310>)
 8004174:	6cdb      	ldr	r3, [r3, #76]	; 0x4c
 8004176:	4a25      	ldr	r2, [pc, #148]	; (800420c <HAL_RCCEx_PeriphCLKConfig+0x330>)
 8004178:	4013      	ands	r3, r2
 800417a:	0019      	movs	r1, r3
 800417c:	687b      	ldr	r3, [r7, #4]
 800417e:	699a      	ldr	r2, [r3, #24]
 8004180:	4b1a      	ldr	r3, [pc, #104]	; (80041ec <HAL_RCCEx_PeriphCLKConfig+0x310>)
 8004182:	430a      	orrs	r2, r1
 8004184:	64da      	str	r2, [r3, #76]	; 0x4c
 8004186:	687b      	ldr	r3, [r7, #4]
 8004188:	681a      	ldr	r2, [r3, #0]
 800418a:	2380      	movs	r3, #128	; 0x80
 800418c:	005b      	lsls	r3, r3, #1
 800418e:	4013      	ands	r3, r2
 8004190:	d009      	beq.n	80041a6 <HAL_RCCEx_PeriphCLKConfig+0x2ca>
 8004192:	4b16      	ldr	r3, [pc, #88]	; (80041ec <HAL_RCCEx_PeriphCLKConfig+0x310>)
 8004194:	6cdb      	ldr	r3, [r3, #76]	; 0x4c
 8004196:	4a17      	ldr	r2, [pc, #92]	; (80041f4 <HAL_RCCEx_PeriphCLKConfig+0x318>)
 8004198:	4013      	ands	r3, r2
 800419a:	0019      	movs	r1, r3
 800419c:	687b      	ldr	r3, [r7, #4]
 800419e:	69da      	ldr	r2, [r3, #28]
 80041a0:	4b12      	ldr	r3, [pc, #72]	; (80041ec <HAL_RCCEx_PeriphCLKConfig+0x310>)
 80041a2:	430a      	orrs	r2, r1
 80041a4:	64da      	str	r2, [r3, #76]	; 0x4c
 80041a6:	687b      	ldr	r3, [r7, #4]
 80041a8:	681b      	ldr	r3, [r3, #0]
 80041aa:	2240      	movs	r2, #64	; 0x40
 80041ac:	4013      	ands	r3, r2
 80041ae:	d009      	beq.n	80041c4 <HAL_RCCEx_PeriphCLKConfig+0x2e8>
 80041b0:	4b0e      	ldr	r3, [pc, #56]	; (80041ec <HAL_RCCEx_PeriphCLKConfig+0x310>)
 80041b2:	6cdb      	ldr	r3, [r3, #76]	; 0x4c
 80041b4:	4a16      	ldr	r2, [pc, #88]	; (8004210 <HAL_RCCEx_PeriphCLKConfig+0x334>)
 80041b6:	4013      	ands	r3, r2
 80041b8:	0019      	movs	r1, r3
 80041ba:	687b      	ldr	r3, [r7, #4]
 80041bc:	6a5a      	ldr	r2, [r3, #36]	; 0x24
 80041be:	4b0b      	ldr	r3, [pc, #44]	; (80041ec <HAL_RCCEx_PeriphCLKConfig+0x310>)
 80041c0:	430a      	orrs	r2, r1
 80041c2:	64da      	str	r2, [r3, #76]	; 0x4c
 80041c4:	687b      	ldr	r3, [r7, #4]
 80041c6:	681b      	ldr	r3, [r3, #0]
 80041c8:	2280      	movs	r2, #128	; 0x80
 80041ca:	4013      	ands	r3, r2
 80041cc:	d009      	beq.n	80041e2 <HAL_RCCEx_PeriphCLKConfig+0x306>
 80041ce:	4b07      	ldr	r3, [pc, #28]	; (80041ec <HAL_RCCEx_PeriphCLKConfig+0x310>)
 80041d0:	6cdb      	ldr	r3, [r3, #76]	; 0x4c
 80041d2:	4a10      	ldr	r2, [pc, #64]	; (8004214 <HAL_RCCEx_PeriphCLKConfig+0x338>)
 80041d4:	4013      	ands	r3, r2
 80041d6:	0019      	movs	r1, r3
 80041d8:	687b      	ldr	r3, [r7, #4]
 80041da:	6a1a      	ldr	r2, [r3, #32]
 80041dc:	4b03      	ldr	r3, [pc, #12]	; (80041ec <HAL_RCCEx_PeriphCLKConfig+0x310>)
 80041de:	430a      	orrs	r2, r1
 80041e0:	64da      	str	r2, [r3, #76]	; 0x4c
 80041e2:	2300      	movs	r3, #0
 80041e4:	0018      	movs	r0, r3
 80041e6:	46bd      	mov	sp, r7
 80041e8:	b006      	add	sp, #24
 80041ea:	bd80      	pop	{r7, pc}
 80041ec:	40021000 	.word	0x40021000
 80041f0:	40007000 	.word	0x40007000
 80041f4:	fffcffff 	.word	0xfffcffff
 80041f8:	fff7ffff 	.word	0xfff7ffff
 80041fc:	00001388 	.word	0x00001388
 8004200:	ffcfffff 	.word	0xffcfffff
 8004204:	efffffff 	.word	0xefffffff
 8004208:	fffff3ff 	.word	0xfffff3ff
 800420c:	ffffcfff 	.word	0xffffcfff
 8004210:	fbffffff 	.word	0xfbffffff
 8004214:	fff3ffff 	.word	0xfff3ffff

08004218 <HAL_UART_Init>:
 8004218:	b580      	push	{r7, lr}
 800421a:	b082      	sub	sp, #8
 800421c:	af00      	add	r7, sp, #0
 800421e:	6078      	str	r0, [r7, #4]
 8004220:	687b      	ldr	r3, [r7, #4]
 8004222:	2b00      	cmp	r3, #0
 8004224:	d101      	bne.n	800422a <HAL_UART_Init+0x12>
 8004226:	2301      	movs	r3, #1
 8004228:	e044      	b.n	80042b4 <HAL_UART_Init+0x9c>
 800422a:	687b      	ldr	r3, [r7, #4]
 800422c:	6fdb      	ldr	r3, [r3, #124]	; 0x7c
 800422e:	2b00      	cmp	r3, #0
 8004230:	d107      	bne.n	8004242 <HAL_UART_Init+0x2a>
 8004232:	687b      	ldr	r3, [r7, #4]
 8004234:	2278      	movs	r2, #120	; 0x78
 8004236:	2100      	movs	r1, #0
 8004238:	5499      	strb	r1, [r3, r2]
 800423a:	687b      	ldr	r3, [r7, #4]
 800423c:	0018      	movs	r0, r3
 800423e:	f7fe f98d 	bl	800255c <HAL_UART_MspInit>
 8004242:	687b      	ldr	r3, [r7, #4]
 8004244:	2224      	movs	r2, #36	; 0x24
 8004246:	67da      	str	r2, [r3, #124]	; 0x7c
 8004248:	687b      	ldr	r3, [r7, #4]
 800424a:	681b      	ldr	r3, [r3, #0]
 800424c:	681a      	ldr	r2, [r3, #0]
 800424e:	687b      	ldr	r3, [r7, #4]
 8004250:	681b      	ldr	r3, [r3, #0]
 8004252:	2101      	movs	r1, #1
 8004254:	438a      	bics	r2, r1
 8004256:	601a      	str	r2, [r3, #0]
 8004258:	687b      	ldr	r3, [r7, #4]
 800425a:	0018      	movs	r0, r3
 800425c:	f000 fc2c 	bl	8004ab8 <UART_SetConfig>
 8004260:	0003      	movs	r3, r0
 8004262:	2b01      	cmp	r3, #1
 8004264:	d101      	bne.n	800426a <HAL_UART_Init+0x52>
 8004266:	2301      	movs	r3, #1
 8004268:	e024      	b.n	80042b4 <HAL_UART_Init+0x9c>
 800426a:	687b      	ldr	r3, [r7, #4]
 800426c:	6a5b      	ldr	r3, [r3, #36]	; 0x24
 800426e:	2b00      	cmp	r3, #0
 8004270:	d003      	beq.n	800427a <HAL_UART_Init+0x62>
 8004272:	687b      	ldr	r3, [r7, #4]
 8004274:	0018      	movs	r0, r3
 8004276:	f000 febd 	bl	8004ff4 <UART_AdvFeatureConfig>
 800427a:	687b      	ldr	r3, [r7, #4]
 800427c:	681b      	ldr	r3, [r3, #0]
 800427e:	685a      	ldr	r2, [r3, #4]
 8004280:	687b      	ldr	r3, [r7, #4]
 8004282:	681b      	ldr	r3, [r3, #0]
 8004284:	490d      	ldr	r1, [pc, #52]	; (80042bc <HAL_UART_Init+0xa4>)
 8004286:	400a      	ands	r2, r1
 8004288:	605a      	str	r2, [r3, #4]
 800428a:	687b      	ldr	r3, [r7, #4]
 800428c:	681b      	ldr	r3, [r3, #0]
 800428e:	689a      	ldr	r2, [r3, #8]
 8004290:	687b      	ldr	r3, [r7, #4]
 8004292:	681b      	ldr	r3, [r3, #0]
 8004294:	212a      	movs	r1, #42	; 0x2a
 8004296:	438a      	bics	r2, r1
 8004298:	609a      	str	r2, [r3, #8]
 800429a:	687b      	ldr	r3, [r7, #4]
 800429c:	681b      	ldr	r3, [r3, #0]
 800429e:	681a      	ldr	r2, [r3, #0]
 80042a0:	687b      	ldr	r3, [r7, #4]
 80042a2:	681b      	ldr	r3, [r3, #0]
 80042a4:	2101      	movs	r1, #1
 80042a6:	430a      	orrs	r2, r1
 80042a8:	601a      	str	r2, [r3, #0]
 80042aa:	687b      	ldr	r3, [r7, #4]
 80042ac:	0018      	movs	r0, r3
 80042ae:	f000 ff55 	bl	800515c <UART_CheckIdleState>
 80042b2:	0003      	movs	r3, r0
 80042b4:	0018      	movs	r0, r3
 80042b6:	46bd      	mov	sp, r7
 80042b8:	b002      	add	sp, #8
 80042ba:	bd80      	pop	{r7, pc}
 80042bc:	ffffb7ff 	.word	0xffffb7ff

080042c0 <HAL_UART_Transmit>:
 80042c0:	b580      	push	{r7, lr}
 80042c2:	b08a      	sub	sp, #40	; 0x28
 80042c4:	af02      	add	r7, sp, #8
 80042c6:	60f8      	str	r0, [r7, #12]
 80042c8:	60b9      	str	r1, [r7, #8]
 80042ca:	603b      	str	r3, [r7, #0]
 80042cc:	1dbb      	adds	r3, r7, #6
 80042ce:	801a      	strh	r2, [r3, #0]
 80042d0:	68fb      	ldr	r3, [r7, #12]
 80042d2:	6fdb      	ldr	r3, [r3, #124]	; 0x7c
 80042d4:	2b20      	cmp	r3, #32
 80042d6:	d000      	beq.n	80042da <HAL_UART_Transmit+0x1a>
 80042d8:	e08c      	b.n	80043f4 <HAL_UART_Transmit+0x134>
 80042da:	68bb      	ldr	r3, [r7, #8]
 80042dc:	2b00      	cmp	r3, #0
 80042de:	d003      	beq.n	80042e8 <HAL_UART_Transmit+0x28>
 80042e0:	1dbb      	adds	r3, r7, #6
 80042e2:	881b      	ldrh	r3, [r3, #0]
 80042e4:	2b00      	cmp	r3, #0
 80042e6:	d101      	bne.n	80042ec <HAL_UART_Transmit+0x2c>
 80042e8:	2301      	movs	r3, #1
 80042ea:	e084      	b.n	80043f6 <HAL_UART_Transmit+0x136>
 80042ec:	68fb      	ldr	r3, [r7, #12]
 80042ee:	689a      	ldr	r2, [r3, #8]
 80042f0:	2380      	movs	r3, #128	; 0x80
 80042f2:	015b      	lsls	r3, r3, #5
 80042f4:	429a      	cmp	r2, r3
 80042f6:	d109      	bne.n	800430c <HAL_UART_Transmit+0x4c>
 80042f8:	68fb      	ldr	r3, [r7, #12]
 80042fa:	691b      	ldr	r3, [r3, #16]
 80042fc:	2b00      	cmp	r3, #0
 80042fe:	d105      	bne.n	800430c <HAL_UART_Transmit+0x4c>
 8004300:	68bb      	ldr	r3, [r7, #8]
 8004302:	2201      	movs	r2, #1
 8004304:	4013      	ands	r3, r2
 8004306:	d001      	beq.n	800430c <HAL_UART_Transmit+0x4c>
 8004308:	2301      	movs	r3, #1
 800430a:	e074      	b.n	80043f6 <HAL_UART_Transmit+0x136>
 800430c:	68fb      	ldr	r3, [r7, #12]
 800430e:	2284      	movs	r2, #132	; 0x84
 8004310:	2100      	movs	r1, #0
 8004312:	5099      	str	r1, [r3, r2]
 8004314:	68fb      	ldr	r3, [r7, #12]
 8004316:	2221      	movs	r2, #33	; 0x21
 8004318:	67da      	str	r2, [r3, #124]	; 0x7c
 800431a:	f7fe f9fb 	bl	8002714 <HAL_GetTick>
 800431e:	0003      	movs	r3, r0
 8004320:	617b      	str	r3, [r7, #20]
 8004322:	68fb      	ldr	r3, [r7, #12]
 8004324:	1dba      	adds	r2, r7, #6
 8004326:	2150      	movs	r1, #80	; 0x50
 8004328:	8812      	ldrh	r2, [r2, #0]
 800432a:	525a      	strh	r2, [r3, r1]
 800432c:	68fb      	ldr	r3, [r7, #12]
 800432e:	1dba      	adds	r2, r7, #6
 8004330:	2152      	movs	r1, #82	; 0x52
 8004332:	8812      	ldrh	r2, [r2, #0]
 8004334:	525a      	strh	r2, [r3, r1]
 8004336:	68fb      	ldr	r3, [r7, #12]
 8004338:	689a      	ldr	r2, [r3, #8]
 800433a:	2380      	movs	r3, #128	; 0x80
 800433c:	015b      	lsls	r3, r3, #5
 800433e:	429a      	cmp	r2, r3
 8004340:	d108      	bne.n	8004354 <HAL_UART_Transmit+0x94>
 8004342:	68fb      	ldr	r3, [r7, #12]
 8004344:	691b      	ldr	r3, [r3, #16]
 8004346:	2b00      	cmp	r3, #0
 8004348:	d104      	bne.n	8004354 <HAL_UART_Transmit+0x94>
 800434a:	2300      	movs	r3, #0
 800434c:	61fb      	str	r3, [r7, #28]
 800434e:	68bb      	ldr	r3, [r7, #8]
 8004350:	61bb      	str	r3, [r7, #24]
 8004352:	e003      	b.n	800435c <HAL_UART_Transmit+0x9c>
 8004354:	68bb      	ldr	r3, [r7, #8]
 8004356:	61fb      	str	r3, [r7, #28]
 8004358:	2300      	movs	r3, #0
 800435a:	61bb      	str	r3, [r7, #24]
 800435c:	e02f      	b.n	80043be <HAL_UART_Transmit+0xfe>
 800435e:	697a      	ldr	r2, [r7, #20]
 8004360:	68f8      	ldr	r0, [r7, #12]
 8004362:	683b      	ldr	r3, [r7, #0]
 8004364:	9300      	str	r3, [sp, #0]
 8004366:	0013      	movs	r3, r2
 8004368:	2200      	movs	r2, #0
 800436a:	2180      	movs	r1, #128	; 0x80
 800436c:	f000 ff9e 	bl	80052ac <UART_WaitOnFlagUntilTimeout>
 8004370:	1e03      	subs	r3, r0, #0
 8004372:	d004      	beq.n	800437e <HAL_UART_Transmit+0xbe>
 8004374:	68fb      	ldr	r3, [r7, #12]
 8004376:	2220      	movs	r2, #32
 8004378:	67da      	str	r2, [r3, #124]	; 0x7c
 800437a:	2303      	movs	r3, #3
 800437c:	e03b      	b.n	80043f6 <HAL_UART_Transmit+0x136>
 800437e:	69fb      	ldr	r3, [r7, #28]
 8004380:	2b00      	cmp	r3, #0
 8004382:	d10b      	bne.n	800439c <HAL_UART_Transmit+0xdc>
 8004384:	69bb      	ldr	r3, [r7, #24]
 8004386:	881b      	ldrh	r3, [r3, #0]
 8004388:	001a      	movs	r2, r3
 800438a:	68fb      	ldr	r3, [r7, #12]
 800438c:	681b      	ldr	r3, [r3, #0]
 800438e:	05d2      	lsls	r2, r2, #23
 8004390:	0dd2      	lsrs	r2, r2, #23
 8004392:	629a      	str	r2, [r3, #40]	; 0x28
 8004394:	69bb      	ldr	r3, [r7, #24]
 8004396:	3302      	adds	r3, #2
 8004398:	61bb      	str	r3, [r7, #24]
 800439a:	e007      	b.n	80043ac <HAL_UART_Transmit+0xec>
 800439c:	69fb      	ldr	r3, [r7, #28]
 800439e:	781a      	ldrb	r2, [r3, #0]
 80043a0:	68fb      	ldr	r3, [r7, #12]
 80043a2:	681b      	ldr	r3, [r3, #0]
 80043a4:	629a      	str	r2, [r3, #40]	; 0x28
 80043a6:	69fb      	ldr	r3, [r7, #28]
 80043a8:	3301      	adds	r3, #1
 80043aa:	61fb      	str	r3, [r7, #28]
 80043ac:	68fb      	ldr	r3, [r7, #12]
 80043ae:	2252      	movs	r2, #82	; 0x52
 80043b0:	5a9b      	ldrh	r3, [r3, r2]
 80043b2:	b29b      	uxth	r3, r3
 80043b4:	3b01      	subs	r3, #1
 80043b6:	b299      	uxth	r1, r3
 80043b8:	68fb      	ldr	r3, [r7, #12]
 80043ba:	2252      	movs	r2, #82	; 0x52
 80043bc:	5299      	strh	r1, [r3, r2]
 80043be:	68fb      	ldr	r3, [r7, #12]
 80043c0:	2252      	movs	r2, #82	; 0x52
 80043c2:	5a9b      	ldrh	r3, [r3, r2]
 80043c4:	b29b      	uxth	r3, r3
 80043c6:	2b00      	cmp	r3, #0
 80043c8:	d1c9      	bne.n	800435e <HAL_UART_Transmit+0x9e>
 80043ca:	697a      	ldr	r2, [r7, #20]
 80043cc:	68f8      	ldr	r0, [r7, #12]
 80043ce:	683b      	ldr	r3, [r7, #0]
 80043d0:	9300      	str	r3, [sp, #0]
 80043d2:	0013      	movs	r3, r2
 80043d4:	2200      	movs	r2, #0
 80043d6:	2140      	movs	r1, #64	; 0x40
 80043d8:	f000 ff68 	bl	80052ac <UART_WaitOnFlagUntilTimeout>
 80043dc:	1e03      	subs	r3, r0, #0
 80043de:	d004      	beq.n	80043ea <HAL_UART_Transmit+0x12a>
 80043e0:	68fb      	ldr	r3, [r7, #12]
 80043e2:	2220      	movs	r2, #32
 80043e4:	67da      	str	r2, [r3, #124]	; 0x7c
 80043e6:	2303      	movs	r3, #3
 80043e8:	e005      	b.n	80043f6 <HAL_UART_Transmit+0x136>
 80043ea:	68fb      	ldr	r3, [r7, #12]
 80043ec:	2220      	movs	r2, #32
 80043ee:	67da      	str	r2, [r3, #124]	; 0x7c
 80043f0:	2300      	movs	r3, #0
 80043f2:	e000      	b.n	80043f6 <HAL_UART_Transmit+0x136>
 80043f4:	2302      	movs	r3, #2
 80043f6:	0018      	movs	r0, r3
 80043f8:	46bd      	mov	sp, r7
 80043fa:	b008      	add	sp, #32
 80043fc:	bd80      	pop	{r7, pc}
	...

08004400 <HAL_UART_Receive_IT>:
 8004400:	b580      	push	{r7, lr}
 8004402:	b088      	sub	sp, #32
 8004404:	af00      	add	r7, sp, #0
 8004406:	60f8      	str	r0, [r7, #12]
 8004408:	60b9      	str	r1, [r7, #8]
 800440a:	1dbb      	adds	r3, r7, #6
 800440c:	801a      	strh	r2, [r3, #0]
 800440e:	68fb      	ldr	r3, [r7, #12]
 8004410:	2280      	movs	r2, #128	; 0x80
 8004412:	589b      	ldr	r3, [r3, r2]
 8004414:	2b20      	cmp	r3, #32
 8004416:	d14a      	bne.n	80044ae <HAL_UART_Receive_IT+0xae>
 8004418:	68bb      	ldr	r3, [r7, #8]
 800441a:	2b00      	cmp	r3, #0
 800441c:	d003      	beq.n	8004426 <HAL_UART_Receive_IT+0x26>
 800441e:	1dbb      	adds	r3, r7, #6
 8004420:	881b      	ldrh	r3, [r3, #0]
 8004422:	2b00      	cmp	r3, #0
 8004424:	d101      	bne.n	800442a <HAL_UART_Receive_IT+0x2a>
 8004426:	2301      	movs	r3, #1
 8004428:	e042      	b.n	80044b0 <HAL_UART_Receive_IT+0xb0>
 800442a:	68fb      	ldr	r3, [r7, #12]
 800442c:	689a      	ldr	r2, [r3, #8]
 800442e:	2380      	movs	r3, #128	; 0x80
 8004430:	015b      	lsls	r3, r3, #5
 8004432:	429a      	cmp	r2, r3
 8004434:	d109      	bne.n	800444a <HAL_UART_Receive_IT+0x4a>
 8004436:	68fb      	ldr	r3, [r7, #12]
 8004438:	691b      	ldr	r3, [r3, #16]
 800443a:	2b00      	cmp	r3, #0
 800443c:	d105      	bne.n	800444a <HAL_UART_Receive_IT+0x4a>
 800443e:	68bb      	ldr	r3, [r7, #8]
 8004440:	2201      	movs	r2, #1
 8004442:	4013      	ands	r3, r2
 8004444:	d001      	beq.n	800444a <HAL_UART_Receive_IT+0x4a>
 8004446:	2301      	movs	r3, #1
 8004448:	e032      	b.n	80044b0 <HAL_UART_Receive_IT+0xb0>
 800444a:	68fb      	ldr	r3, [r7, #12]
 800444c:	2200      	movs	r2, #0
 800444e:	661a      	str	r2, [r3, #96]	; 0x60
 8004450:	68fb      	ldr	r3, [r7, #12]
 8004452:	681b      	ldr	r3, [r3, #0]
 8004454:	4a18      	ldr	r2, [pc, #96]	; (80044b8 <HAL_UART_Receive_IT+0xb8>)
 8004456:	4293      	cmp	r3, r2
 8004458:	d020      	beq.n	800449c <HAL_UART_Receive_IT+0x9c>
 800445a:	68fb      	ldr	r3, [r7, #12]
 800445c:	681b      	ldr	r3, [r3, #0]
 800445e:	685a      	ldr	r2, [r3, #4]
 8004460:	2380      	movs	r3, #128	; 0x80
 8004462:	041b      	lsls	r3, r3, #16
 8004464:	4013      	ands	r3, r2
 8004466:	d019      	beq.n	800449c <HAL_UART_Receive_IT+0x9c>
 8004468:	f3ef 8310 	mrs	r3, PRIMASK
 800446c:	613b      	str	r3, [r7, #16]
 800446e:	693b      	ldr	r3, [r7, #16]
 8004470:	61fb      	str	r3, [r7, #28]
 8004472:	2301      	movs	r3, #1
 8004474:	617b      	str	r3, [r7, #20]
 8004476:	697b      	ldr	r3, [r7, #20]
 8004478:	f383 8810 	msr	PRIMASK, r3
 800447c:	46c0      	nop			; (mov r8, r8)
 800447e:	68fb      	ldr	r3, [r7, #12]
 8004480:	681b      	ldr	r3, [r3, #0]
 8004482:	681a      	ldr	r2, [r3, #0]
 8004484:	68fb      	ldr	r3, [r7, #12]
 8004486:	681b      	ldr	r3, [r3, #0]
 8004488:	2180      	movs	r1, #128	; 0x80
 800448a:	04c9      	lsls	r1, r1, #19
 800448c:	430a      	orrs	r2, r1
 800448e:	601a      	str	r2, [r3, #0]
 8004490:	69fb      	ldr	r3, [r7, #28]
 8004492:	61bb      	str	r3, [r7, #24]
 8004494:	69bb      	ldr	r3, [r7, #24]
 8004496:	f383 8810 	msr	PRIMASK, r3
 800449a:	46c0      	nop			; (mov r8, r8)
 800449c:	1dbb      	adds	r3, r7, #6
 800449e:	881a      	ldrh	r2, [r3, #0]
 80044a0:	68b9      	ldr	r1, [r7, #8]
 80044a2:	68fb      	ldr	r3, [r7, #12]
 80044a4:	0018      	movs	r0, r3
 80044a6:	f000 ff6b 	bl	8005380 <UART_Start_Receive_IT>
 80044aa:	0003      	movs	r3, r0
 80044ac:	e000      	b.n	80044b0 <HAL_UART_Receive_IT+0xb0>
 80044ae:	2302      	movs	r3, #2
 80044b0:	0018      	movs	r0, r3
 80044b2:	46bd      	mov	sp, r7
 80044b4:	b008      	add	sp, #32
 80044b6:	bd80      	pop	{r7, pc}
 80044b8:	40004800 	.word	0x40004800

080044bc <HAL_UART_IRQHandler>:
 80044bc:	b590      	push	{r4, r7, lr}
 80044be:	b0ab      	sub	sp, #172	; 0xac
 80044c0:	af00      	add	r7, sp, #0
 80044c2:	6078      	str	r0, [r7, #4]
 80044c4:	687b      	ldr	r3, [r7, #4]
 80044c6:	681b      	ldr	r3, [r3, #0]
 80044c8:	69db      	ldr	r3, [r3, #28]
 80044ca:	22a4      	movs	r2, #164	; 0xa4
 80044cc:	18b9      	adds	r1, r7, r2
 80044ce:	600b      	str	r3, [r1, #0]
 80044d0:	687b      	ldr	r3, [r7, #4]
 80044d2:	681b      	ldr	r3, [r3, #0]
 80044d4:	681b      	ldr	r3, [r3, #0]
 80044d6:	20a0      	movs	r0, #160	; 0xa0
 80044d8:	1839      	adds	r1, r7, r0
 80044da:	600b      	str	r3, [r1, #0]
 80044dc:	687b      	ldr	r3, [r7, #4]
 80044de:	681b      	ldr	r3, [r3, #0]
 80044e0:	689b      	ldr	r3, [r3, #8]
 80044e2:	219c      	movs	r1, #156	; 0x9c
 80044e4:	1879      	adds	r1, r7, r1
 80044e6:	600b      	str	r3, [r1, #0]
 80044e8:	0011      	movs	r1, r2
 80044ea:	18bb      	adds	r3, r7, r2
 80044ec:	681b      	ldr	r3, [r3, #0]
 80044ee:	4a99      	ldr	r2, [pc, #612]	; (8004754 <HAL_UART_IRQHandler+0x298>)
 80044f0:	4013      	ands	r3, r2
 80044f2:	2298      	movs	r2, #152	; 0x98
 80044f4:	18bc      	adds	r4, r7, r2
 80044f6:	6023      	str	r3, [r4, #0]
 80044f8:	18bb      	adds	r3, r7, r2
 80044fa:	681b      	ldr	r3, [r3, #0]
 80044fc:	2b00      	cmp	r3, #0
 80044fe:	d114      	bne.n	800452a <HAL_UART_IRQHandler+0x6e>
 8004500:	187b      	adds	r3, r7, r1
 8004502:	681b      	ldr	r3, [r3, #0]
 8004504:	2220      	movs	r2, #32
 8004506:	4013      	ands	r3, r2
 8004508:	d00f      	beq.n	800452a <HAL_UART_IRQHandler+0x6e>
 800450a:	183b      	adds	r3, r7, r0
 800450c:	681b      	ldr	r3, [r3, #0]
 800450e:	2220      	movs	r2, #32
 8004510:	4013      	ands	r3, r2
 8004512:	d00a      	beq.n	800452a <HAL_UART_IRQHandler+0x6e>
 8004514:	687b      	ldr	r3, [r7, #4]
 8004516:	6e9b      	ldr	r3, [r3, #104]	; 0x68
 8004518:	2b00      	cmp	r3, #0
 800451a:	d100      	bne.n	800451e <HAL_UART_IRQHandler+0x62>
 800451c:	e2a0      	b.n	8004a60 <HAL_UART_IRQHandler+0x5a4>
 800451e:	687b      	ldr	r3, [r7, #4]
 8004520:	6e9b      	ldr	r3, [r3, #104]	; 0x68
 8004522:	687a      	ldr	r2, [r7, #4]
 8004524:	0010      	movs	r0, r2
 8004526:	4798      	blx	r3
 8004528:	e29a      	b.n	8004a60 <HAL_UART_IRQHandler+0x5a4>
 800452a:	2398      	movs	r3, #152	; 0x98
 800452c:	18fb      	adds	r3, r7, r3
 800452e:	681b      	ldr	r3, [r3, #0]
 8004530:	2b00      	cmp	r3, #0
 8004532:	d100      	bne.n	8004536 <HAL_UART_IRQHandler+0x7a>
 8004534:	e114      	b.n	8004760 <HAL_UART_IRQHandler+0x2a4>
 8004536:	239c      	movs	r3, #156	; 0x9c
 8004538:	18fb      	adds	r3, r7, r3
 800453a:	681b      	ldr	r3, [r3, #0]
 800453c:	2201      	movs	r2, #1
 800453e:	4013      	ands	r3, r2
 8004540:	d106      	bne.n	8004550 <HAL_UART_IRQHandler+0x94>
 8004542:	23a0      	movs	r3, #160	; 0xa0
 8004544:	18fb      	adds	r3, r7, r3
 8004546:	681b      	ldr	r3, [r3, #0]
 8004548:	4a83      	ldr	r2, [pc, #524]	; (8004758 <HAL_UART_IRQHandler+0x29c>)
 800454a:	4013      	ands	r3, r2
 800454c:	d100      	bne.n	8004550 <HAL_UART_IRQHandler+0x94>
 800454e:	e107      	b.n	8004760 <HAL_UART_IRQHandler+0x2a4>
 8004550:	23a4      	movs	r3, #164	; 0xa4
 8004552:	18fb      	adds	r3, r7, r3
 8004554:	681b      	ldr	r3, [r3, #0]
 8004556:	2201      	movs	r2, #1
 8004558:	4013      	ands	r3, r2
 800455a:	d012      	beq.n	8004582 <HAL_UART_IRQHandler+0xc6>
 800455c:	23a0      	movs	r3, #160	; 0xa0
 800455e:	18fb      	adds	r3, r7, r3
 8004560:	681a      	ldr	r2, [r3, #0]
 8004562:	2380      	movs	r3, #128	; 0x80
 8004564:	005b      	lsls	r3, r3, #1
 8004566:	4013      	ands	r3, r2
 8004568:	d00b      	beq.n	8004582 <HAL_UART_IRQHandler+0xc6>
 800456a:	687b      	ldr	r3, [r7, #4]
 800456c:	681b      	ldr	r3, [r3, #0]
 800456e:	2201      	movs	r2, #1
 8004570:	621a      	str	r2, [r3, #32]
 8004572:	687b      	ldr	r3, [r7, #4]
 8004574:	2284      	movs	r2, #132	; 0x84
 8004576:	589b      	ldr	r3, [r3, r2]
 8004578:	2201      	movs	r2, #1
 800457a:	431a      	orrs	r2, r3
 800457c:	687b      	ldr	r3, [r7, #4]
 800457e:	2184      	movs	r1, #132	; 0x84
 8004580:	505a      	str	r2, [r3, r1]
 8004582:	23a4      	movs	r3, #164	; 0xa4
 8004584:	18fb      	adds	r3, r7, r3
 8004586:	681b      	ldr	r3, [r3, #0]
 8004588:	2202      	movs	r2, #2
 800458a:	4013      	ands	r3, r2
 800458c:	d011      	beq.n	80045b2 <HAL_UART_IRQHandler+0xf6>
 800458e:	239c      	movs	r3, #156	; 0x9c
 8004590:	18fb      	adds	r3, r7, r3
 8004592:	681b      	ldr	r3, [r3, #0]
 8004594:	2201      	movs	r2, #1
 8004596:	4013      	ands	r3, r2
 8004598:	d00b      	beq.n	80045b2 <HAL_UART_IRQHandler+0xf6>
 800459a:	687b      	ldr	r3, [r7, #4]
 800459c:	681b      	ldr	r3, [r3, #0]
 800459e:	2202      	movs	r2, #2
 80045a0:	621a      	str	r2, [r3, #32]
 80045a2:	687b      	ldr	r3, [r7, #4]
 80045a4:	2284      	movs	r2, #132	; 0x84
 80045a6:	589b      	ldr	r3, [r3, r2]
 80045a8:	2204      	movs	r2, #4
 80045aa:	431a      	orrs	r2, r3
 80045ac:	687b      	ldr	r3, [r7, #4]
 80045ae:	2184      	movs	r1, #132	; 0x84
 80045b0:	505a      	str	r2, [r3, r1]
 80045b2:	23a4      	movs	r3, #164	; 0xa4
 80045b4:	18fb      	adds	r3, r7, r3
 80045b6:	681b      	ldr	r3, [r3, #0]
 80045b8:	2204      	movs	r2, #4
 80045ba:	4013      	ands	r3, r2
 80045bc:	d011      	beq.n	80045e2 <HAL_UART_IRQHandler+0x126>
 80045be:	239c      	movs	r3, #156	; 0x9c
 80045c0:	18fb      	adds	r3, r7, r3
 80045c2:	681b      	ldr	r3, [r3, #0]
 80045c4:	2201      	movs	r2, #1
 80045c6:	4013      	ands	r3, r2
 80045c8:	d00b      	beq.n	80045e2 <HAL_UART_IRQHandler+0x126>
 80045ca:	687b      	ldr	r3, [r7, #4]
 80045cc:	681b      	ldr	r3, [r3, #0]
 80045ce:	2204      	movs	r2, #4
 80045d0:	621a      	str	r2, [r3, #32]
 80045d2:	687b      	ldr	r3, [r7, #4]
 80045d4:	2284      	movs	r2, #132	; 0x84
 80045d6:	589b      	ldr	r3, [r3, r2]
 80045d8:	2202      	movs	r2, #2
 80045da:	431a      	orrs	r2, r3
 80045dc:	687b      	ldr	r3, [r7, #4]
 80045de:	2184      	movs	r1, #132	; 0x84
 80045e0:	505a      	str	r2, [r3, r1]
 80045e2:	23a4      	movs	r3, #164	; 0xa4
 80045e4:	18fb      	adds	r3, r7, r3
 80045e6:	681b      	ldr	r3, [r3, #0]
 80045e8:	2208      	movs	r2, #8
 80045ea:	4013      	ands	r3, r2
 80045ec:	d017      	beq.n	800461e <HAL_UART_IRQHandler+0x162>
 80045ee:	23a0      	movs	r3, #160	; 0xa0
 80045f0:	18fb      	adds	r3, r7, r3
 80045f2:	681b      	ldr	r3, [r3, #0]
 80045f4:	2220      	movs	r2, #32
 80045f6:	4013      	ands	r3, r2
 80045f8:	d105      	bne.n	8004606 <HAL_UART_IRQHandler+0x14a>
 80045fa:	239c      	movs	r3, #156	; 0x9c
 80045fc:	18fb      	adds	r3, r7, r3
 80045fe:	681b      	ldr	r3, [r3, #0]
 8004600:	2201      	movs	r2, #1
 8004602:	4013      	ands	r3, r2
 8004604:	d00b      	beq.n	800461e <HAL_UART_IRQHandler+0x162>
 8004606:	687b      	ldr	r3, [r7, #4]
 8004608:	681b      	ldr	r3, [r3, #0]
 800460a:	2208      	movs	r2, #8
 800460c:	621a      	str	r2, [r3, #32]
 800460e:	687b      	ldr	r3, [r7, #4]
 8004610:	2284      	movs	r2, #132	; 0x84
 8004612:	589b      	ldr	r3, [r3, r2]
 8004614:	2208      	movs	r2, #8
 8004616:	431a      	orrs	r2, r3
 8004618:	687b      	ldr	r3, [r7, #4]
 800461a:	2184      	movs	r1, #132	; 0x84
 800461c:	505a      	str	r2, [r3, r1]
 800461e:	23a4      	movs	r3, #164	; 0xa4
 8004620:	18fb      	adds	r3, r7, r3
 8004622:	681a      	ldr	r2, [r3, #0]
 8004624:	2380      	movs	r3, #128	; 0x80
 8004626:	011b      	lsls	r3, r3, #4
 8004628:	4013      	ands	r3, r2
 800462a:	d013      	beq.n	8004654 <HAL_UART_IRQHandler+0x198>
 800462c:	23a0      	movs	r3, #160	; 0xa0
 800462e:	18fb      	adds	r3, r7, r3
 8004630:	681a      	ldr	r2, [r3, #0]
 8004632:	2380      	movs	r3, #128	; 0x80
 8004634:	04db      	lsls	r3, r3, #19
 8004636:	4013      	ands	r3, r2
 8004638:	d00c      	beq.n	8004654 <HAL_UART_IRQHandler+0x198>
 800463a:	687b      	ldr	r3, [r7, #4]
 800463c:	681b      	ldr	r3, [r3, #0]
 800463e:	2280      	movs	r2, #128	; 0x80
 8004640:	0112      	lsls	r2, r2, #4
 8004642:	621a      	str	r2, [r3, #32]
 8004644:	687b      	ldr	r3, [r7, #4]
 8004646:	2284      	movs	r2, #132	; 0x84
 8004648:	589b      	ldr	r3, [r3, r2]
 800464a:	2220      	movs	r2, #32
 800464c:	431a      	orrs	r2, r3
 800464e:	687b      	ldr	r3, [r7, #4]
 8004650:	2184      	movs	r1, #132	; 0x84
 8004652:	505a      	str	r2, [r3, r1]
 8004654:	687b      	ldr	r3, [r7, #4]
 8004656:	2284      	movs	r2, #132	; 0x84
 8004658:	589b      	ldr	r3, [r3, r2]
 800465a:	2b00      	cmp	r3, #0
 800465c:	d100      	bne.n	8004660 <HAL_UART_IRQHandler+0x1a4>
 800465e:	e201      	b.n	8004a64 <HAL_UART_IRQHandler+0x5a8>
 8004660:	23a4      	movs	r3, #164	; 0xa4
 8004662:	18fb      	adds	r3, r7, r3
 8004664:	681b      	ldr	r3, [r3, #0]
 8004666:	2220      	movs	r2, #32
 8004668:	4013      	ands	r3, r2
 800466a:	d00e      	beq.n	800468a <HAL_UART_IRQHandler+0x1ce>
 800466c:	23a0      	movs	r3, #160	; 0xa0
 800466e:	18fb      	adds	r3, r7, r3
 8004670:	681b      	ldr	r3, [r3, #0]
 8004672:	2220      	movs	r2, #32
 8004674:	4013      	ands	r3, r2
 8004676:	d008      	beq.n	800468a <HAL_UART_IRQHandler+0x1ce>
 8004678:	687b      	ldr	r3, [r7, #4]
 800467a:	6e9b      	ldr	r3, [r3, #104]	; 0x68
 800467c:	2b00      	cmp	r3, #0
 800467e:	d004      	beq.n	800468a <HAL_UART_IRQHandler+0x1ce>
 8004680:	687b      	ldr	r3, [r7, #4]
 8004682:	6e9b      	ldr	r3, [r3, #104]	; 0x68
 8004684:	687a      	ldr	r2, [r7, #4]
 8004686:	0010      	movs	r0, r2
 8004688:	4798      	blx	r3
 800468a:	687b      	ldr	r3, [r7, #4]
 800468c:	2284      	movs	r2, #132	; 0x84
 800468e:	589b      	ldr	r3, [r3, r2]
 8004690:	2194      	movs	r1, #148	; 0x94
 8004692:	187a      	adds	r2, r7, r1
 8004694:	6013      	str	r3, [r2, #0]
 8004696:	687b      	ldr	r3, [r7, #4]
 8004698:	681b      	ldr	r3, [r3, #0]
 800469a:	689b      	ldr	r3, [r3, #8]
 800469c:	2240      	movs	r2, #64	; 0x40
 800469e:	4013      	ands	r3, r2
 80046a0:	2b40      	cmp	r3, #64	; 0x40
 80046a2:	d004      	beq.n	80046ae <HAL_UART_IRQHandler+0x1f2>
 80046a4:	187b      	adds	r3, r7, r1
 80046a6:	681b      	ldr	r3, [r3, #0]
 80046a8:	2228      	movs	r2, #40	; 0x28
 80046aa:	4013      	ands	r3, r2
 80046ac:	d047      	beq.n	800473e <HAL_UART_IRQHandler+0x282>
 80046ae:	687b      	ldr	r3, [r7, #4]
 80046b0:	0018      	movs	r0, r3
 80046b2:	f000 ff2f 	bl	8005514 <UART_EndRxTransfer>
 80046b6:	687b      	ldr	r3, [r7, #4]
 80046b8:	681b      	ldr	r3, [r3, #0]
 80046ba:	689b      	ldr	r3, [r3, #8]
 80046bc:	2240      	movs	r2, #64	; 0x40
 80046be:	4013      	ands	r3, r2
 80046c0:	2b40      	cmp	r3, #64	; 0x40
 80046c2:	d137      	bne.n	8004734 <HAL_UART_IRQHandler+0x278>
 80046c4:	f3ef 8310 	mrs	r3, PRIMASK
 80046c8:	663b      	str	r3, [r7, #96]	; 0x60
 80046ca:	6e3b      	ldr	r3, [r7, #96]	; 0x60
 80046cc:	2090      	movs	r0, #144	; 0x90
 80046ce:	183a      	adds	r2, r7, r0
 80046d0:	6013      	str	r3, [r2, #0]
 80046d2:	2301      	movs	r3, #1
 80046d4:	667b      	str	r3, [r7, #100]	; 0x64
 80046d6:	6e7b      	ldr	r3, [r7, #100]	; 0x64
 80046d8:	f383 8810 	msr	PRIMASK, r3
 80046dc:	46c0      	nop			; (mov r8, r8)
 80046de:	687b      	ldr	r3, [r7, #4]
 80046e0:	681b      	ldr	r3, [r3, #0]
 80046e2:	689a      	ldr	r2, [r3, #8]
 80046e4:	687b      	ldr	r3, [r7, #4]
 80046e6:	681b      	ldr	r3, [r3, #0]
 80046e8:	2140      	movs	r1, #64	; 0x40
 80046ea:	438a      	bics	r2, r1
 80046ec:	609a      	str	r2, [r3, #8]
 80046ee:	183b      	adds	r3, r7, r0
 80046f0:	681b      	ldr	r3, [r3, #0]
 80046f2:	66bb      	str	r3, [r7, #104]	; 0x68
 80046f4:	6ebb      	ldr	r3, [r7, #104]	; 0x68
 80046f6:	f383 8810 	msr	PRIMASK, r3
 80046fa:	46c0      	nop			; (mov r8, r8)
 80046fc:	687b      	ldr	r3, [r7, #4]
 80046fe:	6f5b      	ldr	r3, [r3, #116]	; 0x74
 8004700:	2b00      	cmp	r3, #0
 8004702:	d012      	beq.n	800472a <HAL_UART_IRQHandler+0x26e>
 8004704:	687b      	ldr	r3, [r7, #4]
 8004706:	6f5b      	ldr	r3, [r3, #116]	; 0x74
 8004708:	4a14      	ldr	r2, [pc, #80]	; (800475c <HAL_UART_IRQHandler+0x2a0>)
 800470a:	639a      	str	r2, [r3, #56]	; 0x38
 800470c:	687b      	ldr	r3, [r7, #4]
 800470e:	6f5b      	ldr	r3, [r3, #116]	; 0x74
 8004710:	0018      	movs	r0, r3
 8004712:	f7fe f94b 	bl	80029ac <HAL_DMA_Abort_IT>
 8004716:	1e03      	subs	r3, r0, #0
 8004718:	d01a      	beq.n	8004750 <HAL_UART_IRQHandler+0x294>
 800471a:	687b      	ldr	r3, [r7, #4]
 800471c:	6f5b      	ldr	r3, [r3, #116]	; 0x74
 800471e:	6b9a      	ldr	r2, [r3, #56]	; 0x38
 8004720:	687b      	ldr	r3, [r7, #4]
 8004722:	6f5b      	ldr	r3, [r3, #116]	; 0x74
 8004724:	0018      	movs	r0, r3
 8004726:	4790      	blx	r2
 8004728:	e012      	b.n	8004750 <HAL_UART_IRQHandler+0x294>
 800472a:	687b      	ldr	r3, [r7, #4]
 800472c:	0018      	movs	r0, r3
 800472e:	f000 f9af 	bl	8004a90 <HAL_UART_ErrorCallback>
 8004732:	e00d      	b.n	8004750 <HAL_UART_IRQHandler+0x294>
 8004734:	687b      	ldr	r3, [r7, #4]
 8004736:	0018      	movs	r0, r3
 8004738:	f000 f9aa 	bl	8004a90 <HAL_UART_ErrorCallback>
 800473c:	e008      	b.n	8004750 <HAL_UART_IRQHandler+0x294>
 800473e:	687b      	ldr	r3, [r7, #4]
 8004740:	0018      	movs	r0, r3
 8004742:	f000 f9a5 	bl	8004a90 <HAL_UART_ErrorCallback>
 8004746:	687b      	ldr	r3, [r7, #4]
 8004748:	2284      	movs	r2, #132	; 0x84
 800474a:	2100      	movs	r1, #0
 800474c:	5099      	str	r1, [r3, r2]
 800474e:	e189      	b.n	8004a64 <HAL_UART_IRQHandler+0x5a8>
 8004750:	46c0      	nop			; (mov r8, r8)
 8004752:	e187      	b.n	8004a64 <HAL_UART_IRQHandler+0x5a8>
 8004754:	0000080f 	.word	0x0000080f
 8004758:	04000120 	.word	0x04000120
 800475c:	080055dd 	.word	0x080055dd
 8004760:	687b      	ldr	r3, [r7, #4]
 8004762:	6e1b      	ldr	r3, [r3, #96]	; 0x60
 8004764:	2b01      	cmp	r3, #1
 8004766:	d000      	beq.n	800476a <HAL_UART_IRQHandler+0x2ae>
 8004768:	e13b      	b.n	80049e2 <HAL_UART_IRQHandler+0x526>
 800476a:	23a4      	movs	r3, #164	; 0xa4
 800476c:	18fb      	adds	r3, r7, r3
 800476e:	681b      	ldr	r3, [r3, #0]
 8004770:	2210      	movs	r2, #16
 8004772:	4013      	ands	r3, r2
 8004774:	d100      	bne.n	8004778 <HAL_UART_IRQHandler+0x2bc>
 8004776:	e134      	b.n	80049e2 <HAL_UART_IRQHandler+0x526>
 8004778:	23a0      	movs	r3, #160	; 0xa0
 800477a:	18fb      	adds	r3, r7, r3
 800477c:	681b      	ldr	r3, [r3, #0]
 800477e:	2210      	movs	r2, #16
 8004780:	4013      	ands	r3, r2
 8004782:	d100      	bne.n	8004786 <HAL_UART_IRQHandler+0x2ca>
 8004784:	e12d      	b.n	80049e2 <HAL_UART_IRQHandler+0x526>
 8004786:	687b      	ldr	r3, [r7, #4]
 8004788:	681b      	ldr	r3, [r3, #0]
 800478a:	2210      	movs	r2, #16
 800478c:	621a      	str	r2, [r3, #32]
 800478e:	687b      	ldr	r3, [r7, #4]
 8004790:	681b      	ldr	r3, [r3, #0]
 8004792:	689b      	ldr	r3, [r3, #8]
 8004794:	2240      	movs	r2, #64	; 0x40
 8004796:	4013      	ands	r3, r2
 8004798:	2b40      	cmp	r3, #64	; 0x40
 800479a:	d000      	beq.n	800479e <HAL_UART_IRQHandler+0x2e2>
 800479c:	e0a1      	b.n	80048e2 <HAL_UART_IRQHandler+0x426>
 800479e:	687b      	ldr	r3, [r7, #4]
 80047a0:	6f5b      	ldr	r3, [r3, #116]	; 0x74
 80047a2:	681b      	ldr	r3, [r3, #0]
 80047a4:	685a      	ldr	r2, [r3, #4]
 80047a6:	217e      	movs	r1, #126	; 0x7e
 80047a8:	187b      	adds	r3, r7, r1
 80047aa:	801a      	strh	r2, [r3, #0]
 80047ac:	187b      	adds	r3, r7, r1
 80047ae:	881b      	ldrh	r3, [r3, #0]
 80047b0:	2b00      	cmp	r3, #0
 80047b2:	d100      	bne.n	80047b6 <HAL_UART_IRQHandler+0x2fa>
 80047b4:	e158      	b.n	8004a68 <HAL_UART_IRQHandler+0x5ac>
 80047b6:	687b      	ldr	r3, [r7, #4]
 80047b8:	2258      	movs	r2, #88	; 0x58
 80047ba:	5a9b      	ldrh	r3, [r3, r2]
 80047bc:	187a      	adds	r2, r7, r1
 80047be:	8812      	ldrh	r2, [r2, #0]
 80047c0:	429a      	cmp	r2, r3
 80047c2:	d300      	bcc.n	80047c6 <HAL_UART_IRQHandler+0x30a>
 80047c4:	e150      	b.n	8004a68 <HAL_UART_IRQHandler+0x5ac>
 80047c6:	687b      	ldr	r3, [r7, #4]
 80047c8:	187a      	adds	r2, r7, r1
 80047ca:	215a      	movs	r1, #90	; 0x5a
 80047cc:	8812      	ldrh	r2, [r2, #0]
 80047ce:	525a      	strh	r2, [r3, r1]
 80047d0:	687b      	ldr	r3, [r7, #4]
 80047d2:	6f5b      	ldr	r3, [r3, #116]	; 0x74
 80047d4:	681b      	ldr	r3, [r3, #0]
 80047d6:	681b      	ldr	r3, [r3, #0]
 80047d8:	2220      	movs	r2, #32
 80047da:	4013      	ands	r3, r2
 80047dc:	d16f      	bne.n	80048be <HAL_UART_IRQHandler+0x402>
 80047de:	f3ef 8310 	mrs	r3, PRIMASK
 80047e2:	633b      	str	r3, [r7, #48]	; 0x30
 80047e4:	6b3b      	ldr	r3, [r7, #48]	; 0x30
 80047e6:	67bb      	str	r3, [r7, #120]	; 0x78
 80047e8:	2301      	movs	r3, #1
 80047ea:	637b      	str	r3, [r7, #52]	; 0x34
 80047ec:	6b7b      	ldr	r3, [r7, #52]	; 0x34
 80047ee:	f383 8810 	msr	PRIMASK, r3
 80047f2:	46c0      	nop			; (mov r8, r8)
 80047f4:	687b      	ldr	r3, [r7, #4]
 80047f6:	681b      	ldr	r3, [r3, #0]
 80047f8:	681a      	ldr	r2, [r3, #0]
 80047fa:	687b      	ldr	r3, [r7, #4]
 80047fc:	681b      	ldr	r3, [r3, #0]
 80047fe:	499e      	ldr	r1, [pc, #632]	; (8004a78 <HAL_UART_IRQHandler+0x5bc>)
 8004800:	400a      	ands	r2, r1
 8004802:	601a      	str	r2, [r3, #0]
 8004804:	6fbb      	ldr	r3, [r7, #120]	; 0x78
 8004806:	63bb      	str	r3, [r7, #56]	; 0x38
 8004808:	6bbb      	ldr	r3, [r7, #56]	; 0x38
 800480a:	f383 8810 	msr	PRIMASK, r3
 800480e:	46c0      	nop			; (mov r8, r8)
 8004810:	f3ef 8310 	mrs	r3, PRIMASK
 8004814:	63fb      	str	r3, [r7, #60]	; 0x3c
 8004816:	6bfb      	ldr	r3, [r7, #60]	; 0x3c
 8004818:	677b      	str	r3, [r7, #116]	; 0x74
 800481a:	2301      	movs	r3, #1
 800481c:	643b      	str	r3, [r7, #64]	; 0x40
 800481e:	6c3b      	ldr	r3, [r7, #64]	; 0x40
 8004820:	f383 8810 	msr	PRIMASK, r3
 8004824:	46c0      	nop			; (mov r8, r8)
 8004826:	687b      	ldr	r3, [r7, #4]
 8004828:	681b      	ldr	r3, [r3, #0]
 800482a:	689a      	ldr	r2, [r3, #8]
 800482c:	687b      	ldr	r3, [r7, #4]
 800482e:	681b      	ldr	r3, [r3, #0]
 8004830:	2101      	movs	r1, #1
 8004832:	438a      	bics	r2, r1
 8004834:	609a      	str	r2, [r3, #8]
 8004836:	6f7b      	ldr	r3, [r7, #116]	; 0x74
 8004838:	647b      	str	r3, [r7, #68]	; 0x44
 800483a:	6c7b      	ldr	r3, [r7, #68]	; 0x44
 800483c:	f383 8810 	msr	PRIMASK, r3
 8004840:	46c0      	nop			; (mov r8, r8)
 8004842:	f3ef 8310 	mrs	r3, PRIMASK
 8004846:	64bb      	str	r3, [r7, #72]	; 0x48
 8004848:	6cbb      	ldr	r3, [r7, #72]	; 0x48
 800484a:	673b      	str	r3, [r7, #112]	; 0x70
 800484c:	2301      	movs	r3, #1
 800484e:	64fb      	str	r3, [r7, #76]	; 0x4c
 8004850:	6cfb      	ldr	r3, [r7, #76]	; 0x4c
 8004852:	f383 8810 	msr	PRIMASK, r3
 8004856:	46c0      	nop			; (mov r8, r8)
 8004858:	687b      	ldr	r3, [r7, #4]
 800485a:	681b      	ldr	r3, [r3, #0]
 800485c:	689a      	ldr	r2, [r3, #8]
 800485e:	687b      	ldr	r3, [r7, #4]
 8004860:	681b      	ldr	r3, [r3, #0]
 8004862:	2140      	movs	r1, #64	; 0x40
 8004864:	438a      	bics	r2, r1
 8004866:	609a      	str	r2, [r3, #8]
 8004868:	6f3b      	ldr	r3, [r7, #112]	; 0x70
 800486a:	653b      	str	r3, [r7, #80]	; 0x50
 800486c:	6d3b      	ldr	r3, [r7, #80]	; 0x50
 800486e:	f383 8810 	msr	PRIMASK, r3
 8004872:	46c0      	nop			; (mov r8, r8)
 8004874:	687b      	ldr	r3, [r7, #4]
 8004876:	2280      	movs	r2, #128	; 0x80
 8004878:	2120      	movs	r1, #32
 800487a:	5099      	str	r1, [r3, r2]
 800487c:	687b      	ldr	r3, [r7, #4]
 800487e:	2200      	movs	r2, #0
 8004880:	661a      	str	r2, [r3, #96]	; 0x60
 8004882:	f3ef 8310 	mrs	r3, PRIMASK
 8004886:	657b      	str	r3, [r7, #84]	; 0x54
 8004888:	6d7b      	ldr	r3, [r7, #84]	; 0x54
 800488a:	66fb      	str	r3, [r7, #108]	; 0x6c
 800488c:	2301      	movs	r3, #1
 800488e:	65bb      	str	r3, [r7, #88]	; 0x58
 8004890:	6dbb      	ldr	r3, [r7, #88]	; 0x58
 8004892:	f383 8810 	msr	PRIMASK, r3
 8004896:	46c0      	nop			; (mov r8, r8)
 8004898:	687b      	ldr	r3, [r7, #4]
 800489a:	681b      	ldr	r3, [r3, #0]
 800489c:	681a      	ldr	r2, [r3, #0]
 800489e:	687b      	ldr	r3, [r7, #4]
 80048a0:	681b      	ldr	r3, [r3, #0]
 80048a2:	2110      	movs	r1, #16
 80048a4:	438a      	bics	r2, r1
 80048a6:	601a      	str	r2, [r3, #0]
 80048a8:	6efb      	ldr	r3, [r7, #108]	; 0x6c
 80048aa:	65fb      	str	r3, [r7, #92]	; 0x5c
 80048ac:	6dfb      	ldr	r3, [r7, #92]	; 0x5c
 80048ae:	f383 8810 	msr	PRIMASK, r3
 80048b2:	46c0      	nop			; (mov r8, r8)
 80048b4:	687b      	ldr	r3, [r7, #4]
 80048b6:	6f5b      	ldr	r3, [r3, #116]	; 0x74
 80048b8:	0018      	movs	r0, r3
 80048ba:	f7fe f837 	bl	800292c <HAL_DMA_Abort>
 80048be:	687b      	ldr	r3, [r7, #4]
 80048c0:	2202      	movs	r2, #2
 80048c2:	665a      	str	r2, [r3, #100]	; 0x64
 80048c4:	687b      	ldr	r3, [r7, #4]
 80048c6:	2258      	movs	r2, #88	; 0x58
 80048c8:	5a9a      	ldrh	r2, [r3, r2]
 80048ca:	687b      	ldr	r3, [r7, #4]
 80048cc:	215a      	movs	r1, #90	; 0x5a
 80048ce:	5a5b      	ldrh	r3, [r3, r1]
 80048d0:	b29b      	uxth	r3, r3
 80048d2:	1ad3      	subs	r3, r2, r3
 80048d4:	b29a      	uxth	r2, r3
 80048d6:	687b      	ldr	r3, [r7, #4]
 80048d8:	0011      	movs	r1, r2
 80048da:	0018      	movs	r0, r3
 80048dc:	f000 f8e0 	bl	8004aa0 <HAL_UARTEx_RxEventCallback>
 80048e0:	e0c2      	b.n	8004a68 <HAL_UART_IRQHandler+0x5ac>
 80048e2:	687b      	ldr	r3, [r7, #4]
 80048e4:	2258      	movs	r2, #88	; 0x58
 80048e6:	5a99      	ldrh	r1, [r3, r2]
 80048e8:	687b      	ldr	r3, [r7, #4]
 80048ea:	225a      	movs	r2, #90	; 0x5a
 80048ec:	5a9b      	ldrh	r3, [r3, r2]
 80048ee:	b29a      	uxth	r2, r3
 80048f0:	208e      	movs	r0, #142	; 0x8e
 80048f2:	183b      	adds	r3, r7, r0
 80048f4:	1a8a      	subs	r2, r1, r2
 80048f6:	801a      	strh	r2, [r3, #0]
 80048f8:	687b      	ldr	r3, [r7, #4]
 80048fa:	225a      	movs	r2, #90	; 0x5a
 80048fc:	5a9b      	ldrh	r3, [r3, r2]
 80048fe:	b29b      	uxth	r3, r3
 8004900:	2b00      	cmp	r3, #0
 8004902:	d100      	bne.n	8004906 <HAL_UART_IRQHandler+0x44a>
 8004904:	e0b2      	b.n	8004a6c <HAL_UART_IRQHandler+0x5b0>
 8004906:	183b      	adds	r3, r7, r0
 8004908:	881b      	ldrh	r3, [r3, #0]
 800490a:	2b00      	cmp	r3, #0
 800490c:	d100      	bne.n	8004910 <HAL_UART_IRQHandler+0x454>
 800490e:	e0ad      	b.n	8004a6c <HAL_UART_IRQHandler+0x5b0>
 8004910:	f3ef 8310 	mrs	r3, PRIMASK
 8004914:	60fb      	str	r3, [r7, #12]
 8004916:	68fb      	ldr	r3, [r7, #12]
 8004918:	2488      	movs	r4, #136	; 0x88
 800491a:	193a      	adds	r2, r7, r4
 800491c:	6013      	str	r3, [r2, #0]
 800491e:	2301      	movs	r3, #1
 8004920:	613b      	str	r3, [r7, #16]
 8004922:	693b      	ldr	r3, [r7, #16]
 8004924:	f383 8810 	msr	PRIMASK, r3
 8004928:	46c0      	nop			; (mov r8, r8)
 800492a:	687b      	ldr	r3, [r7, #4]
 800492c:	681b      	ldr	r3, [r3, #0]
 800492e:	681a      	ldr	r2, [r3, #0]
 8004930:	687b      	ldr	r3, [r7, #4]
 8004932:	681b      	ldr	r3, [r3, #0]
 8004934:	4951      	ldr	r1, [pc, #324]	; (8004a7c <HAL_UART_IRQHandler+0x5c0>)
 8004936:	400a      	ands	r2, r1
 8004938:	601a      	str	r2, [r3, #0]
 800493a:	193b      	adds	r3, r7, r4
 800493c:	681b      	ldr	r3, [r3, #0]
 800493e:	617b      	str	r3, [r7, #20]
 8004940:	697b      	ldr	r3, [r7, #20]
 8004942:	f383 8810 	msr	PRIMASK, r3
 8004946:	46c0      	nop			; (mov r8, r8)
 8004948:	f3ef 8310 	mrs	r3, PRIMASK
 800494c:	61bb      	str	r3, [r7, #24]
 800494e:	69bb      	ldr	r3, [r7, #24]
 8004950:	2484      	movs	r4, #132	; 0x84
 8004952:	193a      	adds	r2, r7, r4
 8004954:	6013      	str	r3, [r2, #0]
 8004956:	2301      	movs	r3, #1
 8004958:	61fb      	str	r3, [r7, #28]
 800495a:	69fb      	ldr	r3, [r7, #28]
 800495c:	f383 8810 	msr	PRIMASK, r3
 8004960:	46c0      	nop			; (mov r8, r8)
 8004962:	687b      	ldr	r3, [r7, #4]
 8004964:	681b      	ldr	r3, [r3, #0]
 8004966:	689a      	ldr	r2, [r3, #8]
 8004968:	687b      	ldr	r3, [r7, #4]
 800496a:	681b      	ldr	r3, [r3, #0]
 800496c:	2101      	movs	r1, #1
 800496e:	438a      	bics	r2, r1
 8004970:	609a      	str	r2, [r3, #8]
 8004972:	193b      	adds	r3, r7, r4
 8004974:	681b      	ldr	r3, [r3, #0]
 8004976:	623b      	str	r3, [r7, #32]
 8004978:	6a3b      	ldr	r3, [r7, #32]
 800497a:	f383 8810 	msr	PRIMASK, r3
 800497e:	46c0      	nop			; (mov r8, r8)
 8004980:	687b      	ldr	r3, [r7, #4]
 8004982:	2280      	movs	r2, #128	; 0x80
 8004984:	2120      	movs	r1, #32
 8004986:	5099      	str	r1, [r3, r2]
 8004988:	687b      	ldr	r3, [r7, #4]
 800498a:	2200      	movs	r2, #0
 800498c:	661a      	str	r2, [r3, #96]	; 0x60
 800498e:	687b      	ldr	r3, [r7, #4]
 8004990:	2200      	movs	r2, #0
 8004992:	669a      	str	r2, [r3, #104]	; 0x68
 8004994:	f3ef 8310 	mrs	r3, PRIMASK
 8004998:	627b      	str	r3, [r7, #36]	; 0x24
 800499a:	6a7b      	ldr	r3, [r7, #36]	; 0x24
 800499c:	2480      	movs	r4, #128	; 0x80
 800499e:	193a      	adds	r2, r7, r4
 80049a0:	6013      	str	r3, [r2, #0]
 80049a2:	2301      	movs	r3, #1
 80049a4:	62bb      	str	r3, [r7, #40]	; 0x28
 80049a6:	6abb      	ldr	r3, [r7, #40]	; 0x28
 80049a8:	f383 8810 	msr	PRIMASK, r3
 80049ac:	46c0      	nop			; (mov r8, r8)
 80049ae:	687b      	ldr	r3, [r7, #4]
 80049b0:	681b      	ldr	r3, [r3, #0]
 80049b2:	681a      	ldr	r2, [r3, #0]
 80049b4:	687b      	ldr	r3, [r7, #4]
 80049b6:	681b      	ldr	r3, [r3, #0]
 80049b8:	2110      	movs	r1, #16
 80049ba:	438a      	bics	r2, r1
 80049bc:	601a      	str	r2, [r3, #0]
 80049be:	193b      	adds	r3, r7, r4
 80049c0:	681b      	ldr	r3, [r3, #0]
 80049c2:	62fb      	str	r3, [r7, #44]	; 0x2c
 80049c4:	6afb      	ldr	r3, [r7, #44]	; 0x2c
 80049c6:	f383 8810 	msr	PRIMASK, r3
 80049ca:	46c0      	nop			; (mov r8, r8)
 80049cc:	687b      	ldr	r3, [r7, #4]
 80049ce:	2202      	movs	r2, #2
 80049d0:	665a      	str	r2, [r3, #100]	; 0x64
 80049d2:	183b      	adds	r3, r7, r0
 80049d4:	881a      	ldrh	r2, [r3, #0]
 80049d6:	687b      	ldr	r3, [r7, #4]
 80049d8:	0011      	movs	r1, r2
 80049da:	0018      	movs	r0, r3
 80049dc:	f000 f860 	bl	8004aa0 <HAL_UARTEx_RxEventCallback>
 80049e0:	e044      	b.n	8004a6c <HAL_UART_IRQHandler+0x5b0>
 80049e2:	23a4      	movs	r3, #164	; 0xa4
 80049e4:	18fb      	adds	r3, r7, r3
 80049e6:	681a      	ldr	r2, [r3, #0]
 80049e8:	2380      	movs	r3, #128	; 0x80
 80049ea:	035b      	lsls	r3, r3, #13
 80049ec:	4013      	ands	r3, r2
 80049ee:	d010      	beq.n	8004a12 <HAL_UART_IRQHandler+0x556>
 80049f0:	239c      	movs	r3, #156	; 0x9c
 80049f2:	18fb      	adds	r3, r7, r3
 80049f4:	681a      	ldr	r2, [r3, #0]
 80049f6:	2380      	movs	r3, #128	; 0x80
 80049f8:	03db      	lsls	r3, r3, #15
 80049fa:	4013      	ands	r3, r2
 80049fc:	d009      	beq.n	8004a12 <HAL_UART_IRQHandler+0x556>
 80049fe:	687b      	ldr	r3, [r7, #4]
 8004a00:	681b      	ldr	r3, [r3, #0]
 8004a02:	2280      	movs	r2, #128	; 0x80
 8004a04:	0352      	lsls	r2, r2, #13
 8004a06:	621a      	str	r2, [r3, #32]
 8004a08:	687b      	ldr	r3, [r7, #4]
 8004a0a:	0018      	movs	r0, r3
 8004a0c:	f000 ffec 	bl	80059e8 <HAL_UARTEx_WakeupCallback>
 8004a10:	e02f      	b.n	8004a72 <HAL_UART_IRQHandler+0x5b6>
 8004a12:	23a4      	movs	r3, #164	; 0xa4
 8004a14:	18fb      	adds	r3, r7, r3
 8004a16:	681b      	ldr	r3, [r3, #0]
 8004a18:	2280      	movs	r2, #128	; 0x80
 8004a1a:	4013      	ands	r3, r2
 8004a1c:	d00f      	beq.n	8004a3e <HAL_UART_IRQHandler+0x582>
 8004a1e:	23a0      	movs	r3, #160	; 0xa0
 8004a20:	18fb      	adds	r3, r7, r3
 8004a22:	681b      	ldr	r3, [r3, #0]
 8004a24:	2280      	movs	r2, #128	; 0x80
 8004a26:	4013      	ands	r3, r2
 8004a28:	d009      	beq.n	8004a3e <HAL_UART_IRQHandler+0x582>
 8004a2a:	687b      	ldr	r3, [r7, #4]
 8004a2c:	6edb      	ldr	r3, [r3, #108]	; 0x6c
 8004a2e:	2b00      	cmp	r3, #0
 8004a30:	d01e      	beq.n	8004a70 <HAL_UART_IRQHandler+0x5b4>
 8004a32:	687b      	ldr	r3, [r7, #4]
 8004a34:	6edb      	ldr	r3, [r3, #108]	; 0x6c
 8004a36:	687a      	ldr	r2, [r7, #4]
 8004a38:	0010      	movs	r0, r2
 8004a3a:	4798      	blx	r3
 8004a3c:	e018      	b.n	8004a70 <HAL_UART_IRQHandler+0x5b4>
 8004a3e:	23a4      	movs	r3, #164	; 0xa4
 8004a40:	18fb      	adds	r3, r7, r3
 8004a42:	681b      	ldr	r3, [r3, #0]
 8004a44:	2240      	movs	r2, #64	; 0x40
 8004a46:	4013      	ands	r3, r2
 8004a48:	d013      	beq.n	8004a72 <HAL_UART_IRQHandler+0x5b6>
 8004a4a:	23a0      	movs	r3, #160	; 0xa0
 8004a4c:	18fb      	adds	r3, r7, r3
 8004a4e:	681b      	ldr	r3, [r3, #0]
 8004a50:	2240      	movs	r2, #64	; 0x40
 8004a52:	4013      	ands	r3, r2
 8004a54:	d00d      	beq.n	8004a72 <HAL_UART_IRQHandler+0x5b6>
 8004a56:	687b      	ldr	r3, [r7, #4]
 8004a58:	0018      	movs	r0, r3
 8004a5a:	f000 fdd6 	bl	800560a <UART_EndTransmit_IT>
 8004a5e:	e008      	b.n	8004a72 <HAL_UART_IRQHandler+0x5b6>
 8004a60:	46c0      	nop			; (mov r8, r8)
 8004a62:	e006      	b.n	8004a72 <HAL_UART_IRQHandler+0x5b6>
 8004a64:	46c0      	nop			; (mov r8, r8)
 8004a66:	e004      	b.n	8004a72 <HAL_UART_IRQHandler+0x5b6>
 8004a68:	46c0      	nop			; (mov r8, r8)
 8004a6a:	e002      	b.n	8004a72 <HAL_UART_IRQHandler+0x5b6>
 8004a6c:	46c0      	nop			; (mov r8, r8)
 8004a6e:	e000      	b.n	8004a72 <HAL_UART_IRQHandler+0x5b6>
 8004a70:	46c0      	nop			; (mov r8, r8)
 8004a72:	46bd      	mov	sp, r7
 8004a74:	b02b      	add	sp, #172	; 0xac
 8004a76:	bd90      	pop	{r4, r7, pc}
 8004a78:	fffffeff 	.word	0xfffffeff
 8004a7c:	fffffedf 	.word	0xfffffedf

08004a80 <HAL_UART_TxCpltCallback>:
 8004a80:	b580      	push	{r7, lr}
 8004a82:	b082      	sub	sp, #8
 8004a84:	af00      	add	r7, sp, #0
 8004a86:	6078      	str	r0, [r7, #4]
 8004a88:	46c0      	nop			; (mov r8, r8)
 8004a8a:	46bd      	mov	sp, r7
 8004a8c:	b002      	add	sp, #8
 8004a8e:	bd80      	pop	{r7, pc}

08004a90 <HAL_UART_ErrorCallback>:
 8004a90:	b580      	push	{r7, lr}
 8004a92:	b082      	sub	sp, #8
 8004a94:	af00      	add	r7, sp, #0
 8004a96:	6078      	str	r0, [r7, #4]
 8004a98:	46c0      	nop			; (mov r8, r8)
 8004a9a:	46bd      	mov	sp, r7
 8004a9c:	b002      	add	sp, #8
 8004a9e:	bd80      	pop	{r7, pc}

08004aa0 <HAL_UARTEx_RxEventCallback>:
 8004aa0:	b580      	push	{r7, lr}
 8004aa2:	b082      	sub	sp, #8
 8004aa4:	af00      	add	r7, sp, #0
 8004aa6:	6078      	str	r0, [r7, #4]
 8004aa8:	000a      	movs	r2, r1
 8004aaa:	1cbb      	adds	r3, r7, #2
 8004aac:	801a      	strh	r2, [r3, #0]
 8004aae:	46c0      	nop			; (mov r8, r8)
 8004ab0:	46bd      	mov	sp, r7
 8004ab2:	b002      	add	sp, #8
 8004ab4:	bd80      	pop	{r7, pc}
	...

08004ab8 <UART_SetConfig>:
 8004ab8:	b5b0      	push	{r4, r5, r7, lr}
 8004aba:	b08e      	sub	sp, #56	; 0x38
 8004abc:	af00      	add	r7, sp, #0
 8004abe:	61f8      	str	r0, [r7, #28]
 8004ac0:	231a      	movs	r3, #26
 8004ac2:	2218      	movs	r2, #24
 8004ac4:	189b      	adds	r3, r3, r2
 8004ac6:	19db      	adds	r3, r3, r7
 8004ac8:	2200      	movs	r2, #0
 8004aca:	701a      	strb	r2, [r3, #0]
 8004acc:	69fb      	ldr	r3, [r7, #28]
 8004ace:	689a      	ldr	r2, [r3, #8]
 8004ad0:	69fb      	ldr	r3, [r7, #28]
 8004ad2:	691b      	ldr	r3, [r3, #16]
 8004ad4:	431a      	orrs	r2, r3
 8004ad6:	69fb      	ldr	r3, [r7, #28]
 8004ad8:	695b      	ldr	r3, [r3, #20]
 8004ada:	431a      	orrs	r2, r3
 8004adc:	69fb      	ldr	r3, [r7, #28]
 8004ade:	69db      	ldr	r3, [r3, #28]
 8004ae0:	4313      	orrs	r3, r2
 8004ae2:	637b      	str	r3, [r7, #52]	; 0x34
 8004ae4:	69fb      	ldr	r3, [r7, #28]
 8004ae6:	681b      	ldr	r3, [r3, #0]
 8004ae8:	681b      	ldr	r3, [r3, #0]
 8004aea:	4ac3      	ldr	r2, [pc, #780]	; (8004df8 <UART_SetConfig+0x340>)
 8004aec:	4013      	ands	r3, r2
 8004aee:	0019      	movs	r1, r3
 8004af0:	69fb      	ldr	r3, [r7, #28]
 8004af2:	681b      	ldr	r3, [r3, #0]
 8004af4:	6b7a      	ldr	r2, [r7, #52]	; 0x34
 8004af6:	430a      	orrs	r2, r1
 8004af8:	601a      	str	r2, [r3, #0]
 8004afa:	69fb      	ldr	r3, [r7, #28]
 8004afc:	681b      	ldr	r3, [r3, #0]
 8004afe:	685b      	ldr	r3, [r3, #4]
 8004b00:	4abe      	ldr	r2, [pc, #760]	; (8004dfc <UART_SetConfig+0x344>)
 8004b02:	4013      	ands	r3, r2
 8004b04:	0019      	movs	r1, r3
 8004b06:	69fb      	ldr	r3, [r7, #28]
 8004b08:	68da      	ldr	r2, [r3, #12]
 8004b0a:	69fb      	ldr	r3, [r7, #28]
 8004b0c:	681b      	ldr	r3, [r3, #0]
 8004b0e:	430a      	orrs	r2, r1
 8004b10:	605a      	str	r2, [r3, #4]
 8004b12:	69fb      	ldr	r3, [r7, #28]
 8004b14:	699b      	ldr	r3, [r3, #24]
 8004b16:	637b      	str	r3, [r7, #52]	; 0x34
 8004b18:	69fb      	ldr	r3, [r7, #28]
 8004b1a:	681b      	ldr	r3, [r3, #0]
 8004b1c:	4ab8      	ldr	r2, [pc, #736]	; (8004e00 <UART_SetConfig+0x348>)
 8004b1e:	4293      	cmp	r3, r2
 8004b20:	d004      	beq.n	8004b2c <UART_SetConfig+0x74>
 8004b22:	69fb      	ldr	r3, [r7, #28]
 8004b24:	6a1b      	ldr	r3, [r3, #32]
 8004b26:	6b7a      	ldr	r2, [r7, #52]	; 0x34
 8004b28:	4313      	orrs	r3, r2
 8004b2a:	637b      	str	r3, [r7, #52]	; 0x34
 8004b2c:	69fb      	ldr	r3, [r7, #28]
 8004b2e:	681b      	ldr	r3, [r3, #0]
 8004b30:	689b      	ldr	r3, [r3, #8]
 8004b32:	4ab4      	ldr	r2, [pc, #720]	; (8004e04 <UART_SetConfig+0x34c>)
 8004b34:	4013      	ands	r3, r2
 8004b36:	0019      	movs	r1, r3
 8004b38:	69fb      	ldr	r3, [r7, #28]
 8004b3a:	681b      	ldr	r3, [r3, #0]
 8004b3c:	6b7a      	ldr	r2, [r7, #52]	; 0x34
 8004b3e:	430a      	orrs	r2, r1
 8004b40:	609a      	str	r2, [r3, #8]
 8004b42:	69fb      	ldr	r3, [r7, #28]
 8004b44:	681b      	ldr	r3, [r3, #0]
 8004b46:	4ab0      	ldr	r2, [pc, #704]	; (8004e08 <UART_SetConfig+0x350>)
 8004b48:	4293      	cmp	r3, r2
 8004b4a:	d131      	bne.n	8004bb0 <UART_SetConfig+0xf8>
 8004b4c:	4baf      	ldr	r3, [pc, #700]	; (8004e0c <UART_SetConfig+0x354>)
 8004b4e:	6cdb      	ldr	r3, [r3, #76]	; 0x4c
 8004b50:	2203      	movs	r2, #3
 8004b52:	4013      	ands	r3, r2
 8004b54:	2b03      	cmp	r3, #3
 8004b56:	d01d      	beq.n	8004b94 <UART_SetConfig+0xdc>
 8004b58:	d823      	bhi.n	8004ba2 <UART_SetConfig+0xea>
 8004b5a:	2b02      	cmp	r3, #2
 8004b5c:	d00c      	beq.n	8004b78 <UART_SetConfig+0xc0>
 8004b5e:	d820      	bhi.n	8004ba2 <UART_SetConfig+0xea>
 8004b60:	2b00      	cmp	r3, #0
 8004b62:	d002      	beq.n	8004b6a <UART_SetConfig+0xb2>
 8004b64:	2b01      	cmp	r3, #1
 8004b66:	d00e      	beq.n	8004b86 <UART_SetConfig+0xce>
 8004b68:	e01b      	b.n	8004ba2 <UART_SetConfig+0xea>
 8004b6a:	231b      	movs	r3, #27
 8004b6c:	2218      	movs	r2, #24
 8004b6e:	189b      	adds	r3, r3, r2
 8004b70:	19db      	adds	r3, r3, r7
 8004b72:	2201      	movs	r2, #1
 8004b74:	701a      	strb	r2, [r3, #0]
 8004b76:	e0b4      	b.n	8004ce2 <UART_SetConfig+0x22a>
 8004b78:	231b      	movs	r3, #27
 8004b7a:	2218      	movs	r2, #24
 8004b7c:	189b      	adds	r3, r3, r2
 8004b7e:	19db      	adds	r3, r3, r7
 8004b80:	2202      	movs	r2, #2
 8004b82:	701a      	strb	r2, [r3, #0]
 8004b84:	e0ad      	b.n	8004ce2 <UART_SetConfig+0x22a>
 8004b86:	231b      	movs	r3, #27
 8004b88:	2218      	movs	r2, #24
 8004b8a:	189b      	adds	r3, r3, r2
 8004b8c:	19db      	adds	r3, r3, r7
 8004b8e:	2204      	movs	r2, #4
 8004b90:	701a      	strb	r2, [r3, #0]
 8004b92:	e0a6      	b.n	8004ce2 <UART_SetConfig+0x22a>
 8004b94:	231b      	movs	r3, #27
 8004b96:	2218      	movs	r2, #24
 8004b98:	189b      	adds	r3, r3, r2
 8004b9a:	19db      	adds	r3, r3, r7
 8004b9c:	2208      	movs	r2, #8
 8004b9e:	701a      	strb	r2, [r3, #0]
 8004ba0:	e09f      	b.n	8004ce2 <UART_SetConfig+0x22a>
 8004ba2:	231b      	movs	r3, #27
 8004ba4:	2218      	movs	r2, #24
 8004ba6:	189b      	adds	r3, r3, r2
 8004ba8:	19db      	adds	r3, r3, r7
 8004baa:	2210      	movs	r2, #16
 8004bac:	701a      	strb	r2, [r3, #0]
 8004bae:	e098      	b.n	8004ce2 <UART_SetConfig+0x22a>
 8004bb0:	69fb      	ldr	r3, [r7, #28]
 8004bb2:	681b      	ldr	r3, [r3, #0]
 8004bb4:	4a96      	ldr	r2, [pc, #600]	; (8004e10 <UART_SetConfig+0x358>)
 8004bb6:	4293      	cmp	r3, r2
 8004bb8:	d131      	bne.n	8004c1e <UART_SetConfig+0x166>
 8004bba:	4b94      	ldr	r3, [pc, #592]	; (8004e0c <UART_SetConfig+0x354>)
 8004bbc:	6cdb      	ldr	r3, [r3, #76]	; 0x4c
 8004bbe:	220c      	movs	r2, #12
 8004bc0:	4013      	ands	r3, r2
 8004bc2:	2b0c      	cmp	r3, #12
 8004bc4:	d01d      	beq.n	8004c02 <UART_SetConfig+0x14a>
 8004bc6:	d823      	bhi.n	8004c10 <UART_SetConfig+0x158>
 8004bc8:	2b08      	cmp	r3, #8
 8004bca:	d00c      	beq.n	8004be6 <UART_SetConfig+0x12e>
 8004bcc:	d820      	bhi.n	8004c10 <UART_SetConfig+0x158>
 8004bce:	2b00      	cmp	r3, #0
 8004bd0:	d002      	beq.n	8004bd8 <UART_SetConfig+0x120>
 8004bd2:	2b04      	cmp	r3, #4
 8004bd4:	d00e      	beq.n	8004bf4 <UART_SetConfig+0x13c>
 8004bd6:	e01b      	b.n	8004c10 <UART_SetConfig+0x158>
 8004bd8:	231b      	movs	r3, #27
 8004bda:	2218      	movs	r2, #24
 8004bdc:	189b      	adds	r3, r3, r2
 8004bde:	19db      	adds	r3, r3, r7
 8004be0:	2200      	movs	r2, #0
 8004be2:	701a      	strb	r2, [r3, #0]
 8004be4:	e07d      	b.n	8004ce2 <UART_SetConfig+0x22a>
 8004be6:	231b      	movs	r3, #27
 8004be8:	2218      	movs	r2, #24
 8004bea:	189b      	adds	r3, r3, r2
 8004bec:	19db      	adds	r3, r3, r7
 8004bee:	2202      	movs	r2, #2
 8004bf0:	701a      	strb	r2, [r3, #0]
 8004bf2:	e076      	b.n	8004ce2 <UART_SetConfig+0x22a>
 8004bf4:	231b      	movs	r3, #27
 8004bf6:	2218      	movs	r2, #24
 8004bf8:	189b      	adds	r3, r3, r2
 8004bfa:	19db      	adds	r3, r3, r7
 8004bfc:	2204      	movs	r2, #4
 8004bfe:	701a      	strb	r2, [r3, #0]
 8004c00:	e06f      	b.n	8004ce2 <UART_SetConfig+0x22a>
 8004c02:	231b      	movs	r3, #27
 8004c04:	2218      	movs	r2, #24
 8004c06:	189b      	adds	r3, r3, r2
 8004c08:	19db      	adds	r3, r3, r7
 8004c0a:	2208      	movs	r2, #8
 8004c0c:	701a      	strb	r2, [r3, #0]
 8004c0e:	e068      	b.n	8004ce2 <UART_SetConfig+0x22a>
 8004c10:	231b      	movs	r3, #27
 8004c12:	2218      	movs	r2, #24
 8004c14:	189b      	adds	r3, r3, r2
 8004c16:	19db      	adds	r3, r3, r7
 8004c18:	2210      	movs	r2, #16
 8004c1a:	701a      	strb	r2, [r3, #0]
 8004c1c:	e061      	b.n	8004ce2 <UART_SetConfig+0x22a>
 8004c1e:	69fb      	ldr	r3, [r7, #28]
 8004c20:	681b      	ldr	r3, [r3, #0]
 8004c22:	4a7c      	ldr	r2, [pc, #496]	; (8004e14 <UART_SetConfig+0x35c>)
 8004c24:	4293      	cmp	r3, r2
 8004c26:	d106      	bne.n	8004c36 <UART_SetConfig+0x17e>
 8004c28:	231b      	movs	r3, #27
 8004c2a:	2218      	movs	r2, #24
 8004c2c:	189b      	adds	r3, r3, r2
 8004c2e:	19db      	adds	r3, r3, r7
 8004c30:	2200      	movs	r2, #0
 8004c32:	701a      	strb	r2, [r3, #0]
 8004c34:	e055      	b.n	8004ce2 <UART_SetConfig+0x22a>
 8004c36:	69fb      	ldr	r3, [r7, #28]
 8004c38:	681b      	ldr	r3, [r3, #0]
 8004c3a:	4a77      	ldr	r2, [pc, #476]	; (8004e18 <UART_SetConfig+0x360>)
 8004c3c:	4293      	cmp	r3, r2
 8004c3e:	d106      	bne.n	8004c4e <UART_SetConfig+0x196>
 8004c40:	231b      	movs	r3, #27
 8004c42:	2218      	movs	r2, #24
 8004c44:	189b      	adds	r3, r3, r2
 8004c46:	19db      	adds	r3, r3, r7
 8004c48:	2200      	movs	r2, #0
 8004c4a:	701a      	strb	r2, [r3, #0]
 8004c4c:	e049      	b.n	8004ce2 <UART_SetConfig+0x22a>
 8004c4e:	69fb      	ldr	r3, [r7, #28]
 8004c50:	681b      	ldr	r3, [r3, #0]
 8004c52:	4a6b      	ldr	r2, [pc, #428]	; (8004e00 <UART_SetConfig+0x348>)
 8004c54:	4293      	cmp	r3, r2
 8004c56:	d13e      	bne.n	8004cd6 <UART_SetConfig+0x21e>
 8004c58:	4b6c      	ldr	r3, [pc, #432]	; (8004e0c <UART_SetConfig+0x354>)
 8004c5a:	6cda      	ldr	r2, [r3, #76]	; 0x4c
 8004c5c:	23c0      	movs	r3, #192	; 0xc0
 8004c5e:	011b      	lsls	r3, r3, #4
 8004c60:	4013      	ands	r3, r2
 8004c62:	22c0      	movs	r2, #192	; 0xc0
 8004c64:	0112      	lsls	r2, r2, #4
 8004c66:	4293      	cmp	r3, r2
 8004c68:	d027      	beq.n	8004cba <UART_SetConfig+0x202>
 8004c6a:	22c0      	movs	r2, #192	; 0xc0
 8004c6c:	0112      	lsls	r2, r2, #4
 8004c6e:	4293      	cmp	r3, r2
 8004c70:	d82a      	bhi.n	8004cc8 <UART_SetConfig+0x210>
 8004c72:	2280      	movs	r2, #128	; 0x80
 8004c74:	0112      	lsls	r2, r2, #4
 8004c76:	4293      	cmp	r3, r2
 8004c78:	d011      	beq.n	8004c9e <UART_SetConfig+0x1e6>
 8004c7a:	2280      	movs	r2, #128	; 0x80
 8004c7c:	0112      	lsls	r2, r2, #4
 8004c7e:	4293      	cmp	r3, r2
 8004c80:	d822      	bhi.n	8004cc8 <UART_SetConfig+0x210>
 8004c82:	2b00      	cmp	r3, #0
 8004c84:	d004      	beq.n	8004c90 <UART_SetConfig+0x1d8>
 8004c86:	2280      	movs	r2, #128	; 0x80
 8004c88:	00d2      	lsls	r2, r2, #3
 8004c8a:	4293      	cmp	r3, r2
 8004c8c:	d00e      	beq.n	8004cac <UART_SetConfig+0x1f4>
 8004c8e:	e01b      	b.n	8004cc8 <UART_SetConfig+0x210>
 8004c90:	231b      	movs	r3, #27
 8004c92:	2218      	movs	r2, #24
 8004c94:	189b      	adds	r3, r3, r2
 8004c96:	19db      	adds	r3, r3, r7
 8004c98:	2200      	movs	r2, #0
 8004c9a:	701a      	strb	r2, [r3, #0]
 8004c9c:	e021      	b.n	8004ce2 <UART_SetConfig+0x22a>
 8004c9e:	231b      	movs	r3, #27
 8004ca0:	2218      	movs	r2, #24
 8004ca2:	189b      	adds	r3, r3, r2
 8004ca4:	19db      	adds	r3, r3, r7
 8004ca6:	2202      	movs	r2, #2
 8004ca8:	701a      	strb	r2, [r3, #0]
 8004caa:	e01a      	b.n	8004ce2 <UART_SetConfig+0x22a>
 8004cac:	231b      	movs	r3, #27
 8004cae:	2218      	movs	r2, #24
 8004cb0:	189b      	adds	r3, r3, r2
 8004cb2:	19db      	adds	r3, r3, r7
 8004cb4:	2204      	movs	r2, #4
 8004cb6:	701a      	strb	r2, [r3, #0]
 8004cb8:	e013      	b.n	8004ce2 <UART_SetConfig+0x22a>
 8004cba:	231b      	movs	r3, #27
 8004cbc:	2218      	movs	r2, #24
 8004cbe:	189b      	adds	r3, r3, r2
 8004cc0:	19db      	adds	r3, r3, r7
 8004cc2:	2208      	movs	r2, #8
 8004cc4:	701a      	strb	r2, [r3, #0]
 8004cc6:	e00c      	b.n	8004ce2 <UART_SetConfig+0x22a>
 8004cc8:	231b      	movs	r3, #27
 8004cca:	2218      	movs	r2, #24
 8004ccc:	189b      	adds	r3, r3, r2
 8004cce:	19db      	adds	r3, r3, r7
 8004cd0:	2210      	movs	r2, #16
 8004cd2:	701a      	strb	r2, [r3, #0]
 8004cd4:	e005      	b.n	8004ce2 <UART_SetConfig+0x22a>
 8004cd6:	231b      	movs	r3, #27
 8004cd8:	2218      	movs	r2, #24
 8004cda:	189b      	adds	r3, r3, r2
 8004cdc:	19db      	adds	r3, r3, r7
 8004cde:	2210      	movs	r2, #16
 8004ce0:	701a      	strb	r2, [r3, #0]
 8004ce2:	69fb      	ldr	r3, [r7, #28]
 8004ce4:	681b      	ldr	r3, [r3, #0]
 8004ce6:	4a46      	ldr	r2, [pc, #280]	; (8004e00 <UART_SetConfig+0x348>)
 8004ce8:	4293      	cmp	r3, r2
 8004cea:	d000      	beq.n	8004cee <UART_SetConfig+0x236>
 8004cec:	e09a      	b.n	8004e24 <UART_SetConfig+0x36c>
 8004cee:	231b      	movs	r3, #27
 8004cf0:	2218      	movs	r2, #24
 8004cf2:	189b      	adds	r3, r3, r2
 8004cf4:	19db      	adds	r3, r3, r7
 8004cf6:	781b      	ldrb	r3, [r3, #0]
 8004cf8:	2b08      	cmp	r3, #8
 8004cfa:	d01d      	beq.n	8004d38 <UART_SetConfig+0x280>
 8004cfc:	dc20      	bgt.n	8004d40 <UART_SetConfig+0x288>
 8004cfe:	2b04      	cmp	r3, #4
 8004d00:	d015      	beq.n	8004d2e <UART_SetConfig+0x276>
 8004d02:	dc1d      	bgt.n	8004d40 <UART_SetConfig+0x288>
 8004d04:	2b00      	cmp	r3, #0
 8004d06:	d002      	beq.n	8004d0e <UART_SetConfig+0x256>
 8004d08:	2b02      	cmp	r3, #2
 8004d0a:	d005      	beq.n	8004d18 <UART_SetConfig+0x260>
 8004d0c:	e018      	b.n	8004d40 <UART_SetConfig+0x288>
 8004d0e:	f7ff f8b9 	bl	8003e84 <HAL_RCC_GetPCLK1Freq>
 8004d12:	0003      	movs	r3, r0
 8004d14:	62fb      	str	r3, [r7, #44]	; 0x2c
 8004d16:	e01c      	b.n	8004d52 <UART_SetConfig+0x29a>
 8004d18:	4b3c      	ldr	r3, [pc, #240]	; (8004e0c <UART_SetConfig+0x354>)
 8004d1a:	681b      	ldr	r3, [r3, #0]
 8004d1c:	2210      	movs	r2, #16
 8004d1e:	4013      	ands	r3, r2
 8004d20:	d002      	beq.n	8004d28 <UART_SetConfig+0x270>
 8004d22:	4b3e      	ldr	r3, [pc, #248]	; (8004e1c <UART_SetConfig+0x364>)
 8004d24:	62fb      	str	r3, [r7, #44]	; 0x2c
 8004d26:	e014      	b.n	8004d52 <UART_SetConfig+0x29a>
 8004d28:	4b3d      	ldr	r3, [pc, #244]	; (8004e20 <UART_SetConfig+0x368>)
 8004d2a:	62fb      	str	r3, [r7, #44]	; 0x2c
 8004d2c:	e011      	b.n	8004d52 <UART_SetConfig+0x29a>
 8004d2e:	f7fe fff9 	bl	8003d24 <HAL_RCC_GetSysClockFreq>
 8004d32:	0003      	movs	r3, r0
 8004d34:	62fb      	str	r3, [r7, #44]	; 0x2c
 8004d36:	e00c      	b.n	8004d52 <UART_SetConfig+0x29a>
 8004d38:	2380      	movs	r3, #128	; 0x80
 8004d3a:	021b      	lsls	r3, r3, #8
 8004d3c:	62fb      	str	r3, [r7, #44]	; 0x2c
 8004d3e:	e008      	b.n	8004d52 <UART_SetConfig+0x29a>
 8004d40:	2300      	movs	r3, #0
 8004d42:	62fb      	str	r3, [r7, #44]	; 0x2c
 8004d44:	231a      	movs	r3, #26
 8004d46:	2218      	movs	r2, #24
 8004d48:	189b      	adds	r3, r3, r2
 8004d4a:	19db      	adds	r3, r3, r7
 8004d4c:	2201      	movs	r2, #1
 8004d4e:	701a      	strb	r2, [r3, #0]
 8004d50:	46c0      	nop			; (mov r8, r8)
 8004d52:	6afb      	ldr	r3, [r7, #44]	; 0x2c
 8004d54:	2b00      	cmp	r3, #0
 8004d56:	d100      	bne.n	8004d5a <UART_SetConfig+0x2a2>
 8004d58:	e133      	b.n	8004fc2 <UART_SetConfig+0x50a>
 8004d5a:	69fb      	ldr	r3, [r7, #28]
 8004d5c:	685a      	ldr	r2, [r3, #4]
 8004d5e:	0013      	movs	r3, r2
 8004d60:	005b      	lsls	r3, r3, #1
 8004d62:	189b      	adds	r3, r3, r2
 8004d64:	6afa      	ldr	r2, [r7, #44]	; 0x2c
 8004d66:	429a      	cmp	r2, r3
 8004d68:	d305      	bcc.n	8004d76 <UART_SetConfig+0x2be>
 8004d6a:	69fb      	ldr	r3, [r7, #28]
 8004d6c:	685b      	ldr	r3, [r3, #4]
 8004d6e:	031b      	lsls	r3, r3, #12
 8004d70:	6afa      	ldr	r2, [r7, #44]	; 0x2c
 8004d72:	429a      	cmp	r2, r3
 8004d74:	d906      	bls.n	8004d84 <UART_SetConfig+0x2cc>
 8004d76:	231a      	movs	r3, #26
 8004d78:	2218      	movs	r2, #24
 8004d7a:	189b      	adds	r3, r3, r2
 8004d7c:	19db      	adds	r3, r3, r7
 8004d7e:	2201      	movs	r2, #1
 8004d80:	701a      	strb	r2, [r3, #0]
 8004d82:	e11e      	b.n	8004fc2 <UART_SetConfig+0x50a>
 8004d84:	6afb      	ldr	r3, [r7, #44]	; 0x2c
 8004d86:	613b      	str	r3, [r7, #16]
 8004d88:	2300      	movs	r3, #0
 8004d8a:	617b      	str	r3, [r7, #20]
 8004d8c:	6939      	ldr	r1, [r7, #16]
 8004d8e:	697a      	ldr	r2, [r7, #20]
 8004d90:	000b      	movs	r3, r1
 8004d92:	0e1b      	lsrs	r3, r3, #24
 8004d94:	0010      	movs	r0, r2
 8004d96:	0205      	lsls	r5, r0, #8
 8004d98:	431d      	orrs	r5, r3
 8004d9a:	000b      	movs	r3, r1
 8004d9c:	021c      	lsls	r4, r3, #8
 8004d9e:	69fb      	ldr	r3, [r7, #28]
 8004da0:	685b      	ldr	r3, [r3, #4]
 8004da2:	085b      	lsrs	r3, r3, #1
 8004da4:	60bb      	str	r3, [r7, #8]
 8004da6:	2300      	movs	r3, #0
 8004da8:	60fb      	str	r3, [r7, #12]
 8004daa:	68b8      	ldr	r0, [r7, #8]
 8004dac:	68f9      	ldr	r1, [r7, #12]
 8004dae:	1900      	adds	r0, r0, r4
 8004db0:	4169      	adcs	r1, r5
 8004db2:	69fb      	ldr	r3, [r7, #28]
 8004db4:	685b      	ldr	r3, [r3, #4]
 8004db6:	603b      	str	r3, [r7, #0]
 8004db8:	2300      	movs	r3, #0
 8004dba:	607b      	str	r3, [r7, #4]
 8004dbc:	683a      	ldr	r2, [r7, #0]
 8004dbe:	687b      	ldr	r3, [r7, #4]
 8004dc0:	f7fb fa4a 	bl	8000258 <__aeabi_uldivmod>
 8004dc4:	0002      	movs	r2, r0
 8004dc6:	000b      	movs	r3, r1
 8004dc8:	0013      	movs	r3, r2
 8004dca:	62bb      	str	r3, [r7, #40]	; 0x28
 8004dcc:	6aba      	ldr	r2, [r7, #40]	; 0x28
 8004dce:	23c0      	movs	r3, #192	; 0xc0
 8004dd0:	009b      	lsls	r3, r3, #2
 8004dd2:	429a      	cmp	r2, r3
 8004dd4:	d309      	bcc.n	8004dea <UART_SetConfig+0x332>
 8004dd6:	6aba      	ldr	r2, [r7, #40]	; 0x28
 8004dd8:	2380      	movs	r3, #128	; 0x80
 8004dda:	035b      	lsls	r3, r3, #13
 8004ddc:	429a      	cmp	r2, r3
 8004dde:	d204      	bcs.n	8004dea <UART_SetConfig+0x332>
 8004de0:	69fb      	ldr	r3, [r7, #28]
 8004de2:	681b      	ldr	r3, [r3, #0]
 8004de4:	6aba      	ldr	r2, [r7, #40]	; 0x28
 8004de6:	60da      	str	r2, [r3, #12]
 8004de8:	e0eb      	b.n	8004fc2 <UART_SetConfig+0x50a>
 8004dea:	231a      	movs	r3, #26
 8004dec:	2218      	movs	r2, #24
 8004dee:	189b      	adds	r3, r3, r2
 8004df0:	19db      	adds	r3, r3, r7
 8004df2:	2201      	movs	r2, #1
 8004df4:	701a      	strb	r2, [r3, #0]
 8004df6:	e0e4      	b.n	8004fc2 <UART_SetConfig+0x50a>
 8004df8:	efff69f3 	.word	0xefff69f3
 8004dfc:	ffffcfff 	.word	0xffffcfff
 8004e00:	40004800 	.word	0x40004800
 8004e04:	fffff4ff 	.word	0xfffff4ff
 8004e08:	40013800 	.word	0x40013800
 8004e0c:	40021000 	.word	0x40021000
 8004e10:	40004400 	.word	0x40004400
 8004e14:	40004c00 	.word	0x40004c00
 8004e18:	40005000 	.word	0x40005000
 8004e1c:	003d0900 	.word	0x003d0900
 8004e20:	00f42400 	.word	0x00f42400
 8004e24:	69fb      	ldr	r3, [r7, #28]
 8004e26:	69da      	ldr	r2, [r3, #28]
 8004e28:	2380      	movs	r3, #128	; 0x80
 8004e2a:	021b      	lsls	r3, r3, #8
 8004e2c:	429a      	cmp	r2, r3
 8004e2e:	d000      	beq.n	8004e32 <UART_SetConfig+0x37a>
 8004e30:	e070      	b.n	8004f14 <UART_SetConfig+0x45c>
 8004e32:	231b      	movs	r3, #27
 8004e34:	2218      	movs	r2, #24
 8004e36:	189b      	adds	r3, r3, r2
 8004e38:	19db      	adds	r3, r3, r7
 8004e3a:	781b      	ldrb	r3, [r3, #0]
 8004e3c:	2b08      	cmp	r3, #8
 8004e3e:	d822      	bhi.n	8004e86 <UART_SetConfig+0x3ce>
 8004e40:	009a      	lsls	r2, r3, #2
 8004e42:	4b67      	ldr	r3, [pc, #412]	; (8004fe0 <UART_SetConfig+0x528>)
 8004e44:	18d3      	adds	r3, r2, r3
 8004e46:	681b      	ldr	r3, [r3, #0]
 8004e48:	469f      	mov	pc, r3
 8004e4a:	f7ff f81b 	bl	8003e84 <HAL_RCC_GetPCLK1Freq>
 8004e4e:	0003      	movs	r3, r0
 8004e50:	62fb      	str	r3, [r7, #44]	; 0x2c
 8004e52:	e021      	b.n	8004e98 <UART_SetConfig+0x3e0>
 8004e54:	f7ff f82c 	bl	8003eb0 <HAL_RCC_GetPCLK2Freq>
 8004e58:	0003      	movs	r3, r0
 8004e5a:	62fb      	str	r3, [r7, #44]	; 0x2c
 8004e5c:	e01c      	b.n	8004e98 <UART_SetConfig+0x3e0>
 8004e5e:	4b61      	ldr	r3, [pc, #388]	; (8004fe4 <UART_SetConfig+0x52c>)
 8004e60:	681b      	ldr	r3, [r3, #0]
 8004e62:	2210      	movs	r2, #16
 8004e64:	4013      	ands	r3, r2
 8004e66:	d002      	beq.n	8004e6e <UART_SetConfig+0x3b6>
 8004e68:	4b5f      	ldr	r3, [pc, #380]	; (8004fe8 <UART_SetConfig+0x530>)
 8004e6a:	62fb      	str	r3, [r7, #44]	; 0x2c
 8004e6c:	e014      	b.n	8004e98 <UART_SetConfig+0x3e0>
 8004e6e:	4b5f      	ldr	r3, [pc, #380]	; (8004fec <UART_SetConfig+0x534>)
 8004e70:	62fb      	str	r3, [r7, #44]	; 0x2c
 8004e72:	e011      	b.n	8004e98 <UART_SetConfig+0x3e0>
 8004e74:	f7fe ff56 	bl	8003d24 <HAL_RCC_GetSysClockFreq>
 8004e78:	0003      	movs	r3, r0
 8004e7a:	62fb      	str	r3, [r7, #44]	; 0x2c
 8004e7c:	e00c      	b.n	8004e98 <UART_SetConfig+0x3e0>
 8004e7e:	2380      	movs	r3, #128	; 0x80
 8004e80:	021b      	lsls	r3, r3, #8
 8004e82:	62fb      	str	r3, [r7, #44]	; 0x2c
 8004e84:	e008      	b.n	8004e98 <UART_SetConfig+0x3e0>
 8004e86:	2300      	movs	r3, #0
 8004e88:	62fb      	str	r3, [r7, #44]	; 0x2c
 8004e8a:	231a      	movs	r3, #26
 8004e8c:	2218      	movs	r2, #24
 8004e8e:	189b      	adds	r3, r3, r2
 8004e90:	19db      	adds	r3, r3, r7
 8004e92:	2201      	movs	r2, #1
 8004e94:	701a      	strb	r2, [r3, #0]
 8004e96:	46c0      	nop			; (mov r8, r8)
 8004e98:	6afb      	ldr	r3, [r7, #44]	; 0x2c
 8004e9a:	2b00      	cmp	r3, #0
 8004e9c:	d100      	bne.n	8004ea0 <UART_SetConfig+0x3e8>
 8004e9e:	e090      	b.n	8004fc2 <UART_SetConfig+0x50a>
 8004ea0:	6afb      	ldr	r3, [r7, #44]	; 0x2c
 8004ea2:	005a      	lsls	r2, r3, #1
 8004ea4:	69fb      	ldr	r3, [r7, #28]
 8004ea6:	685b      	ldr	r3, [r3, #4]
 8004ea8:	085b      	lsrs	r3, r3, #1
 8004eaa:	18d2      	adds	r2, r2, r3
 8004eac:	69fb      	ldr	r3, [r7, #28]
 8004eae:	685b      	ldr	r3, [r3, #4]
 8004eb0:	0019      	movs	r1, r3
 8004eb2:	0010      	movs	r0, r2
 8004eb4:	f7fb f944 	bl	8000140 <__udivsi3>
 8004eb8:	0003      	movs	r3, r0
 8004eba:	62bb      	str	r3, [r7, #40]	; 0x28
 8004ebc:	6abb      	ldr	r3, [r7, #40]	; 0x28
 8004ebe:	2b0f      	cmp	r3, #15
 8004ec0:	d921      	bls.n	8004f06 <UART_SetConfig+0x44e>
 8004ec2:	6aba      	ldr	r2, [r7, #40]	; 0x28
 8004ec4:	2380      	movs	r3, #128	; 0x80
 8004ec6:	025b      	lsls	r3, r3, #9
 8004ec8:	429a      	cmp	r2, r3
 8004eca:	d21c      	bcs.n	8004f06 <UART_SetConfig+0x44e>
 8004ecc:	6abb      	ldr	r3, [r7, #40]	; 0x28
 8004ece:	b29a      	uxth	r2, r3
 8004ed0:	200e      	movs	r0, #14
 8004ed2:	2418      	movs	r4, #24
 8004ed4:	1903      	adds	r3, r0, r4
 8004ed6:	19db      	adds	r3, r3, r7
 8004ed8:	210f      	movs	r1, #15
 8004eda:	438a      	bics	r2, r1
 8004edc:	801a      	strh	r2, [r3, #0]
 8004ede:	6abb      	ldr	r3, [r7, #40]	; 0x28
 8004ee0:	085b      	lsrs	r3, r3, #1
 8004ee2:	b29b      	uxth	r3, r3
 8004ee4:	2207      	movs	r2, #7
 8004ee6:	4013      	ands	r3, r2
 8004ee8:	b299      	uxth	r1, r3
 8004eea:	1903      	adds	r3, r0, r4
 8004eec:	19db      	adds	r3, r3, r7
 8004eee:	1902      	adds	r2, r0, r4
 8004ef0:	19d2      	adds	r2, r2, r7
 8004ef2:	8812      	ldrh	r2, [r2, #0]
 8004ef4:	430a      	orrs	r2, r1
 8004ef6:	801a      	strh	r2, [r3, #0]
 8004ef8:	69fb      	ldr	r3, [r7, #28]
 8004efa:	681b      	ldr	r3, [r3, #0]
 8004efc:	1902      	adds	r2, r0, r4
 8004efe:	19d2      	adds	r2, r2, r7
 8004f00:	8812      	ldrh	r2, [r2, #0]
 8004f02:	60da      	str	r2, [r3, #12]
 8004f04:	e05d      	b.n	8004fc2 <UART_SetConfig+0x50a>
 8004f06:	231a      	movs	r3, #26
 8004f08:	2218      	movs	r2, #24
 8004f0a:	189b      	adds	r3, r3, r2
 8004f0c:	19db      	adds	r3, r3, r7
 8004f0e:	2201      	movs	r2, #1
 8004f10:	701a      	strb	r2, [r3, #0]
 8004f12:	e056      	b.n	8004fc2 <UART_SetConfig+0x50a>
 8004f14:	231b      	movs	r3, #27
 8004f16:	2218      	movs	r2, #24
 8004f18:	189b      	adds	r3, r3, r2
 8004f1a:	19db      	adds	r3, r3, r7
 8004f1c:	781b      	ldrb	r3, [r3, #0]
 8004f1e:	2b08      	cmp	r3, #8
 8004f20:	d822      	bhi.n	8004f68 <UART_SetConfig+0x4b0>
 8004f22:	009a      	lsls	r2, r3, #2
 8004f24:	4b32      	ldr	r3, [pc, #200]	; (8004ff0 <UART_SetConfig+0x538>)
 8004f26:	18d3      	adds	r3, r2, r3
 8004f28:	681b      	ldr	r3, [r3, #0]
 8004f2a:	469f      	mov	pc, r3
 8004f2c:	f7fe ffaa 	bl	8003e84 <HAL_RCC_GetPCLK1Freq>
 8004f30:	0003      	movs	r3, r0
 8004f32:	62fb      	str	r3, [r7, #44]	; 0x2c
 8004f34:	e021      	b.n	8004f7a <UART_SetConfig+0x4c2>
 8004f36:	f7fe ffbb 	bl	8003eb0 <HAL_RCC_GetPCLK2Freq>
 8004f3a:	0003      	movs	r3, r0
 8004f3c:	62fb      	str	r3, [r7, #44]	; 0x2c
 8004f3e:	e01c      	b.n	8004f7a <UART_SetConfig+0x4c2>
 8004f40:	4b28      	ldr	r3, [pc, #160]	; (8004fe4 <UART_SetConfig+0x52c>)
 8004f42:	681b      	ldr	r3, [r3, #0]
 8004f44:	2210      	movs	r2, #16
 8004f46:	4013      	ands	r3, r2
 8004f48:	d002      	beq.n	8004f50 <UART_SetConfig+0x498>
 8004f4a:	4b27      	ldr	r3, [pc, #156]	; (8004fe8 <UART_SetConfig+0x530>)
 8004f4c:	62fb      	str	r3, [r7, #44]	; 0x2c
 8004f4e:	e014      	b.n	8004f7a <UART_SetConfig+0x4c2>
 8004f50:	4b26      	ldr	r3, [pc, #152]	; (8004fec <UART_SetConfig+0x534>)
 8004f52:	62fb      	str	r3, [r7, #44]	; 0x2c
 8004f54:	e011      	b.n	8004f7a <UART_SetConfig+0x4c2>
 8004f56:	f7fe fee5 	bl	8003d24 <HAL_RCC_GetSysClockFreq>
 8004f5a:	0003      	movs	r3, r0
 8004f5c:	62fb      	str	r3, [r7, #44]	; 0x2c
 8004f5e:	e00c      	b.n	8004f7a <UART_SetConfig+0x4c2>
 8004f60:	2380      	movs	r3, #128	; 0x80
 8004f62:	021b      	lsls	r3, r3, #8
 8004f64:	62fb      	str	r3, [r7, #44]	; 0x2c
 8004f66:	e008      	b.n	8004f7a <UART_SetConfig+0x4c2>
 8004f68:	2300      	movs	r3, #0
 8004f6a:	62fb      	str	r3, [r7, #44]	; 0x2c
 8004f6c:	231a      	movs	r3, #26
 8004f6e:	2218      	movs	r2, #24
 8004f70:	189b      	adds	r3, r3, r2
 8004f72:	19db      	adds	r3, r3, r7
 8004f74:	2201      	movs	r2, #1
 8004f76:	701a      	strb	r2, [r3, #0]
 8004f78:	46c0      	nop			; (mov r8, r8)
 8004f7a:	6afb      	ldr	r3, [r7, #44]	; 0x2c
 8004f7c:	2b00      	cmp	r3, #0
 8004f7e:	d020      	beq.n	8004fc2 <UART_SetConfig+0x50a>
 8004f80:	69fb      	ldr	r3, [r7, #28]
 8004f82:	685b      	ldr	r3, [r3, #4]
 8004f84:	085a      	lsrs	r2, r3, #1
 8004f86:	6afb      	ldr	r3, [r7, #44]	; 0x2c
 8004f88:	18d2      	adds	r2, r2, r3
 8004f8a:	69fb      	ldr	r3, [r7, #28]
 8004f8c:	685b      	ldr	r3, [r3, #4]
 8004f8e:	0019      	movs	r1, r3
 8004f90:	0010      	movs	r0, r2
 8004f92:	f7fb f8d5 	bl	8000140 <__udivsi3>
 8004f96:	0003      	movs	r3, r0
 8004f98:	62bb      	str	r3, [r7, #40]	; 0x28
 8004f9a:	6abb      	ldr	r3, [r7, #40]	; 0x28
 8004f9c:	2b0f      	cmp	r3, #15
 8004f9e:	d90a      	bls.n	8004fb6 <UART_SetConfig+0x4fe>
 8004fa0:	6aba      	ldr	r2, [r7, #40]	; 0x28
 8004fa2:	2380      	movs	r3, #128	; 0x80
 8004fa4:	025b      	lsls	r3, r3, #9
 8004fa6:	429a      	cmp	r2, r3
 8004fa8:	d205      	bcs.n	8004fb6 <UART_SetConfig+0x4fe>
 8004faa:	6abb      	ldr	r3, [r7, #40]	; 0x28
 8004fac:	b29a      	uxth	r2, r3
 8004fae:	69fb      	ldr	r3, [r7, #28]
 8004fb0:	681b      	ldr	r3, [r3, #0]
 8004fb2:	60da      	str	r2, [r3, #12]
 8004fb4:	e005      	b.n	8004fc2 <UART_SetConfig+0x50a>
 8004fb6:	231a      	movs	r3, #26
 8004fb8:	2218      	movs	r2, #24
 8004fba:	189b      	adds	r3, r3, r2
 8004fbc:	19db      	adds	r3, r3, r7
 8004fbe:	2201      	movs	r2, #1
 8004fc0:	701a      	strb	r2, [r3, #0]
 8004fc2:	69fb      	ldr	r3, [r7, #28]
 8004fc4:	2200      	movs	r2, #0
 8004fc6:	669a      	str	r2, [r3, #104]	; 0x68
 8004fc8:	69fb      	ldr	r3, [r7, #28]
 8004fca:	2200      	movs	r2, #0
 8004fcc:	66da      	str	r2, [r3, #108]	; 0x6c
 8004fce:	231a      	movs	r3, #26
 8004fd0:	2218      	movs	r2, #24
 8004fd2:	189b      	adds	r3, r3, r2
 8004fd4:	19db      	adds	r3, r3, r7
 8004fd6:	781b      	ldrb	r3, [r3, #0]
 8004fd8:	0018      	movs	r0, r3
 8004fda:	46bd      	mov	sp, r7
 8004fdc:	b00e      	add	sp, #56	; 0x38
 8004fde:	bdb0      	pop	{r4, r5, r7, pc}
 8004fe0:	080070e4 	.word	0x080070e4
 8004fe4:	40021000 	.word	0x40021000
 8004fe8:	003d0900 	.word	0x003d0900
 8004fec:	00f42400 	.word	0x00f42400
 8004ff0:	08007108 	.word	0x08007108

08004ff4 <UART_AdvFeatureConfig>:
 8004ff4:	b580      	push	{r7, lr}
 8004ff6:	b082      	sub	sp, #8
 8004ff8:	af00      	add	r7, sp, #0
 8004ffa:	6078      	str	r0, [r7, #4]
 8004ffc:	687b      	ldr	r3, [r7, #4]
 8004ffe:	6a5b      	ldr	r3, [r3, #36]	; 0x24
 8005000:	2201      	movs	r2, #1
 8005002:	4013      	ands	r3, r2
 8005004:	d00b      	beq.n	800501e <UART_AdvFeatureConfig+0x2a>
 8005006:	687b      	ldr	r3, [r7, #4]
 8005008:	681b      	ldr	r3, [r3, #0]
 800500a:	685b      	ldr	r3, [r3, #4]
 800500c:	4a4a      	ldr	r2, [pc, #296]	; (8005138 <UART_AdvFeatureConfig+0x144>)
 800500e:	4013      	ands	r3, r2
 8005010:	0019      	movs	r1, r3
 8005012:	687b      	ldr	r3, [r7, #4]
 8005014:	6a9a      	ldr	r2, [r3, #40]	; 0x28
 8005016:	687b      	ldr	r3, [r7, #4]
 8005018:	681b      	ldr	r3, [r3, #0]
 800501a:	430a      	orrs	r2, r1
 800501c:	605a      	str	r2, [r3, #4]
 800501e:	687b      	ldr	r3, [r7, #4]
 8005020:	6a5b      	ldr	r3, [r3, #36]	; 0x24
 8005022:	2202      	movs	r2, #2
 8005024:	4013      	ands	r3, r2
 8005026:	d00b      	beq.n	8005040 <UART_AdvFeatureConfig+0x4c>
 8005028:	687b      	ldr	r3, [r7, #4]
 800502a:	681b      	ldr	r3, [r3, #0]
 800502c:	685b      	ldr	r3, [r3, #4]
 800502e:	4a43      	ldr	r2, [pc, #268]	; (800513c <UART_AdvFeatureConfig+0x148>)
 8005030:	4013      	ands	r3, r2
 8005032:	0019      	movs	r1, r3
 8005034:	687b      	ldr	r3, [r7, #4]
 8005036:	6ada      	ldr	r2, [r3, #44]	; 0x2c
 8005038:	687b      	ldr	r3, [r7, #4]
 800503a:	681b      	ldr	r3, [r3, #0]
 800503c:	430a      	orrs	r2, r1
 800503e:	605a      	str	r2, [r3, #4]
 8005040:	687b      	ldr	r3, [r7, #4]
 8005042:	6a5b      	ldr	r3, [r3, #36]	; 0x24
 8005044:	2204      	movs	r2, #4
 8005046:	4013      	ands	r3, r2
 8005048:	d00b      	beq.n	8005062 <UART_AdvFeatureConfig+0x6e>
 800504a:	687b      	ldr	r3, [r7, #4]
 800504c:	681b      	ldr	r3, [r3, #0]
 800504e:	685b      	ldr	r3, [r3, #4]
 8005050:	4a3b      	ldr	r2, [pc, #236]	; (8005140 <UART_AdvFeatureConfig+0x14c>)
 8005052:	4013      	ands	r3, r2
 8005054:	0019      	movs	r1, r3
 8005056:	687b      	ldr	r3, [r7, #4]
 8005058:	6b1a      	ldr	r2, [r3, #48]	; 0x30
 800505a:	687b      	ldr	r3, [r7, #4]
 800505c:	681b      	ldr	r3, [r3, #0]
 800505e:	430a      	orrs	r2, r1
 8005060:	605a      	str	r2, [r3, #4]
 8005062:	687b      	ldr	r3, [r7, #4]
 8005064:	6a5b      	ldr	r3, [r3, #36]	; 0x24
 8005066:	2208      	movs	r2, #8
 8005068:	4013      	ands	r3, r2
 800506a:	d00b      	beq.n	8005084 <UART_AdvFeatureConfig+0x90>
 800506c:	687b      	ldr	r3, [r7, #4]
 800506e:	681b      	ldr	r3, [r3, #0]
 8005070:	685b      	ldr	r3, [r3, #4]
 8005072:	4a34      	ldr	r2, [pc, #208]	; (8005144 <UART_AdvFeatureConfig+0x150>)
 8005074:	4013      	ands	r3, r2
 8005076:	0019      	movs	r1, r3
 8005078:	687b      	ldr	r3, [r7, #4]
 800507a:	6b5a      	ldr	r2, [r3, #52]	; 0x34
 800507c:	687b      	ldr	r3, [r7, #4]
 800507e:	681b      	ldr	r3, [r3, #0]
 8005080:	430a      	orrs	r2, r1
 8005082:	605a      	str	r2, [r3, #4]
 8005084:	687b      	ldr	r3, [r7, #4]
 8005086:	6a5b      	ldr	r3, [r3, #36]	; 0x24
 8005088:	2210      	movs	r2, #16
 800508a:	4013      	ands	r3, r2
 800508c:	d00b      	beq.n	80050a6 <UART_AdvFeatureConfig+0xb2>
 800508e:	687b      	ldr	r3, [r7, #4]
 8005090:	681b      	ldr	r3, [r3, #0]
 8005092:	689b      	ldr	r3, [r3, #8]
 8005094:	4a2c      	ldr	r2, [pc, #176]	; (8005148 <UART_AdvFeatureConfig+0x154>)
 8005096:	4013      	ands	r3, r2
 8005098:	0019      	movs	r1, r3
 800509a:	687b      	ldr	r3, [r7, #4]
 800509c:	6b9a      	ldr	r2, [r3, #56]	; 0x38
 800509e:	687b      	ldr	r3, [r7, #4]
 80050a0:	681b      	ldr	r3, [r3, #0]
 80050a2:	430a      	orrs	r2, r1
 80050a4:	609a      	str	r2, [r3, #8]
 80050a6:	687b      	ldr	r3, [r7, #4]
 80050a8:	6a5b      	ldr	r3, [r3, #36]	; 0x24
 80050aa:	2220      	movs	r2, #32
 80050ac:	4013      	ands	r3, r2
 80050ae:	d00b      	beq.n	80050c8 <UART_AdvFeatureConfig+0xd4>
 80050b0:	687b      	ldr	r3, [r7, #4]
 80050b2:	681b      	ldr	r3, [r3, #0]
 80050b4:	689b      	ldr	r3, [r3, #8]
 80050b6:	4a25      	ldr	r2, [pc, #148]	; (800514c <UART_AdvFeatureConfig+0x158>)
 80050b8:	4013      	ands	r3, r2
 80050ba:	0019      	movs	r1, r3
 80050bc:	687b      	ldr	r3, [r7, #4]
 80050be:	6bda      	ldr	r2, [r3, #60]	; 0x3c
 80050c0:	687b      	ldr	r3, [r7, #4]
 80050c2:	681b      	ldr	r3, [r3, #0]
 80050c4:	430a      	orrs	r2, r1
 80050c6:	609a      	str	r2, [r3, #8]
 80050c8:	687b      	ldr	r3, [r7, #4]
 80050ca:	6a5b      	ldr	r3, [r3, #36]	; 0x24
 80050cc:	2240      	movs	r2, #64	; 0x40
 80050ce:	4013      	ands	r3, r2
 80050d0:	d01d      	beq.n	800510e <UART_AdvFeatureConfig+0x11a>
 80050d2:	687b      	ldr	r3, [r7, #4]
 80050d4:	681b      	ldr	r3, [r3, #0]
 80050d6:	685b      	ldr	r3, [r3, #4]
 80050d8:	4a1d      	ldr	r2, [pc, #116]	; (8005150 <UART_AdvFeatureConfig+0x15c>)
 80050da:	4013      	ands	r3, r2
 80050dc:	0019      	movs	r1, r3
 80050de:	687b      	ldr	r3, [r7, #4]
 80050e0:	6c1a      	ldr	r2, [r3, #64]	; 0x40
 80050e2:	687b      	ldr	r3, [r7, #4]
 80050e4:	681b      	ldr	r3, [r3, #0]
 80050e6:	430a      	orrs	r2, r1
 80050e8:	605a      	str	r2, [r3, #4]
 80050ea:	687b      	ldr	r3, [r7, #4]
 80050ec:	6c1a      	ldr	r2, [r3, #64]	; 0x40
 80050ee:	2380      	movs	r3, #128	; 0x80
 80050f0:	035b      	lsls	r3, r3, #13
 80050f2:	429a      	cmp	r2, r3
 80050f4:	d10b      	bne.n	800510e <UART_AdvFeatureConfig+0x11a>
 80050f6:	687b      	ldr	r3, [r7, #4]
 80050f8:	681b      	ldr	r3, [r3, #0]
 80050fa:	685b      	ldr	r3, [r3, #4]
 80050fc:	4a15      	ldr	r2, [pc, #84]	; (8005154 <UART_AdvFeatureConfig+0x160>)
 80050fe:	4013      	ands	r3, r2
 8005100:	0019      	movs	r1, r3
 8005102:	687b      	ldr	r3, [r7, #4]
 8005104:	6c5a      	ldr	r2, [r3, #68]	; 0x44
 8005106:	687b      	ldr	r3, [r7, #4]
 8005108:	681b      	ldr	r3, [r3, #0]
 800510a:	430a      	orrs	r2, r1
 800510c:	605a      	str	r2, [r3, #4]
 800510e:	687b      	ldr	r3, [r7, #4]
 8005110:	6a5b      	ldr	r3, [r3, #36]	; 0x24
 8005112:	2280      	movs	r2, #128	; 0x80
 8005114:	4013      	ands	r3, r2
 8005116:	d00b      	beq.n	8005130 <UART_AdvFeatureConfig+0x13c>
 8005118:	687b      	ldr	r3, [r7, #4]
 800511a:	681b      	ldr	r3, [r3, #0]
 800511c:	685b      	ldr	r3, [r3, #4]
 800511e:	4a0e      	ldr	r2, [pc, #56]	; (8005158 <UART_AdvFeatureConfig+0x164>)
 8005120:	4013      	ands	r3, r2
 8005122:	0019      	movs	r1, r3
 8005124:	687b      	ldr	r3, [r7, #4]
 8005126:	6c9a      	ldr	r2, [r3, #72]	; 0x48
 8005128:	687b      	ldr	r3, [r7, #4]
 800512a:	681b      	ldr	r3, [r3, #0]
 800512c:	430a      	orrs	r2, r1
 800512e:	605a      	str	r2, [r3, #4]
 8005130:	46c0      	nop			; (mov r8, r8)
 8005132:	46bd      	mov	sp, r7
 8005134:	b002      	add	sp, #8
 8005136:	bd80      	pop	{r7, pc}
 8005138:	fffdffff 	.word	0xfffdffff
 800513c:	fffeffff 	.word	0xfffeffff
 8005140:	fffbffff 	.word	0xfffbffff
 8005144:	ffff7fff 	.word	0xffff7fff
 8005148:	ffffefff 	.word	0xffffefff
 800514c:	ffffdfff 	.word	0xffffdfff
 8005150:	ffefffff 	.word	0xffefffff
 8005154:	ff9fffff 	.word	0xff9fffff
 8005158:	fff7ffff 	.word	0xfff7ffff

0800515c <UART_CheckIdleState>:
 800515c:	b580      	push	{r7, lr}
 800515e:	b092      	sub	sp, #72	; 0x48
 8005160:	af02      	add	r7, sp, #8
 8005162:	6078      	str	r0, [r7, #4]
 8005164:	687b      	ldr	r3, [r7, #4]
 8005166:	2284      	movs	r2, #132	; 0x84
 8005168:	2100      	movs	r1, #0
 800516a:	5099      	str	r1, [r3, r2]
 800516c:	f7fd fad2 	bl	8002714 <HAL_GetTick>
 8005170:	0003      	movs	r3, r0
 8005172:	63fb      	str	r3, [r7, #60]	; 0x3c
 8005174:	687b      	ldr	r3, [r7, #4]
 8005176:	681b      	ldr	r3, [r3, #0]
 8005178:	681b      	ldr	r3, [r3, #0]
 800517a:	2208      	movs	r2, #8
 800517c:	4013      	ands	r3, r2
 800517e:	2b08      	cmp	r3, #8
 8005180:	d12c      	bne.n	80051dc <UART_CheckIdleState+0x80>
 8005182:	6bfb      	ldr	r3, [r7, #60]	; 0x3c
 8005184:	2280      	movs	r2, #128	; 0x80
 8005186:	0391      	lsls	r1, r2, #14
 8005188:	6878      	ldr	r0, [r7, #4]
 800518a:	4a46      	ldr	r2, [pc, #280]	; (80052a4 <UART_CheckIdleState+0x148>)
 800518c:	9200      	str	r2, [sp, #0]
 800518e:	2200      	movs	r2, #0
 8005190:	f000 f88c 	bl	80052ac <UART_WaitOnFlagUntilTimeout>
 8005194:	1e03      	subs	r3, r0, #0
 8005196:	d021      	beq.n	80051dc <UART_CheckIdleState+0x80>
 8005198:	f3ef 8310 	mrs	r3, PRIMASK
 800519c:	627b      	str	r3, [r7, #36]	; 0x24
 800519e:	6a7b      	ldr	r3, [r7, #36]	; 0x24
 80051a0:	63bb      	str	r3, [r7, #56]	; 0x38
 80051a2:	2301      	movs	r3, #1
 80051a4:	62bb      	str	r3, [r7, #40]	; 0x28
 80051a6:	6abb      	ldr	r3, [r7, #40]	; 0x28
 80051a8:	f383 8810 	msr	PRIMASK, r3
 80051ac:	46c0      	nop			; (mov r8, r8)
 80051ae:	687b      	ldr	r3, [r7, #4]
 80051b0:	681b      	ldr	r3, [r3, #0]
 80051b2:	681a      	ldr	r2, [r3, #0]
 80051b4:	687b      	ldr	r3, [r7, #4]
 80051b6:	681b      	ldr	r3, [r3, #0]
 80051b8:	2180      	movs	r1, #128	; 0x80
 80051ba:	438a      	bics	r2, r1
 80051bc:	601a      	str	r2, [r3, #0]
 80051be:	6bbb      	ldr	r3, [r7, #56]	; 0x38
 80051c0:	62fb      	str	r3, [r7, #44]	; 0x2c
 80051c2:	6afb      	ldr	r3, [r7, #44]	; 0x2c
 80051c4:	f383 8810 	msr	PRIMASK, r3
 80051c8:	46c0      	nop			; (mov r8, r8)
 80051ca:	687b      	ldr	r3, [r7, #4]
 80051cc:	2220      	movs	r2, #32
 80051ce:	67da      	str	r2, [r3, #124]	; 0x7c
 80051d0:	687b      	ldr	r3, [r7, #4]
 80051d2:	2278      	movs	r2, #120	; 0x78
 80051d4:	2100      	movs	r1, #0
 80051d6:	5499      	strb	r1, [r3, r2]
 80051d8:	2303      	movs	r3, #3
 80051da:	e05f      	b.n	800529c <UART_CheckIdleState+0x140>
 80051dc:	687b      	ldr	r3, [r7, #4]
 80051de:	681b      	ldr	r3, [r3, #0]
 80051e0:	681b      	ldr	r3, [r3, #0]
 80051e2:	2204      	movs	r2, #4
 80051e4:	4013      	ands	r3, r2
 80051e6:	2b04      	cmp	r3, #4
 80051e8:	d146      	bne.n	8005278 <UART_CheckIdleState+0x11c>
 80051ea:	6bfb      	ldr	r3, [r7, #60]	; 0x3c
 80051ec:	2280      	movs	r2, #128	; 0x80
 80051ee:	03d1      	lsls	r1, r2, #15
 80051f0:	6878      	ldr	r0, [r7, #4]
 80051f2:	4a2c      	ldr	r2, [pc, #176]	; (80052a4 <UART_CheckIdleState+0x148>)
 80051f4:	9200      	str	r2, [sp, #0]
 80051f6:	2200      	movs	r2, #0
 80051f8:	f000 f858 	bl	80052ac <UART_WaitOnFlagUntilTimeout>
 80051fc:	1e03      	subs	r3, r0, #0
 80051fe:	d03b      	beq.n	8005278 <UART_CheckIdleState+0x11c>
 8005200:	f3ef 8310 	mrs	r3, PRIMASK
 8005204:	60fb      	str	r3, [r7, #12]
 8005206:	68fb      	ldr	r3, [r7, #12]
 8005208:	637b      	str	r3, [r7, #52]	; 0x34
 800520a:	2301      	movs	r3, #1
 800520c:	613b      	str	r3, [r7, #16]
 800520e:	693b      	ldr	r3, [r7, #16]
 8005210:	f383 8810 	msr	PRIMASK, r3
 8005214:	46c0      	nop			; (mov r8, r8)
 8005216:	687b      	ldr	r3, [r7, #4]
 8005218:	681b      	ldr	r3, [r3, #0]
 800521a:	681a      	ldr	r2, [r3, #0]
 800521c:	687b      	ldr	r3, [r7, #4]
 800521e:	681b      	ldr	r3, [r3, #0]
 8005220:	4921      	ldr	r1, [pc, #132]	; (80052a8 <UART_CheckIdleState+0x14c>)
 8005222:	400a      	ands	r2, r1
 8005224:	601a      	str	r2, [r3, #0]
 8005226:	6b7b      	ldr	r3, [r7, #52]	; 0x34
 8005228:	617b      	str	r3, [r7, #20]
 800522a:	697b      	ldr	r3, [r7, #20]
 800522c:	f383 8810 	msr	PRIMASK, r3
 8005230:	46c0      	nop			; (mov r8, r8)
 8005232:	f3ef 8310 	mrs	r3, PRIMASK
 8005236:	61bb      	str	r3, [r7, #24]
 8005238:	69bb      	ldr	r3, [r7, #24]
 800523a:	633b      	str	r3, [r7, #48]	; 0x30
 800523c:	2301      	movs	r3, #1
 800523e:	61fb      	str	r3, [r7, #28]
 8005240:	69fb      	ldr	r3, [r7, #28]
 8005242:	f383 8810 	msr	PRIMASK, r3
 8005246:	46c0      	nop			; (mov r8, r8)
 8005248:	687b      	ldr	r3, [r7, #4]
 800524a:	681b      	ldr	r3, [r3, #0]
 800524c:	689a      	ldr	r2, [r3, #8]
 800524e:	687b      	ldr	r3, [r7, #4]
 8005250:	681b      	ldr	r3, [r3, #0]
 8005252:	2101      	movs	r1, #1
 8005254:	438a      	bics	r2, r1
 8005256:	609a      	str	r2, [r3, #8]
 8005258:	6b3b      	ldr	r3, [r7, #48]	; 0x30
 800525a:	623b      	str	r3, [r7, #32]
 800525c:	6a3b      	ldr	r3, [r7, #32]
 800525e:	f383 8810 	msr	PRIMASK, r3
 8005262:	46c0      	nop			; (mov r8, r8)
 8005264:	687b      	ldr	r3, [r7, #4]
 8005266:	2280      	movs	r2, #128	; 0x80
 8005268:	2120      	movs	r1, #32
 800526a:	5099      	str	r1, [r3, r2]
 800526c:	687b      	ldr	r3, [r7, #4]
 800526e:	2278      	movs	r2, #120	; 0x78
 8005270:	2100      	movs	r1, #0
 8005272:	5499      	strb	r1, [r3, r2]
 8005274:	2303      	movs	r3, #3
 8005276:	e011      	b.n	800529c <UART_CheckIdleState+0x140>
 8005278:	687b      	ldr	r3, [r7, #4]
 800527a:	2220      	movs	r2, #32
 800527c:	67da      	str	r2, [r3, #124]	; 0x7c
 800527e:	687b      	ldr	r3, [r7, #4]
 8005280:	2280      	movs	r2, #128	; 0x80
 8005282:	2120      	movs	r1, #32
 8005284:	5099      	str	r1, [r3, r2]
 8005286:	687b      	ldr	r3, [r7, #4]
 8005288:	2200      	movs	r2, #0
 800528a:	661a      	str	r2, [r3, #96]	; 0x60
 800528c:	687b      	ldr	r3, [r7, #4]
 800528e:	2200      	movs	r2, #0
 8005290:	665a      	str	r2, [r3, #100]	; 0x64
 8005292:	687b      	ldr	r3, [r7, #4]
 8005294:	2278      	movs	r2, #120	; 0x78
 8005296:	2100      	movs	r1, #0
 8005298:	5499      	strb	r1, [r3, r2]
 800529a:	2300      	movs	r3, #0
 800529c:	0018      	movs	r0, r3
 800529e:	46bd      	mov	sp, r7
 80052a0:	b010      	add	sp, #64	; 0x40
 80052a2:	bd80      	pop	{r7, pc}
 80052a4:	01ffffff 	.word	0x01ffffff
 80052a8:	fffffedf 	.word	0xfffffedf

080052ac <UART_WaitOnFlagUntilTimeout>:
 80052ac:	b580      	push	{r7, lr}
 80052ae:	b084      	sub	sp, #16
 80052b0:	af00      	add	r7, sp, #0
 80052b2:	60f8      	str	r0, [r7, #12]
 80052b4:	60b9      	str	r1, [r7, #8]
 80052b6:	603b      	str	r3, [r7, #0]
 80052b8:	1dfb      	adds	r3, r7, #7
 80052ba:	701a      	strb	r2, [r3, #0]
 80052bc:	e04b      	b.n	8005356 <UART_WaitOnFlagUntilTimeout+0xaa>
 80052be:	69bb      	ldr	r3, [r7, #24]
 80052c0:	3301      	adds	r3, #1
 80052c2:	d048      	beq.n	8005356 <UART_WaitOnFlagUntilTimeout+0xaa>
 80052c4:	f7fd fa26 	bl	8002714 <HAL_GetTick>
 80052c8:	0002      	movs	r2, r0
 80052ca:	683b      	ldr	r3, [r7, #0]
 80052cc:	1ad3      	subs	r3, r2, r3
 80052ce:	69ba      	ldr	r2, [r7, #24]
 80052d0:	429a      	cmp	r2, r3
 80052d2:	d302      	bcc.n	80052da <UART_WaitOnFlagUntilTimeout+0x2e>
 80052d4:	69bb      	ldr	r3, [r7, #24]
 80052d6:	2b00      	cmp	r3, #0
 80052d8:	d101      	bne.n	80052de <UART_WaitOnFlagUntilTimeout+0x32>
 80052da:	2303      	movs	r3, #3
 80052dc:	e04b      	b.n	8005376 <UART_WaitOnFlagUntilTimeout+0xca>
 80052de:	68fb      	ldr	r3, [r7, #12]
 80052e0:	681b      	ldr	r3, [r3, #0]
 80052e2:	681b      	ldr	r3, [r3, #0]
 80052e4:	2204      	movs	r2, #4
 80052e6:	4013      	ands	r3, r2
 80052e8:	d035      	beq.n	8005356 <UART_WaitOnFlagUntilTimeout+0xaa>
 80052ea:	68fb      	ldr	r3, [r7, #12]
 80052ec:	681b      	ldr	r3, [r3, #0]
 80052ee:	69db      	ldr	r3, [r3, #28]
 80052f0:	2208      	movs	r2, #8
 80052f2:	4013      	ands	r3, r2
 80052f4:	2b08      	cmp	r3, #8
 80052f6:	d111      	bne.n	800531c <UART_WaitOnFlagUntilTimeout+0x70>
 80052f8:	68fb      	ldr	r3, [r7, #12]
 80052fa:	681b      	ldr	r3, [r3, #0]
 80052fc:	2208      	movs	r2, #8
 80052fe:	621a      	str	r2, [r3, #32]
 8005300:	68fb      	ldr	r3, [r7, #12]
 8005302:	0018      	movs	r0, r3
 8005304:	f000 f906 	bl	8005514 <UART_EndRxTransfer>
 8005308:	68fb      	ldr	r3, [r7, #12]
 800530a:	2284      	movs	r2, #132	; 0x84
 800530c:	2108      	movs	r1, #8
 800530e:	5099      	str	r1, [r3, r2]
 8005310:	68fb      	ldr	r3, [r7, #12]
 8005312:	2278      	movs	r2, #120	; 0x78
 8005314:	2100      	movs	r1, #0
 8005316:	5499      	strb	r1, [r3, r2]
 8005318:	2301      	movs	r3, #1
 800531a:	e02c      	b.n	8005376 <UART_WaitOnFlagUntilTimeout+0xca>
 800531c:	68fb      	ldr	r3, [r7, #12]
 800531e:	681b      	ldr	r3, [r3, #0]
 8005320:	69da      	ldr	r2, [r3, #28]
 8005322:	2380      	movs	r3, #128	; 0x80
 8005324:	011b      	lsls	r3, r3, #4
 8005326:	401a      	ands	r2, r3
 8005328:	2380      	movs	r3, #128	; 0x80
 800532a:	011b      	lsls	r3, r3, #4
 800532c:	429a      	cmp	r2, r3
 800532e:	d112      	bne.n	8005356 <UART_WaitOnFlagUntilTimeout+0xaa>
 8005330:	68fb      	ldr	r3, [r7, #12]
 8005332:	681b      	ldr	r3, [r3, #0]
 8005334:	2280      	movs	r2, #128	; 0x80
 8005336:	0112      	lsls	r2, r2, #4
 8005338:	621a      	str	r2, [r3, #32]
 800533a:	68fb      	ldr	r3, [r7, #12]
 800533c:	0018      	movs	r0, r3
 800533e:	f000 f8e9 	bl	8005514 <UART_EndRxTransfer>
 8005342:	68fb      	ldr	r3, [r7, #12]
 8005344:	2284      	movs	r2, #132	; 0x84
 8005346:	2120      	movs	r1, #32
 8005348:	5099      	str	r1, [r3, r2]
 800534a:	68fb      	ldr	r3, [r7, #12]
 800534c:	2278      	movs	r2, #120	; 0x78
 800534e:	2100      	movs	r1, #0
 8005350:	5499      	strb	r1, [r3, r2]
 8005352:	2303      	movs	r3, #3
 8005354:	e00f      	b.n	8005376 <UART_WaitOnFlagUntilTimeout+0xca>
 8005356:	68fb      	ldr	r3, [r7, #12]
 8005358:	681b      	ldr	r3, [r3, #0]
 800535a:	69db      	ldr	r3, [r3, #28]
 800535c:	68ba      	ldr	r2, [r7, #8]
 800535e:	4013      	ands	r3, r2
 8005360:	68ba      	ldr	r2, [r7, #8]
 8005362:	1ad3      	subs	r3, r2, r3
 8005364:	425a      	negs	r2, r3
 8005366:	4153      	adcs	r3, r2
 8005368:	b2db      	uxtb	r3, r3
 800536a:	001a      	movs	r2, r3
 800536c:	1dfb      	adds	r3, r7, #7
 800536e:	781b      	ldrb	r3, [r3, #0]
 8005370:	429a      	cmp	r2, r3
 8005372:	d0a4      	beq.n	80052be <UART_WaitOnFlagUntilTimeout+0x12>
 8005374:	2300      	movs	r3, #0
 8005376:	0018      	movs	r0, r3
 8005378:	46bd      	mov	sp, r7
 800537a:	b004      	add	sp, #16
 800537c:	bd80      	pop	{r7, pc}
	...

08005380 <UART_Start_Receive_IT>:
 8005380:	b580      	push	{r7, lr}
 8005382:	b090      	sub	sp, #64	; 0x40
 8005384:	af00      	add	r7, sp, #0
 8005386:	60f8      	str	r0, [r7, #12]
 8005388:	60b9      	str	r1, [r7, #8]
 800538a:	1dbb      	adds	r3, r7, #6
 800538c:	801a      	strh	r2, [r3, #0]
 800538e:	68fb      	ldr	r3, [r7, #12]
 8005390:	68ba      	ldr	r2, [r7, #8]
 8005392:	655a      	str	r2, [r3, #84]	; 0x54
 8005394:	68fb      	ldr	r3, [r7, #12]
 8005396:	1dba      	adds	r2, r7, #6
 8005398:	2158      	movs	r1, #88	; 0x58
 800539a:	8812      	ldrh	r2, [r2, #0]
 800539c:	525a      	strh	r2, [r3, r1]
 800539e:	68fb      	ldr	r3, [r7, #12]
 80053a0:	1dba      	adds	r2, r7, #6
 80053a2:	215a      	movs	r1, #90	; 0x5a
 80053a4:	8812      	ldrh	r2, [r2, #0]
 80053a6:	525a      	strh	r2, [r3, r1]
 80053a8:	68fb      	ldr	r3, [r7, #12]
 80053aa:	2200      	movs	r2, #0
 80053ac:	669a      	str	r2, [r3, #104]	; 0x68
 80053ae:	68fb      	ldr	r3, [r7, #12]
 80053b0:	689a      	ldr	r2, [r3, #8]
 80053b2:	2380      	movs	r3, #128	; 0x80
 80053b4:	015b      	lsls	r3, r3, #5
 80053b6:	429a      	cmp	r2, r3
 80053b8:	d10d      	bne.n	80053d6 <UART_Start_Receive_IT+0x56>
 80053ba:	68fb      	ldr	r3, [r7, #12]
 80053bc:	691b      	ldr	r3, [r3, #16]
 80053be:	2b00      	cmp	r3, #0
 80053c0:	d104      	bne.n	80053cc <UART_Start_Receive_IT+0x4c>
 80053c2:	68fb      	ldr	r3, [r7, #12]
 80053c4:	225c      	movs	r2, #92	; 0x5c
 80053c6:	4950      	ldr	r1, [pc, #320]	; (8005508 <UART_Start_Receive_IT+0x188>)
 80053c8:	5299      	strh	r1, [r3, r2]
 80053ca:	e02e      	b.n	800542a <UART_Start_Receive_IT+0xaa>
 80053cc:	68fb      	ldr	r3, [r7, #12]
 80053ce:	225c      	movs	r2, #92	; 0x5c
 80053d0:	21ff      	movs	r1, #255	; 0xff
 80053d2:	5299      	strh	r1, [r3, r2]
 80053d4:	e029      	b.n	800542a <UART_Start_Receive_IT+0xaa>
 80053d6:	68fb      	ldr	r3, [r7, #12]
 80053d8:	689b      	ldr	r3, [r3, #8]
 80053da:	2b00      	cmp	r3, #0
 80053dc:	d10d      	bne.n	80053fa <UART_Start_Receive_IT+0x7a>
 80053de:	68fb      	ldr	r3, [r7, #12]
 80053e0:	691b      	ldr	r3, [r3, #16]
 80053e2:	2b00      	cmp	r3, #0
 80053e4:	d104      	bne.n	80053f0 <UART_Start_Receive_IT+0x70>
 80053e6:	68fb      	ldr	r3, [r7, #12]
 80053e8:	225c      	movs	r2, #92	; 0x5c
 80053ea:	21ff      	movs	r1, #255	; 0xff
 80053ec:	5299      	strh	r1, [r3, r2]
 80053ee:	e01c      	b.n	800542a <UART_Start_Receive_IT+0xaa>
 80053f0:	68fb      	ldr	r3, [r7, #12]
 80053f2:	225c      	movs	r2, #92	; 0x5c
 80053f4:	217f      	movs	r1, #127	; 0x7f
 80053f6:	5299      	strh	r1, [r3, r2]
 80053f8:	e017      	b.n	800542a <UART_Start_Receive_IT+0xaa>
 80053fa:	68fb      	ldr	r3, [r7, #12]
 80053fc:	689a      	ldr	r2, [r3, #8]
 80053fe:	2380      	movs	r3, #128	; 0x80
 8005400:	055b      	lsls	r3, r3, #21
 8005402:	429a      	cmp	r2, r3
 8005404:	d10d      	bne.n	8005422 <UART_Start_Receive_IT+0xa2>
 8005406:	68fb      	ldr	r3, [r7, #12]
 8005408:	691b      	ldr	r3, [r3, #16]
 800540a:	2b00      	cmp	r3, #0
 800540c:	d104      	bne.n	8005418 <UART_Start_Receive_IT+0x98>
 800540e:	68fb      	ldr	r3, [r7, #12]
 8005410:	225c      	movs	r2, #92	; 0x5c
 8005412:	217f      	movs	r1, #127	; 0x7f
 8005414:	5299      	strh	r1, [r3, r2]
 8005416:	e008      	b.n	800542a <UART_Start_Receive_IT+0xaa>
 8005418:	68fb      	ldr	r3, [r7, #12]
 800541a:	225c      	movs	r2, #92	; 0x5c
 800541c:	213f      	movs	r1, #63	; 0x3f
 800541e:	5299      	strh	r1, [r3, r2]
 8005420:	e003      	b.n	800542a <UART_Start_Receive_IT+0xaa>
 8005422:	68fb      	ldr	r3, [r7, #12]
 8005424:	225c      	movs	r2, #92	; 0x5c
 8005426:	2100      	movs	r1, #0
 8005428:	5299      	strh	r1, [r3, r2]
 800542a:	68fb      	ldr	r3, [r7, #12]
 800542c:	2284      	movs	r2, #132	; 0x84
 800542e:	2100      	movs	r1, #0
 8005430:	5099      	str	r1, [r3, r2]
 8005432:	68fb      	ldr	r3, [r7, #12]
 8005434:	2280      	movs	r2, #128	; 0x80
 8005436:	2122      	movs	r1, #34	; 0x22
 8005438:	5099      	str	r1, [r3, r2]
 800543a:	f3ef 8310 	mrs	r3, PRIMASK
 800543e:	62bb      	str	r3, [r7, #40]	; 0x28
 8005440:	6abb      	ldr	r3, [r7, #40]	; 0x28
 8005442:	63fb      	str	r3, [r7, #60]	; 0x3c
 8005444:	2301      	movs	r3, #1
 8005446:	62fb      	str	r3, [r7, #44]	; 0x2c
 8005448:	6afb      	ldr	r3, [r7, #44]	; 0x2c
 800544a:	f383 8810 	msr	PRIMASK, r3
 800544e:	46c0      	nop			; (mov r8, r8)
 8005450:	68fb      	ldr	r3, [r7, #12]
 8005452:	681b      	ldr	r3, [r3, #0]
 8005454:	689a      	ldr	r2, [r3, #8]
 8005456:	68fb      	ldr	r3, [r7, #12]
 8005458:	681b      	ldr	r3, [r3, #0]
 800545a:	2101      	movs	r1, #1
 800545c:	430a      	orrs	r2, r1
 800545e:	609a      	str	r2, [r3, #8]
 8005460:	6bfb      	ldr	r3, [r7, #60]	; 0x3c
 8005462:	633b      	str	r3, [r7, #48]	; 0x30
 8005464:	6b3b      	ldr	r3, [r7, #48]	; 0x30
 8005466:	f383 8810 	msr	PRIMASK, r3
 800546a:	46c0      	nop			; (mov r8, r8)
 800546c:	68fb      	ldr	r3, [r7, #12]
 800546e:	689a      	ldr	r2, [r3, #8]
 8005470:	2380      	movs	r3, #128	; 0x80
 8005472:	015b      	lsls	r3, r3, #5
 8005474:	429a      	cmp	r2, r3
 8005476:	d107      	bne.n	8005488 <UART_Start_Receive_IT+0x108>
 8005478:	68fb      	ldr	r3, [r7, #12]
 800547a:	691b      	ldr	r3, [r3, #16]
 800547c:	2b00      	cmp	r3, #0
 800547e:	d103      	bne.n	8005488 <UART_Start_Receive_IT+0x108>
 8005480:	68fb      	ldr	r3, [r7, #12]
 8005482:	4a22      	ldr	r2, [pc, #136]	; (800550c <UART_Start_Receive_IT+0x18c>)
 8005484:	669a      	str	r2, [r3, #104]	; 0x68
 8005486:	e002      	b.n	800548e <UART_Start_Receive_IT+0x10e>
 8005488:	68fb      	ldr	r3, [r7, #12]
 800548a:	4a21      	ldr	r2, [pc, #132]	; (8005510 <UART_Start_Receive_IT+0x190>)
 800548c:	669a      	str	r2, [r3, #104]	; 0x68
 800548e:	68fb      	ldr	r3, [r7, #12]
 8005490:	691b      	ldr	r3, [r3, #16]
 8005492:	2b00      	cmp	r3, #0
 8005494:	d019      	beq.n	80054ca <UART_Start_Receive_IT+0x14a>
 8005496:	f3ef 8310 	mrs	r3, PRIMASK
 800549a:	61fb      	str	r3, [r7, #28]
 800549c:	69fb      	ldr	r3, [r7, #28]
 800549e:	637b      	str	r3, [r7, #52]	; 0x34
 80054a0:	2301      	movs	r3, #1
 80054a2:	623b      	str	r3, [r7, #32]
 80054a4:	6a3b      	ldr	r3, [r7, #32]
 80054a6:	f383 8810 	msr	PRIMASK, r3
 80054aa:	46c0      	nop			; (mov r8, r8)
 80054ac:	68fb      	ldr	r3, [r7, #12]
 80054ae:	681b      	ldr	r3, [r3, #0]
 80054b0:	681a      	ldr	r2, [r3, #0]
 80054b2:	68fb      	ldr	r3, [r7, #12]
 80054b4:	681b      	ldr	r3, [r3, #0]
 80054b6:	2190      	movs	r1, #144	; 0x90
 80054b8:	0049      	lsls	r1, r1, #1
 80054ba:	430a      	orrs	r2, r1
 80054bc:	601a      	str	r2, [r3, #0]
 80054be:	6b7b      	ldr	r3, [r7, #52]	; 0x34
 80054c0:	627b      	str	r3, [r7, #36]	; 0x24
 80054c2:	6a7b      	ldr	r3, [r7, #36]	; 0x24
 80054c4:	f383 8810 	msr	PRIMASK, r3
 80054c8:	e018      	b.n	80054fc <UART_Start_Receive_IT+0x17c>
 80054ca:	f3ef 8310 	mrs	r3, PRIMASK
 80054ce:	613b      	str	r3, [r7, #16]
 80054d0:	693b      	ldr	r3, [r7, #16]
 80054d2:	63bb      	str	r3, [r7, #56]	; 0x38
 80054d4:	2301      	movs	r3, #1
 80054d6:	617b      	str	r3, [r7, #20]
 80054d8:	697b      	ldr	r3, [r7, #20]
 80054da:	f383 8810 	msr	PRIMASK, r3
 80054de:	46c0      	nop			; (mov r8, r8)
 80054e0:	68fb      	ldr	r3, [r7, #12]
 80054e2:	681b      	ldr	r3, [r3, #0]
 80054e4:	681a      	ldr	r2, [r3, #0]
 80054e6:	68fb      	ldr	r3, [r7, #12]
 80054e8:	681b      	ldr	r3, [r3, #0]
 80054ea:	2120      	movs	r1, #32
 80054ec:	430a      	orrs	r2, r1
 80054ee:	601a      	str	r2, [r3, #0]
 80054f0:	6bbb      	ldr	r3, [r7, #56]	; 0x38
 80054f2:	61bb      	str	r3, [r7, #24]
 80054f4:	69bb      	ldr	r3, [r7, #24]
 80054f6:	f383 8810 	msr	PRIMASK, r3
 80054fa:	46c0      	nop			; (mov r8, r8)
 80054fc:	2300      	movs	r3, #0
 80054fe:	0018      	movs	r0, r3
 8005500:	46bd      	mov	sp, r7
 8005502:	b010      	add	sp, #64	; 0x40
 8005504:	bd80      	pop	{r7, pc}
 8005506:	46c0      	nop			; (mov r8, r8)
 8005508:	000001ff 	.word	0x000001ff
 800550c:	08005825 	.word	0x08005825
 8005510:	08005661 	.word	0x08005661

08005514 <UART_EndRxTransfer>:
 8005514:	b580      	push	{r7, lr}
 8005516:	b08e      	sub	sp, #56	; 0x38
 8005518:	af00      	add	r7, sp, #0
 800551a:	6078      	str	r0, [r7, #4]
 800551c:	f3ef 8310 	mrs	r3, PRIMASK
 8005520:	617b      	str	r3, [r7, #20]
 8005522:	697b      	ldr	r3, [r7, #20]
 8005524:	637b      	str	r3, [r7, #52]	; 0x34
 8005526:	2301      	movs	r3, #1
 8005528:	61bb      	str	r3, [r7, #24]
 800552a:	69bb      	ldr	r3, [r7, #24]
 800552c:	f383 8810 	msr	PRIMASK, r3
 8005530:	46c0      	nop			; (mov r8, r8)
 8005532:	687b      	ldr	r3, [r7, #4]
 8005534:	681b      	ldr	r3, [r3, #0]
 8005536:	681a      	ldr	r2, [r3, #0]
 8005538:	687b      	ldr	r3, [r7, #4]
 800553a:	681b      	ldr	r3, [r3, #0]
 800553c:	4926      	ldr	r1, [pc, #152]	; (80055d8 <UART_EndRxTransfer+0xc4>)
 800553e:	400a      	ands	r2, r1
 8005540:	601a      	str	r2, [r3, #0]
 8005542:	6b7b      	ldr	r3, [r7, #52]	; 0x34
 8005544:	61fb      	str	r3, [r7, #28]
 8005546:	69fb      	ldr	r3, [r7, #28]
 8005548:	f383 8810 	msr	PRIMASK, r3
 800554c:	46c0      	nop			; (mov r8, r8)
 800554e:	f3ef 8310 	mrs	r3, PRIMASK
 8005552:	623b      	str	r3, [r7, #32]
 8005554:	6a3b      	ldr	r3, [r7, #32]
 8005556:	633b      	str	r3, [r7, #48]	; 0x30
 8005558:	2301      	movs	r3, #1
 800555a:	627b      	str	r3, [r7, #36]	; 0x24
 800555c:	6a7b      	ldr	r3, [r7, #36]	; 0x24
 800555e:	f383 8810 	msr	PRIMASK, r3
 8005562:	46c0      	nop			; (mov r8, r8)
 8005564:	687b      	ldr	r3, [r7, #4]
 8005566:	681b      	ldr	r3, [r3, #0]
 8005568:	689a      	ldr	r2, [r3, #8]
 800556a:	687b      	ldr	r3, [r7, #4]
 800556c:	681b      	ldr	r3, [r3, #0]
 800556e:	2101      	movs	r1, #1
 8005570:	438a      	bics	r2, r1
 8005572:	609a      	str	r2, [r3, #8]
 8005574:	6b3b      	ldr	r3, [r7, #48]	; 0x30
 8005576:	62bb      	str	r3, [r7, #40]	; 0x28
 8005578:	6abb      	ldr	r3, [r7, #40]	; 0x28
 800557a:	f383 8810 	msr	PRIMASK, r3
 800557e:	46c0      	nop			; (mov r8, r8)
 8005580:	687b      	ldr	r3, [r7, #4]
 8005582:	6e1b      	ldr	r3, [r3, #96]	; 0x60
 8005584:	2b01      	cmp	r3, #1
 8005586:	d118      	bne.n	80055ba <UART_EndRxTransfer+0xa6>
 8005588:	f3ef 8310 	mrs	r3, PRIMASK
 800558c:	60bb      	str	r3, [r7, #8]
 800558e:	68bb      	ldr	r3, [r7, #8]
 8005590:	62fb      	str	r3, [r7, #44]	; 0x2c
 8005592:	2301      	movs	r3, #1
 8005594:	60fb      	str	r3, [r7, #12]
 8005596:	68fb      	ldr	r3, [r7, #12]
 8005598:	f383 8810 	msr	PRIMASK, r3
 800559c:	46c0      	nop			; (mov r8, r8)
 800559e:	687b      	ldr	r3, [r7, #4]
 80055a0:	681b      	ldr	r3, [r3, #0]
 80055a2:	681a      	ldr	r2, [r3, #0]
 80055a4:	687b      	ldr	r3, [r7, #4]
 80055a6:	681b      	ldr	r3, [r3, #0]
 80055a8:	2110      	movs	r1, #16
 80055aa:	438a      	bics	r2, r1
 80055ac:	601a      	str	r2, [r3, #0]
 80055ae:	6afb      	ldr	r3, [r7, #44]	; 0x2c
 80055b0:	613b      	str	r3, [r7, #16]
 80055b2:	693b      	ldr	r3, [r7, #16]
 80055b4:	f383 8810 	msr	PRIMASK, r3
 80055b8:	46c0      	nop			; (mov r8, r8)
 80055ba:	687b      	ldr	r3, [r7, #4]
 80055bc:	2280      	movs	r2, #128	; 0x80
 80055be:	2120      	movs	r1, #32
 80055c0:	5099      	str	r1, [r3, r2]
 80055c2:	687b      	ldr	r3, [r7, #4]
 80055c4:	2200      	movs	r2, #0
 80055c6:	661a      	str	r2, [r3, #96]	; 0x60
 80055c8:	687b      	ldr	r3, [r7, #4]
 80055ca:	2200      	movs	r2, #0
 80055cc:	669a      	str	r2, [r3, #104]	; 0x68
 80055ce:	46c0      	nop			; (mov r8, r8)
 80055d0:	46bd      	mov	sp, r7
 80055d2:	b00e      	add	sp, #56	; 0x38
 80055d4:	bd80      	pop	{r7, pc}
 80055d6:	46c0      	nop			; (mov r8, r8)
 80055d8:	fffffedf 	.word	0xfffffedf

080055dc <UART_DMAAbortOnError>:
 80055dc:	b580      	push	{r7, lr}
 80055de:	b084      	sub	sp, #16
 80055e0:	af00      	add	r7, sp, #0
 80055e2:	6078      	str	r0, [r7, #4]
 80055e4:	687b      	ldr	r3, [r7, #4]
 80055e6:	6a9b      	ldr	r3, [r3, #40]	; 0x28
 80055e8:	60fb      	str	r3, [r7, #12]
 80055ea:	68fb      	ldr	r3, [r7, #12]
 80055ec:	225a      	movs	r2, #90	; 0x5a
 80055ee:	2100      	movs	r1, #0
 80055f0:	5299      	strh	r1, [r3, r2]
 80055f2:	68fb      	ldr	r3, [r7, #12]
 80055f4:	2252      	movs	r2, #82	; 0x52
 80055f6:	2100      	movs	r1, #0
 80055f8:	5299      	strh	r1, [r3, r2]
 80055fa:	68fb      	ldr	r3, [r7, #12]
 80055fc:	0018      	movs	r0, r3
 80055fe:	f7ff fa47 	bl	8004a90 <HAL_UART_ErrorCallback>
 8005602:	46c0      	nop			; (mov r8, r8)
 8005604:	46bd      	mov	sp, r7
 8005606:	b004      	add	sp, #16
 8005608:	bd80      	pop	{r7, pc}

0800560a <UART_EndTransmit_IT>:
 800560a:	b580      	push	{r7, lr}
 800560c:	b086      	sub	sp, #24
 800560e:	af00      	add	r7, sp, #0
 8005610:	6078      	str	r0, [r7, #4]
 8005612:	f3ef 8310 	mrs	r3, PRIMASK
 8005616:	60bb      	str	r3, [r7, #8]
 8005618:	68bb      	ldr	r3, [r7, #8]
 800561a:	617b      	str	r3, [r7, #20]
 800561c:	2301      	movs	r3, #1
 800561e:	60fb      	str	r3, [r7, #12]
 8005620:	68fb      	ldr	r3, [r7, #12]
 8005622:	f383 8810 	msr	PRIMASK, r3
 8005626:	46c0      	nop			; (mov r8, r8)
 8005628:	687b      	ldr	r3, [r7, #4]
 800562a:	681b      	ldr	r3, [r3, #0]
 800562c:	681a      	ldr	r2, [r3, #0]
 800562e:	687b      	ldr	r3, [r7, #4]
 8005630:	681b      	ldr	r3, [r3, #0]
 8005632:	2140      	movs	r1, #64	; 0x40
 8005634:	438a      	bics	r2, r1
 8005636:	601a      	str	r2, [r3, #0]
 8005638:	697b      	ldr	r3, [r7, #20]
 800563a:	613b      	str	r3, [r7, #16]
 800563c:	693b      	ldr	r3, [r7, #16]
 800563e:	f383 8810 	msr	PRIMASK, r3
 8005642:	46c0      	nop			; (mov r8, r8)
 8005644:	687b      	ldr	r3, [r7, #4]
 8005646:	2220      	movs	r2, #32
 8005648:	67da      	str	r2, [r3, #124]	; 0x7c
 800564a:	687b      	ldr	r3, [r7, #4]
 800564c:	2200      	movs	r2, #0
 800564e:	66da      	str	r2, [r3, #108]	; 0x6c
 8005650:	687b      	ldr	r3, [r7, #4]
 8005652:	0018      	movs	r0, r3
 8005654:	f7ff fa14 	bl	8004a80 <HAL_UART_TxCpltCallback>
 8005658:	46c0      	nop			; (mov r8, r8)
 800565a:	46bd      	mov	sp, r7
 800565c:	b006      	add	sp, #24
 800565e:	bd80      	pop	{r7, pc}

08005660 <UART_RxISR_8BIT>:
 8005660:	b580      	push	{r7, lr}
 8005662:	b094      	sub	sp, #80	; 0x50
 8005664:	af00      	add	r7, sp, #0
 8005666:	6078      	str	r0, [r7, #4]
 8005668:	204e      	movs	r0, #78	; 0x4e
 800566a:	183b      	adds	r3, r7, r0
 800566c:	687a      	ldr	r2, [r7, #4]
 800566e:	215c      	movs	r1, #92	; 0x5c
 8005670:	5a52      	ldrh	r2, [r2, r1]
 8005672:	801a      	strh	r2, [r3, #0]
 8005674:	687b      	ldr	r3, [r7, #4]
 8005676:	2280      	movs	r2, #128	; 0x80
 8005678:	589b      	ldr	r3, [r3, r2]
 800567a:	2b22      	cmp	r3, #34	; 0x22
 800567c:	d000      	beq.n	8005680 <UART_RxISR_8BIT+0x20>
 800567e:	e0bf      	b.n	8005800 <UART_RxISR_8BIT+0x1a0>
 8005680:	687b      	ldr	r3, [r7, #4]
 8005682:	681b      	ldr	r3, [r3, #0]
 8005684:	6a5a      	ldr	r2, [r3, #36]	; 0x24
 8005686:	214c      	movs	r1, #76	; 0x4c
 8005688:	187b      	adds	r3, r7, r1
 800568a:	801a      	strh	r2, [r3, #0]
 800568c:	187b      	adds	r3, r7, r1
 800568e:	881b      	ldrh	r3, [r3, #0]
 8005690:	b2da      	uxtb	r2, r3
 8005692:	183b      	adds	r3, r7, r0
 8005694:	881b      	ldrh	r3, [r3, #0]
 8005696:	b2d9      	uxtb	r1, r3
 8005698:	687b      	ldr	r3, [r7, #4]
 800569a:	6d5b      	ldr	r3, [r3, #84]	; 0x54
 800569c:	400a      	ands	r2, r1
 800569e:	b2d2      	uxtb	r2, r2
 80056a0:	701a      	strb	r2, [r3, #0]
 80056a2:	687b      	ldr	r3, [r7, #4]
 80056a4:	6d5b      	ldr	r3, [r3, #84]	; 0x54
 80056a6:	1c5a      	adds	r2, r3, #1
 80056a8:	687b      	ldr	r3, [r7, #4]
 80056aa:	655a      	str	r2, [r3, #84]	; 0x54
 80056ac:	687b      	ldr	r3, [r7, #4]
 80056ae:	225a      	movs	r2, #90	; 0x5a
 80056b0:	5a9b      	ldrh	r3, [r3, r2]
 80056b2:	b29b      	uxth	r3, r3
 80056b4:	3b01      	subs	r3, #1
 80056b6:	b299      	uxth	r1, r3
 80056b8:	687b      	ldr	r3, [r7, #4]
 80056ba:	225a      	movs	r2, #90	; 0x5a
 80056bc:	5299      	strh	r1, [r3, r2]
 80056be:	687b      	ldr	r3, [r7, #4]
 80056c0:	225a      	movs	r2, #90	; 0x5a
 80056c2:	5a9b      	ldrh	r3, [r3, r2]
 80056c4:	b29b      	uxth	r3, r3
 80056c6:	2b00      	cmp	r3, #0
 80056c8:	d000      	beq.n	80056cc <UART_RxISR_8BIT+0x6c>
 80056ca:	e0a1      	b.n	8005810 <UART_RxISR_8BIT+0x1b0>
 80056cc:	f3ef 8310 	mrs	r3, PRIMASK
 80056d0:	627b      	str	r3, [r7, #36]	; 0x24
 80056d2:	6a7b      	ldr	r3, [r7, #36]	; 0x24
 80056d4:	64bb      	str	r3, [r7, #72]	; 0x48
 80056d6:	2301      	movs	r3, #1
 80056d8:	62bb      	str	r3, [r7, #40]	; 0x28
 80056da:	6abb      	ldr	r3, [r7, #40]	; 0x28
 80056dc:	f383 8810 	msr	PRIMASK, r3
 80056e0:	46c0      	nop			; (mov r8, r8)
 80056e2:	687b      	ldr	r3, [r7, #4]
 80056e4:	681b      	ldr	r3, [r3, #0]
 80056e6:	681a      	ldr	r2, [r3, #0]
 80056e8:	687b      	ldr	r3, [r7, #4]
 80056ea:	681b      	ldr	r3, [r3, #0]
 80056ec:	494a      	ldr	r1, [pc, #296]	; (8005818 <UART_RxISR_8BIT+0x1b8>)
 80056ee:	400a      	ands	r2, r1
 80056f0:	601a      	str	r2, [r3, #0]
 80056f2:	6cbb      	ldr	r3, [r7, #72]	; 0x48
 80056f4:	62fb      	str	r3, [r7, #44]	; 0x2c
 80056f6:	6afb      	ldr	r3, [r7, #44]	; 0x2c
 80056f8:	f383 8810 	msr	PRIMASK, r3
 80056fc:	46c0      	nop			; (mov r8, r8)
 80056fe:	f3ef 8310 	mrs	r3, PRIMASK
 8005702:	633b      	str	r3, [r7, #48]	; 0x30
 8005704:	6b3b      	ldr	r3, [r7, #48]	; 0x30
 8005706:	647b      	str	r3, [r7, #68]	; 0x44
 8005708:	2301      	movs	r3, #1
 800570a:	637b      	str	r3, [r7, #52]	; 0x34
 800570c:	6b7b      	ldr	r3, [r7, #52]	; 0x34
 800570e:	f383 8810 	msr	PRIMASK, r3
 8005712:	46c0      	nop			; (mov r8, r8)
 8005714:	687b      	ldr	r3, [r7, #4]
 8005716:	681b      	ldr	r3, [r3, #0]
 8005718:	689a      	ldr	r2, [r3, #8]
 800571a:	687b      	ldr	r3, [r7, #4]
 800571c:	681b      	ldr	r3, [r3, #0]
 800571e:	2101      	movs	r1, #1
 8005720:	438a      	bics	r2, r1
 8005722:	609a      	str	r2, [r3, #8]
 8005724:	6c7b      	ldr	r3, [r7, #68]	; 0x44
 8005726:	63bb      	str	r3, [r7, #56]	; 0x38
 8005728:	6bbb      	ldr	r3, [r7, #56]	; 0x38
 800572a:	f383 8810 	msr	PRIMASK, r3
 800572e:	46c0      	nop			; (mov r8, r8)
 8005730:	687b      	ldr	r3, [r7, #4]
 8005732:	2280      	movs	r2, #128	; 0x80
 8005734:	2120      	movs	r1, #32
 8005736:	5099      	str	r1, [r3, r2]
 8005738:	687b      	ldr	r3, [r7, #4]
 800573a:	2200      	movs	r2, #0
 800573c:	669a      	str	r2, [r3, #104]	; 0x68
 800573e:	687b      	ldr	r3, [r7, #4]
 8005740:	2200      	movs	r2, #0
 8005742:	665a      	str	r2, [r3, #100]	; 0x64
 8005744:	687b      	ldr	r3, [r7, #4]
 8005746:	681b      	ldr	r3, [r3, #0]
 8005748:	4a34      	ldr	r2, [pc, #208]	; (800581c <UART_RxISR_8BIT+0x1bc>)
 800574a:	4293      	cmp	r3, r2
 800574c:	d01f      	beq.n	800578e <UART_RxISR_8BIT+0x12e>
 800574e:	687b      	ldr	r3, [r7, #4]
 8005750:	681b      	ldr	r3, [r3, #0]
 8005752:	685a      	ldr	r2, [r3, #4]
 8005754:	2380      	movs	r3, #128	; 0x80
 8005756:	041b      	lsls	r3, r3, #16
 8005758:	4013      	ands	r3, r2
 800575a:	d018      	beq.n	800578e <UART_RxISR_8BIT+0x12e>
 800575c:	f3ef 8310 	mrs	r3, PRIMASK
 8005760:	61bb      	str	r3, [r7, #24]
 8005762:	69bb      	ldr	r3, [r7, #24]
 8005764:	643b      	str	r3, [r7, #64]	; 0x40
 8005766:	2301      	movs	r3, #1
 8005768:	61fb      	str	r3, [r7, #28]
 800576a:	69fb      	ldr	r3, [r7, #28]
 800576c:	f383 8810 	msr	PRIMASK, r3
 8005770:	46c0      	nop			; (mov r8, r8)
 8005772:	687b      	ldr	r3, [r7, #4]
 8005774:	681b      	ldr	r3, [r3, #0]
 8005776:	681a      	ldr	r2, [r3, #0]
 8005778:	687b      	ldr	r3, [r7, #4]
 800577a:	681b      	ldr	r3, [r3, #0]
 800577c:	4928      	ldr	r1, [pc, #160]	; (8005820 <UART_RxISR_8BIT+0x1c0>)
 800577e:	400a      	ands	r2, r1
 8005780:	601a      	str	r2, [r3, #0]
 8005782:	6c3b      	ldr	r3, [r7, #64]	; 0x40
 8005784:	623b      	str	r3, [r7, #32]
 8005786:	6a3b      	ldr	r3, [r7, #32]
 8005788:	f383 8810 	msr	PRIMASK, r3
 800578c:	46c0      	nop			; (mov r8, r8)
 800578e:	687b      	ldr	r3, [r7, #4]
 8005790:	6e1b      	ldr	r3, [r3, #96]	; 0x60
 8005792:	2b01      	cmp	r3, #1
 8005794:	d12f      	bne.n	80057f6 <UART_RxISR_8BIT+0x196>
 8005796:	687b      	ldr	r3, [r7, #4]
 8005798:	2200      	movs	r2, #0
 800579a:	661a      	str	r2, [r3, #96]	; 0x60
 800579c:	f3ef 8310 	mrs	r3, PRIMASK
 80057a0:	60fb      	str	r3, [r7, #12]
 80057a2:	68fb      	ldr	r3, [r7, #12]
 80057a4:	63fb      	str	r3, [r7, #60]	; 0x3c
 80057a6:	2301      	movs	r3, #1
 80057a8:	613b      	str	r3, [r7, #16]
 80057aa:	693b      	ldr	r3, [r7, #16]
 80057ac:	f383 8810 	msr	PRIMASK, r3
 80057b0:	46c0      	nop			; (mov r8, r8)
 80057b2:	687b      	ldr	r3, [r7, #4]
 80057b4:	681b      	ldr	r3, [r3, #0]
 80057b6:	681a      	ldr	r2, [r3, #0]
 80057b8:	687b      	ldr	r3, [r7, #4]
 80057ba:	681b      	ldr	r3, [r3, #0]
 80057bc:	2110      	movs	r1, #16
 80057be:	438a      	bics	r2, r1
 80057c0:	601a      	str	r2, [r3, #0]
 80057c2:	6bfb      	ldr	r3, [r7, #60]	; 0x3c
 80057c4:	617b      	str	r3, [r7, #20]
 80057c6:	697b      	ldr	r3, [r7, #20]
 80057c8:	f383 8810 	msr	PRIMASK, r3
 80057cc:	46c0      	nop			; (mov r8, r8)
 80057ce:	687b      	ldr	r3, [r7, #4]
 80057d0:	681b      	ldr	r3, [r3, #0]
 80057d2:	69db      	ldr	r3, [r3, #28]
 80057d4:	2210      	movs	r2, #16
 80057d6:	4013      	ands	r3, r2
 80057d8:	2b10      	cmp	r3, #16
 80057da:	d103      	bne.n	80057e4 <UART_RxISR_8BIT+0x184>
 80057dc:	687b      	ldr	r3, [r7, #4]
 80057de:	681b      	ldr	r3, [r3, #0]
 80057e0:	2210      	movs	r2, #16
 80057e2:	621a      	str	r2, [r3, #32]
 80057e4:	687b      	ldr	r3, [r7, #4]
 80057e6:	2258      	movs	r2, #88	; 0x58
 80057e8:	5a9a      	ldrh	r2, [r3, r2]
 80057ea:	687b      	ldr	r3, [r7, #4]
 80057ec:	0011      	movs	r1, r2
 80057ee:	0018      	movs	r0, r3
 80057f0:	f7ff f956 	bl	8004aa0 <HAL_UARTEx_RxEventCallback>
 80057f4:	e00c      	b.n	8005810 <UART_RxISR_8BIT+0x1b0>
 80057f6:	687b      	ldr	r3, [r7, #4]
 80057f8:	0018      	movs	r0, r3
 80057fa:	f7fb fcbf 	bl	800117c <HAL_UART_RxCpltCallback>
 80057fe:	e007      	b.n	8005810 <UART_RxISR_8BIT+0x1b0>
 8005800:	687b      	ldr	r3, [r7, #4]
 8005802:	681b      	ldr	r3, [r3, #0]
 8005804:	699a      	ldr	r2, [r3, #24]
 8005806:	687b      	ldr	r3, [r7, #4]
 8005808:	681b      	ldr	r3, [r3, #0]
 800580a:	2108      	movs	r1, #8
 800580c:	430a      	orrs	r2, r1
 800580e:	619a      	str	r2, [r3, #24]
 8005810:	46c0      	nop			; (mov r8, r8)
 8005812:	46bd      	mov	sp, r7
 8005814:	b014      	add	sp, #80	; 0x50
 8005816:	bd80      	pop	{r7, pc}
 8005818:	fffffedf 	.word	0xfffffedf
 800581c:	40004800 	.word	0x40004800
 8005820:	fbffffff 	.word	0xfbffffff

08005824 <UART_RxISR_16BIT>:
 8005824:	b580      	push	{r7, lr}
 8005826:	b094      	sub	sp, #80	; 0x50
 8005828:	af00      	add	r7, sp, #0
 800582a:	6078      	str	r0, [r7, #4]
 800582c:	204e      	movs	r0, #78	; 0x4e
 800582e:	183b      	adds	r3, r7, r0
 8005830:	687a      	ldr	r2, [r7, #4]
 8005832:	215c      	movs	r1, #92	; 0x5c
 8005834:	5a52      	ldrh	r2, [r2, r1]
 8005836:	801a      	strh	r2, [r3, #0]
 8005838:	687b      	ldr	r3, [r7, #4]
 800583a:	2280      	movs	r2, #128	; 0x80
 800583c:	589b      	ldr	r3, [r3, r2]
 800583e:	2b22      	cmp	r3, #34	; 0x22
 8005840:	d000      	beq.n	8005844 <UART_RxISR_16BIT+0x20>
 8005842:	e0bf      	b.n	80059c4 <UART_RxISR_16BIT+0x1a0>
 8005844:	687b      	ldr	r3, [r7, #4]
 8005846:	681b      	ldr	r3, [r3, #0]
 8005848:	6a5a      	ldr	r2, [r3, #36]	; 0x24
 800584a:	214c      	movs	r1, #76	; 0x4c
 800584c:	187b      	adds	r3, r7, r1
 800584e:	801a      	strh	r2, [r3, #0]
 8005850:	687b      	ldr	r3, [r7, #4]
 8005852:	6d5b      	ldr	r3, [r3, #84]	; 0x54
 8005854:	64bb      	str	r3, [r7, #72]	; 0x48
 8005856:	187b      	adds	r3, r7, r1
 8005858:	183a      	adds	r2, r7, r0
 800585a:	881b      	ldrh	r3, [r3, #0]
 800585c:	8812      	ldrh	r2, [r2, #0]
 800585e:	4013      	ands	r3, r2
 8005860:	b29a      	uxth	r2, r3
 8005862:	6cbb      	ldr	r3, [r7, #72]	; 0x48
 8005864:	801a      	strh	r2, [r3, #0]
 8005866:	687b      	ldr	r3, [r7, #4]
 8005868:	6d5b      	ldr	r3, [r3, #84]	; 0x54
 800586a:	1c9a      	adds	r2, r3, #2
 800586c:	687b      	ldr	r3, [r7, #4]
 800586e:	655a      	str	r2, [r3, #84]	; 0x54
 8005870:	687b      	ldr	r3, [r7, #4]
 8005872:	225a      	movs	r2, #90	; 0x5a
 8005874:	5a9b      	ldrh	r3, [r3, r2]
 8005876:	b29b      	uxth	r3, r3
 8005878:	3b01      	subs	r3, #1
 800587a:	b299      	uxth	r1, r3
 800587c:	687b      	ldr	r3, [r7, #4]
 800587e:	225a      	movs	r2, #90	; 0x5a
 8005880:	5299      	strh	r1, [r3, r2]
 8005882:	687b      	ldr	r3, [r7, #4]
 8005884:	225a      	movs	r2, #90	; 0x5a
 8005886:	5a9b      	ldrh	r3, [r3, r2]
 8005888:	b29b      	uxth	r3, r3
 800588a:	2b00      	cmp	r3, #0
 800588c:	d000      	beq.n	8005890 <UART_RxISR_16BIT+0x6c>
 800588e:	e0a1      	b.n	80059d4 <UART_RxISR_16BIT+0x1b0>
 8005890:	f3ef 8310 	mrs	r3, PRIMASK
 8005894:	623b      	str	r3, [r7, #32]
 8005896:	6a3b      	ldr	r3, [r7, #32]
 8005898:	647b      	str	r3, [r7, #68]	; 0x44
 800589a:	2301      	movs	r3, #1
 800589c:	627b      	str	r3, [r7, #36]	; 0x24
 800589e:	6a7b      	ldr	r3, [r7, #36]	; 0x24
 80058a0:	f383 8810 	msr	PRIMASK, r3
 80058a4:	46c0      	nop			; (mov r8, r8)
 80058a6:	687b      	ldr	r3, [r7, #4]
 80058a8:	681b      	ldr	r3, [r3, #0]
 80058aa:	681a      	ldr	r2, [r3, #0]
 80058ac:	687b      	ldr	r3, [r7, #4]
 80058ae:	681b      	ldr	r3, [r3, #0]
 80058b0:	494a      	ldr	r1, [pc, #296]	; (80059dc <UART_RxISR_16BIT+0x1b8>)
 80058b2:	400a      	ands	r2, r1
 80058b4:	601a      	str	r2, [r3, #0]
 80058b6:	6c7b      	ldr	r3, [r7, #68]	; 0x44
 80058b8:	62bb      	str	r3, [r7, #40]	; 0x28
 80058ba:	6abb      	ldr	r3, [r7, #40]	; 0x28
 80058bc:	f383 8810 	msr	PRIMASK, r3
 80058c0:	46c0      	nop			; (mov r8, r8)
 80058c2:	f3ef 8310 	mrs	r3, PRIMASK
 80058c6:	62fb      	str	r3, [r7, #44]	; 0x2c
 80058c8:	6afb      	ldr	r3, [r7, #44]	; 0x2c
 80058ca:	643b      	str	r3, [r7, #64]	; 0x40
 80058cc:	2301      	movs	r3, #1
 80058ce:	633b      	str	r3, [r7, #48]	; 0x30
 80058d0:	6b3b      	ldr	r3, [r7, #48]	; 0x30
 80058d2:	f383 8810 	msr	PRIMASK, r3
 80058d6:	46c0      	nop			; (mov r8, r8)
 80058d8:	687b      	ldr	r3, [r7, #4]
 80058da:	681b      	ldr	r3, [r3, #0]
 80058dc:	689a      	ldr	r2, [r3, #8]
 80058de:	687b      	ldr	r3, [r7, #4]
 80058e0:	681b      	ldr	r3, [r3, #0]
 80058e2:	2101      	movs	r1, #1
 80058e4:	438a      	bics	r2, r1
 80058e6:	609a      	str	r2, [r3, #8]
 80058e8:	6c3b      	ldr	r3, [r7, #64]	; 0x40
 80058ea:	637b      	str	r3, [r7, #52]	; 0x34
 80058ec:	6b7b      	ldr	r3, [r7, #52]	; 0x34
 80058ee:	f383 8810 	msr	PRIMASK, r3
 80058f2:	46c0      	nop			; (mov r8, r8)
 80058f4:	687b      	ldr	r3, [r7, #4]
 80058f6:	2280      	movs	r2, #128	; 0x80
 80058f8:	2120      	movs	r1, #32
 80058fa:	5099      	str	r1, [r3, r2]
 80058fc:	687b      	ldr	r3, [r7, #4]
 80058fe:	2200      	movs	r2, #0
 8005900:	669a      	str	r2, [r3, #104]	; 0x68
 8005902:	687b      	ldr	r3, [r7, #4]
 8005904:	2200      	movs	r2, #0
 8005906:	665a      	str	r2, [r3, #100]	; 0x64
 8005908:	687b      	ldr	r3, [r7, #4]
 800590a:	681b      	ldr	r3, [r3, #0]
 800590c:	4a34      	ldr	r2, [pc, #208]	; (80059e0 <UART_RxISR_16BIT+0x1bc>)
 800590e:	4293      	cmp	r3, r2
 8005910:	d01f      	beq.n	8005952 <UART_RxISR_16BIT+0x12e>
 8005912:	687b      	ldr	r3, [r7, #4]
 8005914:	681b      	ldr	r3, [r3, #0]
 8005916:	685a      	ldr	r2, [r3, #4]
 8005918:	2380      	movs	r3, #128	; 0x80
 800591a:	041b      	lsls	r3, r3, #16
 800591c:	4013      	ands	r3, r2
 800591e:	d018      	beq.n	8005952 <UART_RxISR_16BIT+0x12e>
 8005920:	f3ef 8310 	mrs	r3, PRIMASK
 8005924:	617b      	str	r3, [r7, #20]
 8005926:	697b      	ldr	r3, [r7, #20]
 8005928:	63fb      	str	r3, [r7, #60]	; 0x3c
 800592a:	2301      	movs	r3, #1
 800592c:	61bb      	str	r3, [r7, #24]
 800592e:	69bb      	ldr	r3, [r7, #24]
 8005930:	f383 8810 	msr	PRIMASK, r3
 8005934:	46c0      	nop			; (mov r8, r8)
 8005936:	687b      	ldr	r3, [r7, #4]
 8005938:	681b      	ldr	r3, [r3, #0]
 800593a:	681a      	ldr	r2, [r3, #0]
 800593c:	687b      	ldr	r3, [r7, #4]
 800593e:	681b      	ldr	r3, [r3, #0]
 8005940:	4928      	ldr	r1, [pc, #160]	; (80059e4 <UART_RxISR_16BIT+0x1c0>)
 8005942:	400a      	ands	r2, r1
 8005944:	601a      	str	r2, [r3, #0]
 8005946:	6bfb      	ldr	r3, [r7, #60]	; 0x3c
 8005948:	61fb      	str	r3, [r7, #28]
 800594a:	69fb      	ldr	r3, [r7, #28]
 800594c:	f383 8810 	msr	PRIMASK, r3
 8005950:	46c0      	nop			; (mov r8, r8)
 8005952:	687b      	ldr	r3, [r7, #4]
 8005954:	6e1b      	ldr	r3, [r3, #96]	; 0x60
 8005956:	2b01      	cmp	r3, #1
 8005958:	d12f      	bne.n	80059ba <UART_RxISR_16BIT+0x196>
 800595a:	687b      	ldr	r3, [r7, #4]
 800595c:	2200      	movs	r2, #0
 800595e:	661a      	str	r2, [r3, #96]	; 0x60
 8005960:	f3ef 8310 	mrs	r3, PRIMASK
 8005964:	60bb      	str	r3, [r7, #8]
 8005966:	68bb      	ldr	r3, [r7, #8]
 8005968:	63bb      	str	r3, [r7, #56]	; 0x38
 800596a:	2301      	movs	r3, #1
 800596c:	60fb      	str	r3, [r7, #12]
 800596e:	68fb      	ldr	r3, [r7, #12]
 8005970:	f383 8810 	msr	PRIMASK, r3
 8005974:	46c0      	nop			; (mov r8, r8)
 8005976:	687b      	ldr	r3, [r7, #4]
 8005978:	681b      	ldr	r3, [r3, #0]
 800597a:	681a      	ldr	r2, [r3, #0]
 800597c:	687b      	ldr	r3, [r7, #4]
 800597e:	681b      	ldr	r3, [r3, #0]
 8005980:	2110      	movs	r1, #16
 8005982:	438a      	bics	r2, r1
 8005984:	601a      	str	r2, [r3, #0]
 8005986:	6bbb      	ldr	r3, [r7, #56]	; 0x38
 8005988:	613b      	str	r3, [r7, #16]
 800598a:	693b      	ldr	r3, [r7, #16]
 800598c:	f383 8810 	msr	PRIMASK, r3
 8005990:	46c0      	nop			; (mov r8, r8)
 8005992:	687b      	ldr	r3, [r7, #4]
 8005994:	681b      	ldr	r3, [r3, #0]
 8005996:	69db      	ldr	r3, [r3, #28]
 8005998:	2210      	movs	r2, #16
 800599a:	4013      	ands	r3, r2
 800599c:	2b10      	cmp	r3, #16
 800599e:	d103      	bne.n	80059a8 <UART_RxISR_16BIT+0x184>
 80059a0:	687b      	ldr	r3, [r7, #4]
 80059a2:	681b      	ldr	r3, [r3, #0]
 80059a4:	2210      	movs	r2, #16
 80059a6:	621a      	str	r2, [r3, #32]
 80059a8:	687b      	ldr	r3, [r7, #4]
 80059aa:	2258      	movs	r2, #88	; 0x58
 80059ac:	5a9a      	ldrh	r2, [r3, r2]
 80059ae:	687b      	ldr	r3, [r7, #4]
 80059b0:	0011      	movs	r1, r2
 80059b2:	0018      	movs	r0, r3
 80059b4:	f7ff f874 	bl	8004aa0 <HAL_UARTEx_RxEventCallback>
 80059b8:	e00c      	b.n	80059d4 <UART_RxISR_16BIT+0x1b0>
 80059ba:	687b      	ldr	r3, [r7, #4]
 80059bc:	0018      	movs	r0, r3
 80059be:	f7fb fbdd 	bl	800117c <HAL_UART_RxCpltCallback>
 80059c2:	e007      	b.n	80059d4 <UART_RxISR_16BIT+0x1b0>
 80059c4:	687b      	ldr	r3, [r7, #4]
 80059c6:	681b      	ldr	r3, [r3, #0]
 80059c8:	699a      	ldr	r2, [r3, #24]
 80059ca:	687b      	ldr	r3, [r7, #4]
 80059cc:	681b      	ldr	r3, [r3, #0]
 80059ce:	2108      	movs	r1, #8
 80059d0:	430a      	orrs	r2, r1
 80059d2:	619a      	str	r2, [r3, #24]
 80059d4:	46c0      	nop			; (mov r8, r8)
 80059d6:	46bd      	mov	sp, r7
 80059d8:	b014      	add	sp, #80	; 0x50
 80059da:	bd80      	pop	{r7, pc}
 80059dc:	fffffedf 	.word	0xfffffedf
 80059e0:	40004800 	.word	0x40004800
 80059e4:	fbffffff 	.word	0xfbffffff

080059e8 <HAL_UARTEx_WakeupCallback>:
 80059e8:	b580      	push	{r7, lr}
 80059ea:	b082      	sub	sp, #8
 80059ec:	af00      	add	r7, sp, #0
 80059ee:	6078      	str	r0, [r7, #4]
 80059f0:	46c0      	nop			; (mov r8, r8)
 80059f2:	46bd      	mov	sp, r7
 80059f4:	b002      	add	sp, #8
 80059f6:	bd80      	pop	{r7, pc}

080059f8 <malloc>:
 80059f8:	b510      	push	{r4, lr}
 80059fa:	4b03      	ldr	r3, [pc, #12]	; (8005a08 <malloc+0x10>)
 80059fc:	0001      	movs	r1, r0
 80059fe:	6818      	ldr	r0, [r3, #0]
 8005a00:	f000 f830 	bl	8005a64 <_malloc_r>
 8005a04:	bd10      	pop	{r4, pc}
 8005a06:	46c0      	nop			; (mov r8, r8)
 8005a08:	20000208 	.word	0x20000208

08005a0c <free>:
 8005a0c:	b510      	push	{r4, lr}
 8005a0e:	4b03      	ldr	r3, [pc, #12]	; (8005a1c <free+0x10>)
 8005a10:	0001      	movs	r1, r0
 8005a12:	6818      	ldr	r0, [r3, #0]
 8005a14:	f000 fb4e 	bl	80060b4 <_free_r>
 8005a18:	bd10      	pop	{r4, pc}
 8005a1a:	46c0      	nop			; (mov r8, r8)
 8005a1c:	20000208 	.word	0x20000208

08005a20 <sbrk_aligned>:
 8005a20:	b570      	push	{r4, r5, r6, lr}
 8005a22:	4e0f      	ldr	r6, [pc, #60]	; (8005a60 <sbrk_aligned+0x40>)
 8005a24:	000d      	movs	r5, r1
 8005a26:	6831      	ldr	r1, [r6, #0]
 8005a28:	0004      	movs	r4, r0
 8005a2a:	2900      	cmp	r1, #0
 8005a2c:	d102      	bne.n	8005a34 <sbrk_aligned+0x14>
 8005a2e:	f000 fac7 	bl	8005fc0 <_sbrk_r>
 8005a32:	6030      	str	r0, [r6, #0]
 8005a34:	0029      	movs	r1, r5
 8005a36:	0020      	movs	r0, r4
 8005a38:	f000 fac2 	bl	8005fc0 <_sbrk_r>
 8005a3c:	1c43      	adds	r3, r0, #1
 8005a3e:	d00a      	beq.n	8005a56 <sbrk_aligned+0x36>
 8005a40:	2303      	movs	r3, #3
 8005a42:	1cc5      	adds	r5, r0, #3
 8005a44:	439d      	bics	r5, r3
 8005a46:	42a8      	cmp	r0, r5
 8005a48:	d007      	beq.n	8005a5a <sbrk_aligned+0x3a>
 8005a4a:	1a29      	subs	r1, r5, r0
 8005a4c:	0020      	movs	r0, r4
 8005a4e:	f000 fab7 	bl	8005fc0 <_sbrk_r>
 8005a52:	3001      	adds	r0, #1
 8005a54:	d101      	bne.n	8005a5a <sbrk_aligned+0x3a>
 8005a56:	2501      	movs	r5, #1
 8005a58:	426d      	negs	r5, r5
 8005a5a:	0028      	movs	r0, r5
 8005a5c:	bd70      	pop	{r4, r5, r6, pc}
 8005a5e:	46c0      	nop			; (mov r8, r8)
 8005a60:	200003a8 	.word	0x200003a8

08005a64 <_malloc_r>:
 8005a64:	b5f7      	push	{r0, r1, r2, r4, r5, r6, r7, lr}
 8005a66:	2203      	movs	r2, #3
 8005a68:	1ccb      	adds	r3, r1, #3
 8005a6a:	4393      	bics	r3, r2
 8005a6c:	3308      	adds	r3, #8
 8005a6e:	0006      	movs	r6, r0
 8005a70:	001f      	movs	r7, r3
 8005a72:	2b0c      	cmp	r3, #12
 8005a74:	d238      	bcs.n	8005ae8 <_malloc_r+0x84>
 8005a76:	270c      	movs	r7, #12
 8005a78:	42b9      	cmp	r1, r7
 8005a7a:	d837      	bhi.n	8005aec <_malloc_r+0x88>
 8005a7c:	0030      	movs	r0, r6
 8005a7e:	f000 f873 	bl	8005b68 <__malloc_lock>
 8005a82:	4b38      	ldr	r3, [pc, #224]	; (8005b64 <_malloc_r+0x100>)
 8005a84:	9300      	str	r3, [sp, #0]
 8005a86:	681b      	ldr	r3, [r3, #0]
 8005a88:	001c      	movs	r4, r3
 8005a8a:	2c00      	cmp	r4, #0
 8005a8c:	d133      	bne.n	8005af6 <_malloc_r+0x92>
 8005a8e:	0039      	movs	r1, r7
 8005a90:	0030      	movs	r0, r6
 8005a92:	f7ff ffc5 	bl	8005a20 <sbrk_aligned>
 8005a96:	0004      	movs	r4, r0
 8005a98:	1c43      	adds	r3, r0, #1
 8005a9a:	d15e      	bne.n	8005b5a <_malloc_r+0xf6>
 8005a9c:	9b00      	ldr	r3, [sp, #0]
 8005a9e:	681c      	ldr	r4, [r3, #0]
 8005aa0:	0025      	movs	r5, r4
 8005aa2:	2d00      	cmp	r5, #0
 8005aa4:	d14e      	bne.n	8005b44 <_malloc_r+0xe0>
 8005aa6:	2c00      	cmp	r4, #0
 8005aa8:	d051      	beq.n	8005b4e <_malloc_r+0xea>
 8005aaa:	6823      	ldr	r3, [r4, #0]
 8005aac:	0029      	movs	r1, r5
 8005aae:	18e3      	adds	r3, r4, r3
 8005ab0:	0030      	movs	r0, r6
 8005ab2:	9301      	str	r3, [sp, #4]
 8005ab4:	f000 fa84 	bl	8005fc0 <_sbrk_r>
 8005ab8:	9b01      	ldr	r3, [sp, #4]
 8005aba:	4283      	cmp	r3, r0
 8005abc:	d147      	bne.n	8005b4e <_malloc_r+0xea>
 8005abe:	6823      	ldr	r3, [r4, #0]
 8005ac0:	0030      	movs	r0, r6
 8005ac2:	1aff      	subs	r7, r7, r3
 8005ac4:	0039      	movs	r1, r7
 8005ac6:	f7ff ffab 	bl	8005a20 <sbrk_aligned>
 8005aca:	3001      	adds	r0, #1
 8005acc:	d03f      	beq.n	8005b4e <_malloc_r+0xea>
 8005ace:	6823      	ldr	r3, [r4, #0]
 8005ad0:	19db      	adds	r3, r3, r7
 8005ad2:	6023      	str	r3, [r4, #0]
 8005ad4:	9b00      	ldr	r3, [sp, #0]
 8005ad6:	681b      	ldr	r3, [r3, #0]
 8005ad8:	2b00      	cmp	r3, #0
 8005ada:	d040      	beq.n	8005b5e <_malloc_r+0xfa>
 8005adc:	685a      	ldr	r2, [r3, #4]
 8005ade:	42a2      	cmp	r2, r4
 8005ae0:	d133      	bne.n	8005b4a <_malloc_r+0xe6>
 8005ae2:	2200      	movs	r2, #0
 8005ae4:	605a      	str	r2, [r3, #4]
 8005ae6:	e014      	b.n	8005b12 <_malloc_r+0xae>
 8005ae8:	2b00      	cmp	r3, #0
 8005aea:	dac5      	bge.n	8005a78 <_malloc_r+0x14>
 8005aec:	230c      	movs	r3, #12
 8005aee:	2500      	movs	r5, #0
 8005af0:	6033      	str	r3, [r6, #0]
 8005af2:	0028      	movs	r0, r5
 8005af4:	bdfe      	pop	{r1, r2, r3, r4, r5, r6, r7, pc}
 8005af6:	6821      	ldr	r1, [r4, #0]
 8005af8:	1bc9      	subs	r1, r1, r7
 8005afa:	d420      	bmi.n	8005b3e <_malloc_r+0xda>
 8005afc:	290b      	cmp	r1, #11
 8005afe:	d918      	bls.n	8005b32 <_malloc_r+0xce>
 8005b00:	19e2      	adds	r2, r4, r7
 8005b02:	6027      	str	r7, [r4, #0]
 8005b04:	42a3      	cmp	r3, r4
 8005b06:	d112      	bne.n	8005b2e <_malloc_r+0xca>
 8005b08:	9b00      	ldr	r3, [sp, #0]
 8005b0a:	601a      	str	r2, [r3, #0]
 8005b0c:	6863      	ldr	r3, [r4, #4]
 8005b0e:	6011      	str	r1, [r2, #0]
 8005b10:	6053      	str	r3, [r2, #4]
 8005b12:	0030      	movs	r0, r6
 8005b14:	0025      	movs	r5, r4
 8005b16:	f000 f82f 	bl	8005b78 <__malloc_unlock>
 8005b1a:	2207      	movs	r2, #7
 8005b1c:	350b      	adds	r5, #11
 8005b1e:	1d23      	adds	r3, r4, #4
 8005b20:	4395      	bics	r5, r2
 8005b22:	1aea      	subs	r2, r5, r3
 8005b24:	429d      	cmp	r5, r3
 8005b26:	d0e4      	beq.n	8005af2 <_malloc_r+0x8e>
 8005b28:	1b5b      	subs	r3, r3, r5
 8005b2a:	50a3      	str	r3, [r4, r2]
 8005b2c:	e7e1      	b.n	8005af2 <_malloc_r+0x8e>
 8005b2e:	605a      	str	r2, [r3, #4]
 8005b30:	e7ec      	b.n	8005b0c <_malloc_r+0xa8>
 8005b32:	6862      	ldr	r2, [r4, #4]
 8005b34:	42a3      	cmp	r3, r4
 8005b36:	d1d5      	bne.n	8005ae4 <_malloc_r+0x80>
 8005b38:	9b00      	ldr	r3, [sp, #0]
 8005b3a:	601a      	str	r2, [r3, #0]
 8005b3c:	e7e9      	b.n	8005b12 <_malloc_r+0xae>
 8005b3e:	0023      	movs	r3, r4
 8005b40:	6864      	ldr	r4, [r4, #4]
 8005b42:	e7a2      	b.n	8005a8a <_malloc_r+0x26>
 8005b44:	002c      	movs	r4, r5
 8005b46:	686d      	ldr	r5, [r5, #4]
 8005b48:	e7ab      	b.n	8005aa2 <_malloc_r+0x3e>
 8005b4a:	0013      	movs	r3, r2
 8005b4c:	e7c4      	b.n	8005ad8 <_malloc_r+0x74>
 8005b4e:	230c      	movs	r3, #12
 8005b50:	0030      	movs	r0, r6
 8005b52:	6033      	str	r3, [r6, #0]
 8005b54:	f000 f810 	bl	8005b78 <__malloc_unlock>
 8005b58:	e7cb      	b.n	8005af2 <_malloc_r+0x8e>
 8005b5a:	6027      	str	r7, [r4, #0]
 8005b5c:	e7d9      	b.n	8005b12 <_malloc_r+0xae>
 8005b5e:	605b      	str	r3, [r3, #4]
 8005b60:	deff      	udf	#255	; 0xff
 8005b62:	46c0      	nop			; (mov r8, r8)
 8005b64:	200003a4 	.word	0x200003a4

08005b68 <__malloc_lock>:
 8005b68:	b510      	push	{r4, lr}
 8005b6a:	4802      	ldr	r0, [pc, #8]	; (8005b74 <__malloc_lock+0xc>)
 8005b6c:	f000 fa78 	bl	8006060 <__retarget_lock_acquire_recursive>
 8005b70:	bd10      	pop	{r4, pc}
 8005b72:	46c0      	nop			; (mov r8, r8)
 8005b74:	200004ec 	.word	0x200004ec

08005b78 <__malloc_unlock>:
 8005b78:	b510      	push	{r4, lr}
 8005b7a:	4802      	ldr	r0, [pc, #8]	; (8005b84 <__malloc_unlock+0xc>)
 8005b7c:	f000 fa71 	bl	8006062 <__retarget_lock_release_recursive>
 8005b80:	bd10      	pop	{r4, pc}
 8005b82:	46c0      	nop			; (mov r8, r8)
 8005b84:	200004ec 	.word	0x200004ec

08005b88 <std>:
 8005b88:	2300      	movs	r3, #0
 8005b8a:	b510      	push	{r4, lr}
 8005b8c:	0004      	movs	r4, r0
 8005b8e:	6003      	str	r3, [r0, #0]
 8005b90:	6043      	str	r3, [r0, #4]
 8005b92:	6083      	str	r3, [r0, #8]
 8005b94:	8181      	strh	r1, [r0, #12]
 8005b96:	6643      	str	r3, [r0, #100]	; 0x64
 8005b98:	0019      	movs	r1, r3
 8005b9a:	81c2      	strh	r2, [r0, #14]
 8005b9c:	6103      	str	r3, [r0, #16]
 8005b9e:	6143      	str	r3, [r0, #20]
 8005ba0:	6183      	str	r3, [r0, #24]
 8005ba2:	2208      	movs	r2, #8
 8005ba4:	305c      	adds	r0, #92	; 0x5c
 8005ba6:	f000 f91d 	bl	8005de4 <memset>
 8005baa:	4b05      	ldr	r3, [pc, #20]	; (8005bc0 <std+0x38>)
 8005bac:	6224      	str	r4, [r4, #32]
 8005bae:	6263      	str	r3, [r4, #36]	; 0x24
 8005bb0:	4b04      	ldr	r3, [pc, #16]	; (8005bc4 <std+0x3c>)
 8005bb2:	62a3      	str	r3, [r4, #40]	; 0x28
 8005bb4:	4b04      	ldr	r3, [pc, #16]	; (8005bc8 <std+0x40>)
 8005bb6:	62e3      	str	r3, [r4, #44]	; 0x2c
 8005bb8:	4b04      	ldr	r3, [pc, #16]	; (8005bcc <std+0x44>)
 8005bba:	6323      	str	r3, [r4, #48]	; 0x30
 8005bbc:	bd10      	pop	{r4, pc}
 8005bbe:	46c0      	nop			; (mov r8, r8)
 8005bc0:	08005d4d 	.word	0x08005d4d
 8005bc4:	08005d75 	.word	0x08005d75
 8005bc8:	08005dad 	.word	0x08005dad
 8005bcc:	08005dd9 	.word	0x08005dd9

08005bd0 <stdio_exit_handler>:
 8005bd0:	b510      	push	{r4, lr}
 8005bd2:	4a03      	ldr	r2, [pc, #12]	; (8005be0 <stdio_exit_handler+0x10>)
 8005bd4:	4903      	ldr	r1, [pc, #12]	; (8005be4 <stdio_exit_handler+0x14>)
 8005bd6:	4804      	ldr	r0, [pc, #16]	; (8005be8 <stdio_exit_handler+0x18>)
 8005bd8:	f000 f86c 	bl	8005cb4 <_fwalk_sglue>
 8005bdc:	bd10      	pop	{r4, pc}
 8005bde:	46c0      	nop			; (mov r8, r8)
 8005be0:	200001b0 	.word	0x200001b0
 8005be4:	08006aa9 	.word	0x08006aa9
 8005be8:	200001bc 	.word	0x200001bc

08005bec <cleanup_stdio>:
 8005bec:	6841      	ldr	r1, [r0, #4]
 8005bee:	4b0b      	ldr	r3, [pc, #44]	; (8005c1c <cleanup_stdio+0x30>)
 8005bf0:	b510      	push	{r4, lr}
 8005bf2:	0004      	movs	r4, r0
 8005bf4:	4299      	cmp	r1, r3
 8005bf6:	d001      	beq.n	8005bfc <cleanup_stdio+0x10>
 8005bf8:	f000 ff56 	bl	8006aa8 <_fflush_r>
 8005bfc:	68a1      	ldr	r1, [r4, #8]
 8005bfe:	4b08      	ldr	r3, [pc, #32]	; (8005c20 <cleanup_stdio+0x34>)
 8005c00:	4299      	cmp	r1, r3
 8005c02:	d002      	beq.n	8005c0a <cleanup_stdio+0x1e>
 8005c04:	0020      	movs	r0, r4
 8005c06:	f000 ff4f 	bl	8006aa8 <_fflush_r>
 8005c0a:	68e1      	ldr	r1, [r4, #12]
 8005c0c:	4b05      	ldr	r3, [pc, #20]	; (8005c24 <cleanup_stdio+0x38>)
 8005c0e:	4299      	cmp	r1, r3
 8005c10:	d002      	beq.n	8005c18 <cleanup_stdio+0x2c>
 8005c12:	0020      	movs	r0, r4
 8005c14:	f000 ff48 	bl	8006aa8 <_fflush_r>
 8005c18:	bd10      	pop	{r4, pc}
 8005c1a:	46c0      	nop			; (mov r8, r8)
 8005c1c:	200003ac 	.word	0x200003ac
 8005c20:	20000414 	.word	0x20000414
 8005c24:	2000047c 	.word	0x2000047c

08005c28 <global_stdio_init.part.0>:
 8005c28:	b510      	push	{r4, lr}
 8005c2a:	4b09      	ldr	r3, [pc, #36]	; (8005c50 <global_stdio_init.part.0+0x28>)
 8005c2c:	4a09      	ldr	r2, [pc, #36]	; (8005c54 <global_stdio_init.part.0+0x2c>)
 8005c2e:	2104      	movs	r1, #4
 8005c30:	601a      	str	r2, [r3, #0]
 8005c32:	4809      	ldr	r0, [pc, #36]	; (8005c58 <global_stdio_init.part.0+0x30>)
 8005c34:	2200      	movs	r2, #0
 8005c36:	f7ff ffa7 	bl	8005b88 <std>
 8005c3a:	2201      	movs	r2, #1
 8005c3c:	2109      	movs	r1, #9
 8005c3e:	4807      	ldr	r0, [pc, #28]	; (8005c5c <global_stdio_init.part.0+0x34>)
 8005c40:	f7ff ffa2 	bl	8005b88 <std>
 8005c44:	2202      	movs	r2, #2
 8005c46:	2112      	movs	r1, #18
 8005c48:	4805      	ldr	r0, [pc, #20]	; (8005c60 <global_stdio_init.part.0+0x38>)
 8005c4a:	f7ff ff9d 	bl	8005b88 <std>
 8005c4e:	bd10      	pop	{r4, pc}
 8005c50:	200004e4 	.word	0x200004e4
 8005c54:	08005bd1 	.word	0x08005bd1
 8005c58:	200003ac 	.word	0x200003ac
 8005c5c:	20000414 	.word	0x20000414
 8005c60:	2000047c 	.word	0x2000047c

08005c64 <__sfp_lock_acquire>:
 8005c64:	b510      	push	{r4, lr}
 8005c66:	4802      	ldr	r0, [pc, #8]	; (8005c70 <__sfp_lock_acquire+0xc>)
 8005c68:	f000 f9fa 	bl	8006060 <__retarget_lock_acquire_recursive>
 8005c6c:	bd10      	pop	{r4, pc}
 8005c6e:	46c0      	nop			; (mov r8, r8)
 8005c70:	200004ed 	.word	0x200004ed

08005c74 <__sfp_lock_release>:
 8005c74:	b510      	push	{r4, lr}
 8005c76:	4802      	ldr	r0, [pc, #8]	; (8005c80 <__sfp_lock_release+0xc>)
 8005c78:	f000 f9f3 	bl	8006062 <__retarget_lock_release_recursive>
 8005c7c:	bd10      	pop	{r4, pc}
 8005c7e:	46c0      	nop			; (mov r8, r8)
 8005c80:	200004ed 	.word	0x200004ed

08005c84 <__sinit>:
 8005c84:	b510      	push	{r4, lr}
 8005c86:	0004      	movs	r4, r0
 8005c88:	f7ff ffec 	bl	8005c64 <__sfp_lock_acquire>
 8005c8c:	6a23      	ldr	r3, [r4, #32]
 8005c8e:	2b00      	cmp	r3, #0
 8005c90:	d002      	beq.n	8005c98 <__sinit+0x14>
 8005c92:	f7ff ffef 	bl	8005c74 <__sfp_lock_release>
 8005c96:	bd10      	pop	{r4, pc}
 8005c98:	4b04      	ldr	r3, [pc, #16]	; (8005cac <__sinit+0x28>)
 8005c9a:	6223      	str	r3, [r4, #32]
 8005c9c:	4b04      	ldr	r3, [pc, #16]	; (8005cb0 <__sinit+0x2c>)
 8005c9e:	681b      	ldr	r3, [r3, #0]
 8005ca0:	2b00      	cmp	r3, #0
 8005ca2:	d1f6      	bne.n	8005c92 <__sinit+0xe>
 8005ca4:	f7ff ffc0 	bl	8005c28 <global_stdio_init.part.0>
 8005ca8:	e7f3      	b.n	8005c92 <__sinit+0xe>
 8005caa:	46c0      	nop			; (mov r8, r8)
 8005cac:	08005bed 	.word	0x08005bed
 8005cb0:	200004e4 	.word	0x200004e4

08005cb4 <_fwalk_sglue>:
 8005cb4:	b5f7      	push	{r0, r1, r2, r4, r5, r6, r7, lr}
 8005cb6:	0014      	movs	r4, r2
 8005cb8:	2600      	movs	r6, #0
 8005cba:	9000      	str	r0, [sp, #0]
 8005cbc:	9101      	str	r1, [sp, #4]
 8005cbe:	68a5      	ldr	r5, [r4, #8]
 8005cc0:	6867      	ldr	r7, [r4, #4]
 8005cc2:	3f01      	subs	r7, #1
 8005cc4:	d504      	bpl.n	8005cd0 <_fwalk_sglue+0x1c>
 8005cc6:	6824      	ldr	r4, [r4, #0]
 8005cc8:	2c00      	cmp	r4, #0
 8005cca:	d1f8      	bne.n	8005cbe <_fwalk_sglue+0xa>
 8005ccc:	0030      	movs	r0, r6
 8005cce:	bdfe      	pop	{r1, r2, r3, r4, r5, r6, r7, pc}
 8005cd0:	89ab      	ldrh	r3, [r5, #12]
 8005cd2:	2b01      	cmp	r3, #1
 8005cd4:	d908      	bls.n	8005ce8 <_fwalk_sglue+0x34>
 8005cd6:	220e      	movs	r2, #14
 8005cd8:	5eab      	ldrsh	r3, [r5, r2]
 8005cda:	3301      	adds	r3, #1
 8005cdc:	d004      	beq.n	8005ce8 <_fwalk_sglue+0x34>
 8005cde:	0029      	movs	r1, r5
 8005ce0:	9800      	ldr	r0, [sp, #0]
 8005ce2:	9b01      	ldr	r3, [sp, #4]
 8005ce4:	4798      	blx	r3
 8005ce6:	4306      	orrs	r6, r0
 8005ce8:	3568      	adds	r5, #104	; 0x68
 8005cea:	e7ea      	b.n	8005cc2 <_fwalk_sglue+0xe>

08005cec <iprintf>:
 8005cec:	b40f      	push	{r0, r1, r2, r3}
 8005cee:	b507      	push	{r0, r1, r2, lr}
 8005cf0:	4905      	ldr	r1, [pc, #20]	; (8005d08 <iprintf+0x1c>)
 8005cf2:	ab04      	add	r3, sp, #16
 8005cf4:	6808      	ldr	r0, [r1, #0]
 8005cf6:	cb04      	ldmia	r3!, {r2}
 8005cf8:	6881      	ldr	r1, [r0, #8]
 8005cfa:	9301      	str	r3, [sp, #4]
 8005cfc:	f000 fbae 	bl	800645c <_vfiprintf_r>
 8005d00:	b003      	add	sp, #12
 8005d02:	bc08      	pop	{r3}
 8005d04:	b004      	add	sp, #16
 8005d06:	4718      	bx	r3
 8005d08:	20000208 	.word	0x20000208

08005d0c <siprintf>:
 8005d0c:	b40e      	push	{r1, r2, r3}
 8005d0e:	b500      	push	{lr}
 8005d10:	490b      	ldr	r1, [pc, #44]	; (8005d40 <siprintf+0x34>)
 8005d12:	b09c      	sub	sp, #112	; 0x70
 8005d14:	ab1d      	add	r3, sp, #116	; 0x74
 8005d16:	9002      	str	r0, [sp, #8]
 8005d18:	9006      	str	r0, [sp, #24]
 8005d1a:	9107      	str	r1, [sp, #28]
 8005d1c:	9104      	str	r1, [sp, #16]
 8005d1e:	4809      	ldr	r0, [pc, #36]	; (8005d44 <siprintf+0x38>)
 8005d20:	4909      	ldr	r1, [pc, #36]	; (8005d48 <siprintf+0x3c>)
 8005d22:	cb04      	ldmia	r3!, {r2}
 8005d24:	9105      	str	r1, [sp, #20]
 8005d26:	6800      	ldr	r0, [r0, #0]
 8005d28:	a902      	add	r1, sp, #8
 8005d2a:	9301      	str	r3, [sp, #4]
 8005d2c:	f000 fa6e 	bl	800620c <_svfiprintf_r>
 8005d30:	2200      	movs	r2, #0
 8005d32:	9b02      	ldr	r3, [sp, #8]
 8005d34:	701a      	strb	r2, [r3, #0]
 8005d36:	b01c      	add	sp, #112	; 0x70
 8005d38:	bc08      	pop	{r3}
 8005d3a:	b003      	add	sp, #12
 8005d3c:	4718      	bx	r3
 8005d3e:	46c0      	nop			; (mov r8, r8)
 8005d40:	7fffffff 	.word	0x7fffffff
 8005d44:	20000208 	.word	0x20000208
 8005d48:	ffff0208 	.word	0xffff0208

08005d4c <__sread>:
 8005d4c:	b570      	push	{r4, r5, r6, lr}
 8005d4e:	000c      	movs	r4, r1
 8005d50:	250e      	movs	r5, #14
 8005d52:	5f49      	ldrsh	r1, [r1, r5]
 8005d54:	f000 f920 	bl	8005f98 <_read_r>
 8005d58:	2800      	cmp	r0, #0
 8005d5a:	db03      	blt.n	8005d64 <__sread+0x18>
 8005d5c:	6d63      	ldr	r3, [r4, #84]	; 0x54
 8005d5e:	181b      	adds	r3, r3, r0
 8005d60:	6563      	str	r3, [r4, #84]	; 0x54
 8005d62:	bd70      	pop	{r4, r5, r6, pc}
 8005d64:	89a3      	ldrh	r3, [r4, #12]
 8005d66:	4a02      	ldr	r2, [pc, #8]	; (8005d70 <__sread+0x24>)
 8005d68:	4013      	ands	r3, r2
 8005d6a:	81a3      	strh	r3, [r4, #12]
 8005d6c:	e7f9      	b.n	8005d62 <__sread+0x16>
 8005d6e:	46c0      	nop			; (mov r8, r8)
 8005d70:	ffffefff 	.word	0xffffefff

08005d74 <__swrite>:
 8005d74:	b5f8      	push	{r3, r4, r5, r6, r7, lr}
 8005d76:	001f      	movs	r7, r3
 8005d78:	898b      	ldrh	r3, [r1, #12]
 8005d7a:	0005      	movs	r5, r0
 8005d7c:	000c      	movs	r4, r1
 8005d7e:	0016      	movs	r6, r2
 8005d80:	05db      	lsls	r3, r3, #23
 8005d82:	d505      	bpl.n	8005d90 <__swrite+0x1c>
 8005d84:	230e      	movs	r3, #14
 8005d86:	5ec9      	ldrsh	r1, [r1, r3]
 8005d88:	2200      	movs	r2, #0
 8005d8a:	2302      	movs	r3, #2
 8005d8c:	f000 f8f0 	bl	8005f70 <_lseek_r>
 8005d90:	89a3      	ldrh	r3, [r4, #12]
 8005d92:	4a05      	ldr	r2, [pc, #20]	; (8005da8 <__swrite+0x34>)
 8005d94:	0028      	movs	r0, r5
 8005d96:	4013      	ands	r3, r2
 8005d98:	81a3      	strh	r3, [r4, #12]
 8005d9a:	0032      	movs	r2, r6
 8005d9c:	230e      	movs	r3, #14
 8005d9e:	5ee1      	ldrsh	r1, [r4, r3]
 8005da0:	003b      	movs	r3, r7
 8005da2:	f000 f91f 	bl	8005fe4 <_write_r>
 8005da6:	bdf8      	pop	{r3, r4, r5, r6, r7, pc}
 8005da8:	ffffefff 	.word	0xffffefff

08005dac <__sseek>:
 8005dac:	b570      	push	{r4, r5, r6, lr}
 8005dae:	000c      	movs	r4, r1
 8005db0:	250e      	movs	r5, #14
 8005db2:	5f49      	ldrsh	r1, [r1, r5]
 8005db4:	f000 f8dc 	bl	8005f70 <_lseek_r>
 8005db8:	89a3      	ldrh	r3, [r4, #12]
 8005dba:	1c42      	adds	r2, r0, #1
 8005dbc:	d103      	bne.n	8005dc6 <__sseek+0x1a>
 8005dbe:	4a05      	ldr	r2, [pc, #20]	; (8005dd4 <__sseek+0x28>)
 8005dc0:	4013      	ands	r3, r2
 8005dc2:	81a3      	strh	r3, [r4, #12]
 8005dc4:	bd70      	pop	{r4, r5, r6, pc}
 8005dc6:	2280      	movs	r2, #128	; 0x80
 8005dc8:	0152      	lsls	r2, r2, #5
 8005dca:	4313      	orrs	r3, r2
 8005dcc:	81a3      	strh	r3, [r4, #12]
 8005dce:	6560      	str	r0, [r4, #84]	; 0x54
 8005dd0:	e7f8      	b.n	8005dc4 <__sseek+0x18>
 8005dd2:	46c0      	nop			; (mov r8, r8)
 8005dd4:	ffffefff 	.word	0xffffefff

08005dd8 <__sclose>:
 8005dd8:	b510      	push	{r4, lr}
 8005dda:	230e      	movs	r3, #14
 8005ddc:	5ec9      	ldrsh	r1, [r1, r3]
 8005dde:	f000 f8b5 	bl	8005f4c <_close_r>
 8005de2:	bd10      	pop	{r4, pc}

08005de4 <memset>:
 8005de4:	0003      	movs	r3, r0
 8005de6:	1882      	adds	r2, r0, r2
 8005de8:	4293      	cmp	r3, r2
 8005dea:	d100      	bne.n	8005dee <memset+0xa>
 8005dec:	4770      	bx	lr
 8005dee:	7019      	strb	r1, [r3, #0]
 8005df0:	3301      	adds	r3, #1
 8005df2:	e7f9      	b.n	8005de8 <memset+0x4>

08005df4 <strdup>:
 8005df4:	b510      	push	{r4, lr}
 8005df6:	4b03      	ldr	r3, [pc, #12]	; (8005e04 <strdup+0x10>)
 8005df8:	0001      	movs	r1, r0
 8005dfa:	6818      	ldr	r0, [r3, #0]
 8005dfc:	f000 f804 	bl	8005e08 <_strdup_r>
 8005e00:	bd10      	pop	{r4, pc}
 8005e02:	46c0      	nop			; (mov r8, r8)
 8005e04:	20000208 	.word	0x20000208

08005e08 <_strdup_r>:
 8005e08:	b570      	push	{r4, r5, r6, lr}
 8005e0a:	0004      	movs	r4, r0
 8005e0c:	0008      	movs	r0, r1
 8005e0e:	000d      	movs	r5, r1
 8005e10:	f7fa f984 	bl	800011c <strlen>
 8005e14:	1c46      	adds	r6, r0, #1
 8005e16:	0031      	movs	r1, r6
 8005e18:	0020      	movs	r0, r4
 8005e1a:	f7ff fe23 	bl	8005a64 <_malloc_r>
 8005e1e:	1e04      	subs	r4, r0, #0
 8005e20:	d003      	beq.n	8005e2a <_strdup_r+0x22>
 8005e22:	0032      	movs	r2, r6
 8005e24:	0029      	movs	r1, r5
 8005e26:	f000 f91d 	bl	8006064 <memcpy>
 8005e2a:	0020      	movs	r0, r4
 8005e2c:	bd70      	pop	{r4, r5, r6, pc}

08005e2e <strncmp>:
 8005e2e:	b530      	push	{r4, r5, lr}
 8005e30:	0005      	movs	r5, r0
 8005e32:	1e10      	subs	r0, r2, #0
 8005e34:	d00b      	beq.n	8005e4e <strncmp+0x20>
 8005e36:	2400      	movs	r4, #0
 8005e38:	3a01      	subs	r2, #1
 8005e3a:	5d2b      	ldrb	r3, [r5, r4]
 8005e3c:	5d08      	ldrb	r0, [r1, r4]
 8005e3e:	4283      	cmp	r3, r0
 8005e40:	d104      	bne.n	8005e4c <strncmp+0x1e>
 8005e42:	42a2      	cmp	r2, r4
 8005e44:	d002      	beq.n	8005e4c <strncmp+0x1e>
 8005e46:	3401      	adds	r4, #1
 8005e48:	2b00      	cmp	r3, #0
 8005e4a:	d1f6      	bne.n	8005e3a <strncmp+0xc>
 8005e4c:	1a18      	subs	r0, r3, r0
 8005e4e:	bd30      	pop	{r4, r5, pc}

08005e50 <strpbrk>:
 8005e50:	b510      	push	{r4, lr}
 8005e52:	7803      	ldrb	r3, [r0, #0]
 8005e54:	2b00      	cmp	r3, #0
 8005e56:	d013      	beq.n	8005e80 <strpbrk+0x30>
 8005e58:	000b      	movs	r3, r1
 8005e5a:	7802      	ldrb	r2, [r0, #0]
 8005e5c:	2a00      	cmp	r2, #0
 8005e5e:	d10d      	bne.n	8005e7c <strpbrk+0x2c>
 8005e60:	781b      	ldrb	r3, [r3, #0]
 8005e62:	1e5a      	subs	r2, r3, #1
 8005e64:	4193      	sbcs	r3, r2
 8005e66:	425b      	negs	r3, r3
 8005e68:	4018      	ands	r0, r3
 8005e6a:	bd10      	pop	{r4, pc}
 8005e6c:	4294      	cmp	r4, r2
 8005e6e:	d0fc      	beq.n	8005e6a <strpbrk+0x1a>
 8005e70:	3301      	adds	r3, #1
 8005e72:	781c      	ldrb	r4, [r3, #0]
 8005e74:	2c00      	cmp	r4, #0
 8005e76:	d1f9      	bne.n	8005e6c <strpbrk+0x1c>
 8005e78:	3001      	adds	r0, #1
 8005e7a:	e7ee      	b.n	8005e5a <strpbrk+0xa>
 8005e7c:	000b      	movs	r3, r1
 8005e7e:	e7f8      	b.n	8005e72 <strpbrk+0x22>
 8005e80:	0018      	movs	r0, r3
 8005e82:	e7f2      	b.n	8005e6a <strpbrk+0x1a>

08005e84 <strtok>:
 8005e84:	b5f8      	push	{r3, r4, r5, r6, r7, lr}
 8005e86:	4b16      	ldr	r3, [pc, #88]	; (8005ee0 <strtok+0x5c>)
 8005e88:	0005      	movs	r5, r0
 8005e8a:	681f      	ldr	r7, [r3, #0]
 8005e8c:	000e      	movs	r6, r1
 8005e8e:	6c7c      	ldr	r4, [r7, #68]	; 0x44
 8005e90:	2c00      	cmp	r4, #0
 8005e92:	d11d      	bne.n	8005ed0 <strtok+0x4c>
 8005e94:	2050      	movs	r0, #80	; 0x50
 8005e96:	f7ff fdaf 	bl	80059f8 <malloc>
 8005e9a:	1e02      	subs	r2, r0, #0
 8005e9c:	6478      	str	r0, [r7, #68]	; 0x44
 8005e9e:	d104      	bne.n	8005eaa <strtok+0x26>
 8005ea0:	215b      	movs	r1, #91	; 0x5b
 8005ea2:	4b10      	ldr	r3, [pc, #64]	; (8005ee4 <strtok+0x60>)
 8005ea4:	4810      	ldr	r0, [pc, #64]	; (8005ee8 <strtok+0x64>)
 8005ea6:	f000 f8e7 	bl	8006078 <__assert_func>
 8005eaa:	6004      	str	r4, [r0, #0]
 8005eac:	6044      	str	r4, [r0, #4]
 8005eae:	6084      	str	r4, [r0, #8]
 8005eb0:	60c4      	str	r4, [r0, #12]
 8005eb2:	6104      	str	r4, [r0, #16]
 8005eb4:	6144      	str	r4, [r0, #20]
 8005eb6:	6184      	str	r4, [r0, #24]
 8005eb8:	6284      	str	r4, [r0, #40]	; 0x28
 8005eba:	62c4      	str	r4, [r0, #44]	; 0x2c
 8005ebc:	6304      	str	r4, [r0, #48]	; 0x30
 8005ebe:	6344      	str	r4, [r0, #52]	; 0x34
 8005ec0:	6384      	str	r4, [r0, #56]	; 0x38
 8005ec2:	63c4      	str	r4, [r0, #60]	; 0x3c
 8005ec4:	6404      	str	r4, [r0, #64]	; 0x40
 8005ec6:	6444      	str	r4, [r0, #68]	; 0x44
 8005ec8:	6484      	str	r4, [r0, #72]	; 0x48
 8005eca:	64c4      	str	r4, [r0, #76]	; 0x4c
 8005ecc:	7704      	strb	r4, [r0, #28]
 8005ece:	6244      	str	r4, [r0, #36]	; 0x24
 8005ed0:	0031      	movs	r1, r6
 8005ed2:	0028      	movs	r0, r5
 8005ed4:	6c7a      	ldr	r2, [r7, #68]	; 0x44
 8005ed6:	2301      	movs	r3, #1
 8005ed8:	f000 f808 	bl	8005eec <__strtok_r>
 8005edc:	bdf8      	pop	{r3, r4, r5, r6, r7, pc}
 8005ede:	46c0      	nop			; (mov r8, r8)
 8005ee0:	20000208 	.word	0x20000208
 8005ee4:	0800722d 	.word	0x0800722d
 8005ee8:	08007244 	.word	0x08007244

08005eec <__strtok_r>:
 8005eec:	b5f0      	push	{r4, r5, r6, r7, lr}
 8005eee:	2800      	cmp	r0, #0
 8005ef0:	d102      	bne.n	8005ef8 <__strtok_r+0xc>
 8005ef2:	6810      	ldr	r0, [r2, #0]
 8005ef4:	2800      	cmp	r0, #0
 8005ef6:	d013      	beq.n	8005f20 <__strtok_r+0x34>
 8005ef8:	0004      	movs	r4, r0
 8005efa:	0020      	movs	r0, r4
 8005efc:	000e      	movs	r6, r1
 8005efe:	7805      	ldrb	r5, [r0, #0]
 8005f00:	3401      	adds	r4, #1
 8005f02:	7837      	ldrb	r7, [r6, #0]
 8005f04:	2f00      	cmp	r7, #0
 8005f06:	d104      	bne.n	8005f12 <__strtok_r+0x26>
 8005f08:	2d00      	cmp	r5, #0
 8005f0a:	d10f      	bne.n	8005f2c <__strtok_r+0x40>
 8005f0c:	0028      	movs	r0, r5
 8005f0e:	6015      	str	r5, [r2, #0]
 8005f10:	e006      	b.n	8005f20 <__strtok_r+0x34>
 8005f12:	3601      	adds	r6, #1
 8005f14:	42bd      	cmp	r5, r7
 8005f16:	d1f4      	bne.n	8005f02 <__strtok_r+0x16>
 8005f18:	2b00      	cmp	r3, #0
 8005f1a:	d1ee      	bne.n	8005efa <__strtok_r+0xe>
 8005f1c:	6014      	str	r4, [r2, #0]
 8005f1e:	7003      	strb	r3, [r0, #0]
 8005f20:	bdf0      	pop	{r4, r5, r6, r7, pc}
 8005f22:	002f      	movs	r7, r5
 8005f24:	e00f      	b.n	8005f46 <__strtok_r+0x5a>
 8005f26:	3301      	adds	r3, #1
 8005f28:	2e00      	cmp	r6, #0
 8005f2a:	d104      	bne.n	8005f36 <__strtok_r+0x4a>
 8005f2c:	0023      	movs	r3, r4
 8005f2e:	3401      	adds	r4, #1
 8005f30:	781d      	ldrb	r5, [r3, #0]
 8005f32:	0027      	movs	r7, r4
 8005f34:	000b      	movs	r3, r1
 8005f36:	781e      	ldrb	r6, [r3, #0]
 8005f38:	42b5      	cmp	r5, r6
 8005f3a:	d1f4      	bne.n	8005f26 <__strtok_r+0x3a>
 8005f3c:	2d00      	cmp	r5, #0
 8005f3e:	d0f0      	beq.n	8005f22 <__strtok_r+0x36>
 8005f40:	2300      	movs	r3, #0
 8005f42:	3c01      	subs	r4, #1
 8005f44:	7023      	strb	r3, [r4, #0]
 8005f46:	6017      	str	r7, [r2, #0]
 8005f48:	e7ea      	b.n	8005f20 <__strtok_r+0x34>
	...

08005f4c <_close_r>:
 8005f4c:	2300      	movs	r3, #0
 8005f4e:	b570      	push	{r4, r5, r6, lr}
 8005f50:	4d06      	ldr	r5, [pc, #24]	; (8005f6c <_close_r+0x20>)
 8005f52:	0004      	movs	r4, r0
 8005f54:	0008      	movs	r0, r1
 8005f56:	602b      	str	r3, [r5, #0]
 8005f58:	f7fc fa29 	bl	80023ae <_close>
 8005f5c:	1c43      	adds	r3, r0, #1
 8005f5e:	d103      	bne.n	8005f68 <_close_r+0x1c>
 8005f60:	682b      	ldr	r3, [r5, #0]
 8005f62:	2b00      	cmp	r3, #0
 8005f64:	d000      	beq.n	8005f68 <_close_r+0x1c>
 8005f66:	6023      	str	r3, [r4, #0]
 8005f68:	bd70      	pop	{r4, r5, r6, pc}
 8005f6a:	46c0      	nop			; (mov r8, r8)
 8005f6c:	200004e8 	.word	0x200004e8

08005f70 <_lseek_r>:
 8005f70:	b570      	push	{r4, r5, r6, lr}
 8005f72:	0004      	movs	r4, r0
 8005f74:	0008      	movs	r0, r1
 8005f76:	0011      	movs	r1, r2
 8005f78:	001a      	movs	r2, r3
 8005f7a:	2300      	movs	r3, #0
 8005f7c:	4d05      	ldr	r5, [pc, #20]	; (8005f94 <_lseek_r+0x24>)
 8005f7e:	602b      	str	r3, [r5, #0]
 8005f80:	f7fc fa36 	bl	80023f0 <_lseek>
 8005f84:	1c43      	adds	r3, r0, #1
 8005f86:	d103      	bne.n	8005f90 <_lseek_r+0x20>
 8005f88:	682b      	ldr	r3, [r5, #0]
 8005f8a:	2b00      	cmp	r3, #0
 8005f8c:	d000      	beq.n	8005f90 <_lseek_r+0x20>
 8005f8e:	6023      	str	r3, [r4, #0]
 8005f90:	bd70      	pop	{r4, r5, r6, pc}
 8005f92:	46c0      	nop			; (mov r8, r8)
 8005f94:	200004e8 	.word	0x200004e8

08005f98 <_read_r>:
 8005f98:	b570      	push	{r4, r5, r6, lr}
 8005f9a:	0004      	movs	r4, r0
 8005f9c:	0008      	movs	r0, r1
 8005f9e:	0011      	movs	r1, r2
 8005fa0:	001a      	movs	r2, r3
 8005fa2:	2300      	movs	r3, #0
 8005fa4:	4d05      	ldr	r5, [pc, #20]	; (8005fbc <_read_r+0x24>)
 8005fa6:	602b      	str	r3, [r5, #0]
 8005fa8:	f7fc f9c8 	bl	800233c <_read>
 8005fac:	1c43      	adds	r3, r0, #1
 8005fae:	d103      	bne.n	8005fb8 <_read_r+0x20>
 8005fb0:	682b      	ldr	r3, [r5, #0]
 8005fb2:	2b00      	cmp	r3, #0
 8005fb4:	d000      	beq.n	8005fb8 <_read_r+0x20>
 8005fb6:	6023      	str	r3, [r4, #0]
 8005fb8:	bd70      	pop	{r4, r5, r6, pc}
 8005fba:	46c0      	nop			; (mov r8, r8)
 8005fbc:	200004e8 	.word	0x200004e8

08005fc0 <_sbrk_r>:
 8005fc0:	2300      	movs	r3, #0
 8005fc2:	b570      	push	{r4, r5, r6, lr}
 8005fc4:	4d06      	ldr	r5, [pc, #24]	; (8005fe0 <_sbrk_r+0x20>)
 8005fc6:	0004      	movs	r4, r0
 8005fc8:	0008      	movs	r0, r1
 8005fca:	602b      	str	r3, [r5, #0]
 8005fcc:	f7fc fa1c 	bl	8002408 <_sbrk>
 8005fd0:	1c43      	adds	r3, r0, #1
 8005fd2:	d103      	bne.n	8005fdc <_sbrk_r+0x1c>
 8005fd4:	682b      	ldr	r3, [r5, #0]
 8005fd6:	2b00      	cmp	r3, #0
 8005fd8:	d000      	beq.n	8005fdc <_sbrk_r+0x1c>
 8005fda:	6023      	str	r3, [r4, #0]
 8005fdc:	bd70      	pop	{r4, r5, r6, pc}
 8005fde:	46c0      	nop			; (mov r8, r8)
 8005fe0:	200004e8 	.word	0x200004e8

08005fe4 <_write_r>:
 8005fe4:	b570      	push	{r4, r5, r6, lr}
 8005fe6:	0004      	movs	r4, r0
 8005fe8:	0008      	movs	r0, r1
 8005fea:	0011      	movs	r1, r2
 8005fec:	001a      	movs	r2, r3
 8005fee:	2300      	movs	r3, #0
 8005ff0:	4d05      	ldr	r5, [pc, #20]	; (8006008 <_write_r+0x24>)
 8005ff2:	602b      	str	r3, [r5, #0]
 8005ff4:	f7fc f9bf 	bl	8002376 <_write>
 8005ff8:	1c43      	adds	r3, r0, #1
 8005ffa:	d103      	bne.n	8006004 <_write_r+0x20>
 8005ffc:	682b      	ldr	r3, [r5, #0]
 8005ffe:	2b00      	cmp	r3, #0
 8006000:	d000      	beq.n	8006004 <_write_r+0x20>
 8006002:	6023      	str	r3, [r4, #0]
 8006004:	bd70      	pop	{r4, r5, r6, pc}
 8006006:	46c0      	nop			; (mov r8, r8)
 8006008:	200004e8 	.word	0x200004e8

0800600c <__errno>:
 800600c:	4b01      	ldr	r3, [pc, #4]	; (8006014 <__errno+0x8>)
 800600e:	6818      	ldr	r0, [r3, #0]
 8006010:	4770      	bx	lr
 8006012:	46c0      	nop			; (mov r8, r8)
 8006014:	20000208 	.word	0x20000208

08006018 <__libc_init_array>:
 8006018:	b570      	push	{r4, r5, r6, lr}
 800601a:	2600      	movs	r6, #0
 800601c:	4c0c      	ldr	r4, [pc, #48]	; (8006050 <__libc_init_array+0x38>)
 800601e:	4d0d      	ldr	r5, [pc, #52]	; (8006054 <__libc_init_array+0x3c>)
 8006020:	1b64      	subs	r4, r4, r5
 8006022:	10a4      	asrs	r4, r4, #2
 8006024:	42a6      	cmp	r6, r4
 8006026:	d109      	bne.n	800603c <__libc_init_array+0x24>
 8006028:	2600      	movs	r6, #0
 800602a:	f000 ff4f 	bl	8006ecc <_init>
 800602e:	4c0a      	ldr	r4, [pc, #40]	; (8006058 <__libc_init_array+0x40>)
 8006030:	4d0a      	ldr	r5, [pc, #40]	; (800605c <__libc_init_array+0x44>)
 8006032:	1b64      	subs	r4, r4, r5
 8006034:	10a4      	asrs	r4, r4, #2
 8006036:	42a6      	cmp	r6, r4
 8006038:	d105      	bne.n	8006046 <__libc_init_array+0x2e>
 800603a:	bd70      	pop	{r4, r5, r6, pc}
 800603c:	00b3      	lsls	r3, r6, #2
 800603e:	58eb      	ldr	r3, [r5, r3]
 8006040:	4798      	blx	r3
 8006042:	3601      	adds	r6, #1
 8006044:	e7ee      	b.n	8006024 <__libc_init_array+0xc>
 8006046:	00b3      	lsls	r3, r6, #2
 8006048:	58eb      	ldr	r3, [r5, r3]
 800604a:	4798      	blx	r3
 800604c:	3601      	adds	r6, #1
 800604e:	e7f2      	b.n	8006036 <__libc_init_array+0x1e>
 8006050:	08007318 	.word	0x08007318
 8006054:	08007318 	.word	0x08007318
 8006058:	0800731c 	.word	0x0800731c
 800605c:	08007318 	.word	0x08007318

08006060 <__retarget_lock_acquire_recursive>:
 8006060:	4770      	bx	lr

08006062 <__retarget_lock_release_recursive>:
 8006062:	4770      	bx	lr

08006064 <memcpy>:
 8006064:	2300      	movs	r3, #0
 8006066:	b510      	push	{r4, lr}
 8006068:	429a      	cmp	r2, r3
 800606a:	d100      	bne.n	800606e <memcpy+0xa>
 800606c:	bd10      	pop	{r4, pc}
 800606e:	5ccc      	ldrb	r4, [r1, r3]
 8006070:	54c4      	strb	r4, [r0, r3]
 8006072:	3301      	adds	r3, #1
 8006074:	e7f8      	b.n	8006068 <memcpy+0x4>
	...

08006078 <__assert_func>:
 8006078:	b57f      	push	{r0, r1, r2, r3, r4, r5, r6, lr}
 800607a:	0014      	movs	r4, r2
 800607c:	001a      	movs	r2, r3
 800607e:	4b09      	ldr	r3, [pc, #36]	; (80060a4 <__assert_func+0x2c>)
 8006080:	0005      	movs	r5, r0
 8006082:	681b      	ldr	r3, [r3, #0]
 8006084:	000e      	movs	r6, r1
 8006086:	68d8      	ldr	r0, [r3, #12]
 8006088:	4b07      	ldr	r3, [pc, #28]	; (80060a8 <__assert_func+0x30>)
 800608a:	2c00      	cmp	r4, #0
 800608c:	d101      	bne.n	8006092 <__assert_func+0x1a>
 800608e:	4b07      	ldr	r3, [pc, #28]	; (80060ac <__assert_func+0x34>)
 8006090:	001c      	movs	r4, r3
 8006092:	4907      	ldr	r1, [pc, #28]	; (80060b0 <__assert_func+0x38>)
 8006094:	9301      	str	r3, [sp, #4]
 8006096:	9402      	str	r4, [sp, #8]
 8006098:	002b      	movs	r3, r5
 800609a:	9600      	str	r6, [sp, #0]
 800609c:	f000 fd30 	bl	8006b00 <fiprintf>
 80060a0:	f000 fe02 	bl	8006ca8 <abort>
 80060a4:	20000208 	.word	0x20000208
 80060a8:	0800729e 	.word	0x0800729e
 80060ac:	080072d9 	.word	0x080072d9
 80060b0:	080072ab 	.word	0x080072ab

080060b4 <_free_r>:
 80060b4:	b570      	push	{r4, r5, r6, lr}
 80060b6:	0005      	movs	r5, r0
 80060b8:	2900      	cmp	r1, #0
 80060ba:	d010      	beq.n	80060de <_free_r+0x2a>
 80060bc:	1f0c      	subs	r4, r1, #4
 80060be:	6823      	ldr	r3, [r4, #0]
 80060c0:	2b00      	cmp	r3, #0
 80060c2:	da00      	bge.n	80060c6 <_free_r+0x12>
 80060c4:	18e4      	adds	r4, r4, r3
 80060c6:	0028      	movs	r0, r5
 80060c8:	f7ff fd4e 	bl	8005b68 <__malloc_lock>
 80060cc:	4a1d      	ldr	r2, [pc, #116]	; (8006144 <_free_r+0x90>)
 80060ce:	6813      	ldr	r3, [r2, #0]
 80060d0:	2b00      	cmp	r3, #0
 80060d2:	d105      	bne.n	80060e0 <_free_r+0x2c>
 80060d4:	6063      	str	r3, [r4, #4]
 80060d6:	6014      	str	r4, [r2, #0]
 80060d8:	0028      	movs	r0, r5
 80060da:	f7ff fd4d 	bl	8005b78 <__malloc_unlock>
 80060de:	bd70      	pop	{r4, r5, r6, pc}
 80060e0:	42a3      	cmp	r3, r4
 80060e2:	d908      	bls.n	80060f6 <_free_r+0x42>
 80060e4:	6820      	ldr	r0, [r4, #0]
 80060e6:	1821      	adds	r1, r4, r0
 80060e8:	428b      	cmp	r3, r1
 80060ea:	d1f3      	bne.n	80060d4 <_free_r+0x20>
 80060ec:	6819      	ldr	r1, [r3, #0]
 80060ee:	685b      	ldr	r3, [r3, #4]
 80060f0:	1809      	adds	r1, r1, r0
 80060f2:	6021      	str	r1, [r4, #0]
 80060f4:	e7ee      	b.n	80060d4 <_free_r+0x20>
 80060f6:	001a      	movs	r2, r3
 80060f8:	685b      	ldr	r3, [r3, #4]
 80060fa:	2b00      	cmp	r3, #0
 80060fc:	d001      	beq.n	8006102 <_free_r+0x4e>
 80060fe:	42a3      	cmp	r3, r4
 8006100:	d9f9      	bls.n	80060f6 <_free_r+0x42>
 8006102:	6811      	ldr	r1, [r2, #0]
 8006104:	1850      	adds	r0, r2, r1
 8006106:	42a0      	cmp	r0, r4
 8006108:	d10b      	bne.n	8006122 <_free_r+0x6e>
 800610a:	6820      	ldr	r0, [r4, #0]
 800610c:	1809      	adds	r1, r1, r0
 800610e:	1850      	adds	r0, r2, r1
 8006110:	6011      	str	r1, [r2, #0]
 8006112:	4283      	cmp	r3, r0
 8006114:	d1e0      	bne.n	80060d8 <_free_r+0x24>
 8006116:	6818      	ldr	r0, [r3, #0]
 8006118:	685b      	ldr	r3, [r3, #4]
 800611a:	1841      	adds	r1, r0, r1
 800611c:	6011      	str	r1, [r2, #0]
 800611e:	6053      	str	r3, [r2, #4]
 8006120:	e7da      	b.n	80060d8 <_free_r+0x24>
 8006122:	42a0      	cmp	r0, r4
 8006124:	d902      	bls.n	800612c <_free_r+0x78>
 8006126:	230c      	movs	r3, #12
 8006128:	602b      	str	r3, [r5, #0]
 800612a:	e7d5      	b.n	80060d8 <_free_r+0x24>
 800612c:	6820      	ldr	r0, [r4, #0]
 800612e:	1821      	adds	r1, r4, r0
 8006130:	428b      	cmp	r3, r1
 8006132:	d103      	bne.n	800613c <_free_r+0x88>
 8006134:	6819      	ldr	r1, [r3, #0]
 8006136:	685b      	ldr	r3, [r3, #4]
 8006138:	1809      	adds	r1, r1, r0
 800613a:	6021      	str	r1, [r4, #0]
 800613c:	6063      	str	r3, [r4, #4]
 800613e:	6054      	str	r4, [r2, #4]
 8006140:	e7ca      	b.n	80060d8 <_free_r+0x24>
 8006142:	46c0      	nop			; (mov r8, r8)
 8006144:	200003a4 	.word	0x200003a4

08006148 <__ssputs_r>:
 8006148:	b5f0      	push	{r4, r5, r6, r7, lr}
 800614a:	b085      	sub	sp, #20
 800614c:	9301      	str	r3, [sp, #4]
 800614e:	9203      	str	r2, [sp, #12]
 8006150:	688e      	ldr	r6, [r1, #8]
 8006152:	9a01      	ldr	r2, [sp, #4]
 8006154:	0007      	movs	r7, r0
 8006156:	000c      	movs	r4, r1
 8006158:	680b      	ldr	r3, [r1, #0]
 800615a:	4296      	cmp	r6, r2
 800615c:	d831      	bhi.n	80061c2 <__ssputs_r+0x7a>
 800615e:	898a      	ldrh	r2, [r1, #12]
 8006160:	2190      	movs	r1, #144	; 0x90
 8006162:	00c9      	lsls	r1, r1, #3
 8006164:	420a      	tst	r2, r1
 8006166:	d029      	beq.n	80061bc <__ssputs_r+0x74>
 8006168:	2003      	movs	r0, #3
 800616a:	6921      	ldr	r1, [r4, #16]
 800616c:	1a5b      	subs	r3, r3, r1
 800616e:	9302      	str	r3, [sp, #8]
 8006170:	6963      	ldr	r3, [r4, #20]
 8006172:	4343      	muls	r3, r0
 8006174:	0fdd      	lsrs	r5, r3, #31
 8006176:	18ed      	adds	r5, r5, r3
 8006178:	9b01      	ldr	r3, [sp, #4]
 800617a:	9802      	ldr	r0, [sp, #8]
 800617c:	3301      	adds	r3, #1
 800617e:	181b      	adds	r3, r3, r0
 8006180:	106d      	asrs	r5, r5, #1
 8006182:	42ab      	cmp	r3, r5
 8006184:	d900      	bls.n	8006188 <__ssputs_r+0x40>
 8006186:	001d      	movs	r5, r3
 8006188:	0552      	lsls	r2, r2, #21
 800618a:	d529      	bpl.n	80061e0 <__ssputs_r+0x98>
 800618c:	0029      	movs	r1, r5
 800618e:	0038      	movs	r0, r7
 8006190:	f7ff fc68 	bl	8005a64 <_malloc_r>
 8006194:	1e06      	subs	r6, r0, #0
 8006196:	d02d      	beq.n	80061f4 <__ssputs_r+0xac>
 8006198:	9a02      	ldr	r2, [sp, #8]
 800619a:	6921      	ldr	r1, [r4, #16]
 800619c:	f7ff ff62 	bl	8006064 <memcpy>
 80061a0:	89a2      	ldrh	r2, [r4, #12]
 80061a2:	4b19      	ldr	r3, [pc, #100]	; (8006208 <__ssputs_r+0xc0>)
 80061a4:	401a      	ands	r2, r3
 80061a6:	2380      	movs	r3, #128	; 0x80
 80061a8:	4313      	orrs	r3, r2
 80061aa:	81a3      	strh	r3, [r4, #12]
 80061ac:	9b02      	ldr	r3, [sp, #8]
 80061ae:	6126      	str	r6, [r4, #16]
 80061b0:	18f6      	adds	r6, r6, r3
 80061b2:	6026      	str	r6, [r4, #0]
 80061b4:	6165      	str	r5, [r4, #20]
 80061b6:	9e01      	ldr	r6, [sp, #4]
 80061b8:	1aed      	subs	r5, r5, r3
 80061ba:	60a5      	str	r5, [r4, #8]
 80061bc:	9b01      	ldr	r3, [sp, #4]
 80061be:	429e      	cmp	r6, r3
 80061c0:	d900      	bls.n	80061c4 <__ssputs_r+0x7c>
 80061c2:	9e01      	ldr	r6, [sp, #4]
 80061c4:	0032      	movs	r2, r6
 80061c6:	9903      	ldr	r1, [sp, #12]
 80061c8:	6820      	ldr	r0, [r4, #0]
 80061ca:	f000 fd4f 	bl	8006c6c <memmove>
 80061ce:	2000      	movs	r0, #0
 80061d0:	68a3      	ldr	r3, [r4, #8]
 80061d2:	1b9b      	subs	r3, r3, r6
 80061d4:	60a3      	str	r3, [r4, #8]
 80061d6:	6823      	ldr	r3, [r4, #0]
 80061d8:	199b      	adds	r3, r3, r6
 80061da:	6023      	str	r3, [r4, #0]
 80061dc:	b005      	add	sp, #20
 80061de:	bdf0      	pop	{r4, r5, r6, r7, pc}
 80061e0:	002a      	movs	r2, r5
 80061e2:	0038      	movs	r0, r7
 80061e4:	f000 fd67 	bl	8006cb6 <_realloc_r>
 80061e8:	1e06      	subs	r6, r0, #0
 80061ea:	d1df      	bne.n	80061ac <__ssputs_r+0x64>
 80061ec:	0038      	movs	r0, r7
 80061ee:	6921      	ldr	r1, [r4, #16]
 80061f0:	f7ff ff60 	bl	80060b4 <_free_r>
 80061f4:	230c      	movs	r3, #12
 80061f6:	2001      	movs	r0, #1
 80061f8:	603b      	str	r3, [r7, #0]
 80061fa:	89a2      	ldrh	r2, [r4, #12]
 80061fc:	3334      	adds	r3, #52	; 0x34
 80061fe:	4313      	orrs	r3, r2
 8006200:	81a3      	strh	r3, [r4, #12]
 8006202:	4240      	negs	r0, r0
 8006204:	e7ea      	b.n	80061dc <__ssputs_r+0x94>
 8006206:	46c0      	nop			; (mov r8, r8)
 8006208:	fffffb7f 	.word	0xfffffb7f

0800620c <_svfiprintf_r>:
 800620c:	b5f0      	push	{r4, r5, r6, r7, lr}
 800620e:	b0a1      	sub	sp, #132	; 0x84
 8006210:	9003      	str	r0, [sp, #12]
 8006212:	001d      	movs	r5, r3
 8006214:	898b      	ldrh	r3, [r1, #12]
 8006216:	000f      	movs	r7, r1
 8006218:	0016      	movs	r6, r2
 800621a:	061b      	lsls	r3, r3, #24
 800621c:	d511      	bpl.n	8006242 <_svfiprintf_r+0x36>
 800621e:	690b      	ldr	r3, [r1, #16]
 8006220:	2b00      	cmp	r3, #0
 8006222:	d10e      	bne.n	8006242 <_svfiprintf_r+0x36>
 8006224:	2140      	movs	r1, #64	; 0x40
 8006226:	f7ff fc1d 	bl	8005a64 <_malloc_r>
 800622a:	6038      	str	r0, [r7, #0]
 800622c:	6138      	str	r0, [r7, #16]
 800622e:	2800      	cmp	r0, #0
 8006230:	d105      	bne.n	800623e <_svfiprintf_r+0x32>
 8006232:	230c      	movs	r3, #12
 8006234:	9a03      	ldr	r2, [sp, #12]
 8006236:	3801      	subs	r0, #1
 8006238:	6013      	str	r3, [r2, #0]
 800623a:	b021      	add	sp, #132	; 0x84
 800623c:	bdf0      	pop	{r4, r5, r6, r7, pc}
 800623e:	2340      	movs	r3, #64	; 0x40
 8006240:	617b      	str	r3, [r7, #20]
 8006242:	2300      	movs	r3, #0
 8006244:	ac08      	add	r4, sp, #32
 8006246:	6163      	str	r3, [r4, #20]
 8006248:	3320      	adds	r3, #32
 800624a:	7663      	strb	r3, [r4, #25]
 800624c:	3310      	adds	r3, #16
 800624e:	76a3      	strb	r3, [r4, #26]
 8006250:	9507      	str	r5, [sp, #28]
 8006252:	0035      	movs	r5, r6
 8006254:	782b      	ldrb	r3, [r5, #0]
 8006256:	2b00      	cmp	r3, #0
 8006258:	d001      	beq.n	800625e <_svfiprintf_r+0x52>
 800625a:	2b25      	cmp	r3, #37	; 0x25
 800625c:	d148      	bne.n	80062f0 <_svfiprintf_r+0xe4>
 800625e:	1bab      	subs	r3, r5, r6
 8006260:	9305      	str	r3, [sp, #20]
 8006262:	42b5      	cmp	r5, r6
 8006264:	d00b      	beq.n	800627e <_svfiprintf_r+0x72>
 8006266:	0032      	movs	r2, r6
 8006268:	0039      	movs	r1, r7
 800626a:	9803      	ldr	r0, [sp, #12]
 800626c:	f7ff ff6c 	bl	8006148 <__ssputs_r>
 8006270:	3001      	adds	r0, #1
 8006272:	d100      	bne.n	8006276 <_svfiprintf_r+0x6a>
 8006274:	e0af      	b.n	80063d6 <_svfiprintf_r+0x1ca>
 8006276:	6963      	ldr	r3, [r4, #20]
 8006278:	9a05      	ldr	r2, [sp, #20]
 800627a:	189b      	adds	r3, r3, r2
 800627c:	6163      	str	r3, [r4, #20]
 800627e:	782b      	ldrb	r3, [r5, #0]
 8006280:	2b00      	cmp	r3, #0
 8006282:	d100      	bne.n	8006286 <_svfiprintf_r+0x7a>
 8006284:	e0a7      	b.n	80063d6 <_svfiprintf_r+0x1ca>
 8006286:	2201      	movs	r2, #1
 8006288:	2300      	movs	r3, #0
 800628a:	4252      	negs	r2, r2
 800628c:	6062      	str	r2, [r4, #4]
 800628e:	a904      	add	r1, sp, #16
 8006290:	3254      	adds	r2, #84	; 0x54
 8006292:	1852      	adds	r2, r2, r1
 8006294:	1c6e      	adds	r6, r5, #1
 8006296:	6023      	str	r3, [r4, #0]
 8006298:	60e3      	str	r3, [r4, #12]
 800629a:	60a3      	str	r3, [r4, #8]
 800629c:	7013      	strb	r3, [r2, #0]
 800629e:	65a3      	str	r3, [r4, #88]	; 0x58
 80062a0:	4b55      	ldr	r3, [pc, #340]	; (80063f8 <_svfiprintf_r+0x1ec>)
 80062a2:	2205      	movs	r2, #5
 80062a4:	0018      	movs	r0, r3
 80062a6:	7831      	ldrb	r1, [r6, #0]
 80062a8:	9305      	str	r3, [sp, #20]
 80062aa:	f000 fcf2 	bl	8006c92 <memchr>
 80062ae:	1c75      	adds	r5, r6, #1
 80062b0:	2800      	cmp	r0, #0
 80062b2:	d11f      	bne.n	80062f4 <_svfiprintf_r+0xe8>
 80062b4:	6822      	ldr	r2, [r4, #0]
 80062b6:	06d3      	lsls	r3, r2, #27
 80062b8:	d504      	bpl.n	80062c4 <_svfiprintf_r+0xb8>
 80062ba:	2353      	movs	r3, #83	; 0x53
 80062bc:	a904      	add	r1, sp, #16
 80062be:	185b      	adds	r3, r3, r1
 80062c0:	2120      	movs	r1, #32
 80062c2:	7019      	strb	r1, [r3, #0]
 80062c4:	0713      	lsls	r3, r2, #28
 80062c6:	d504      	bpl.n	80062d2 <_svfiprintf_r+0xc6>
 80062c8:	2353      	movs	r3, #83	; 0x53
 80062ca:	a904      	add	r1, sp, #16
 80062cc:	185b      	adds	r3, r3, r1
 80062ce:	212b      	movs	r1, #43	; 0x2b
 80062d0:	7019      	strb	r1, [r3, #0]
 80062d2:	7833      	ldrb	r3, [r6, #0]
 80062d4:	2b2a      	cmp	r3, #42	; 0x2a
 80062d6:	d016      	beq.n	8006306 <_svfiprintf_r+0xfa>
 80062d8:	0035      	movs	r5, r6
 80062da:	2100      	movs	r1, #0
 80062dc:	200a      	movs	r0, #10
 80062de:	68e3      	ldr	r3, [r4, #12]
 80062e0:	782a      	ldrb	r2, [r5, #0]
 80062e2:	1c6e      	adds	r6, r5, #1
 80062e4:	3a30      	subs	r2, #48	; 0x30
 80062e6:	2a09      	cmp	r2, #9
 80062e8:	d94e      	bls.n	8006388 <_svfiprintf_r+0x17c>
 80062ea:	2900      	cmp	r1, #0
 80062ec:	d111      	bne.n	8006312 <_svfiprintf_r+0x106>
 80062ee:	e017      	b.n	8006320 <_svfiprintf_r+0x114>
 80062f0:	3501      	adds	r5, #1
 80062f2:	e7af      	b.n	8006254 <_svfiprintf_r+0x48>
 80062f4:	9b05      	ldr	r3, [sp, #20]
 80062f6:	6822      	ldr	r2, [r4, #0]
 80062f8:	1ac0      	subs	r0, r0, r3
 80062fa:	2301      	movs	r3, #1
 80062fc:	4083      	lsls	r3, r0
 80062fe:	4313      	orrs	r3, r2
 8006300:	002e      	movs	r6, r5
 8006302:	6023      	str	r3, [r4, #0]
 8006304:	e7cc      	b.n	80062a0 <_svfiprintf_r+0x94>
 8006306:	9b07      	ldr	r3, [sp, #28]
 8006308:	1d19      	adds	r1, r3, #4
 800630a:	681b      	ldr	r3, [r3, #0]
 800630c:	9107      	str	r1, [sp, #28]
 800630e:	2b00      	cmp	r3, #0
 8006310:	db01      	blt.n	8006316 <_svfiprintf_r+0x10a>
 8006312:	930b      	str	r3, [sp, #44]	; 0x2c
 8006314:	e004      	b.n	8006320 <_svfiprintf_r+0x114>
 8006316:	425b      	negs	r3, r3
 8006318:	60e3      	str	r3, [r4, #12]
 800631a:	2302      	movs	r3, #2
 800631c:	4313      	orrs	r3, r2
 800631e:	6023      	str	r3, [r4, #0]
 8006320:	782b      	ldrb	r3, [r5, #0]
 8006322:	2b2e      	cmp	r3, #46	; 0x2e
 8006324:	d10a      	bne.n	800633c <_svfiprintf_r+0x130>
 8006326:	786b      	ldrb	r3, [r5, #1]
 8006328:	2b2a      	cmp	r3, #42	; 0x2a
 800632a:	d135      	bne.n	8006398 <_svfiprintf_r+0x18c>
 800632c:	9b07      	ldr	r3, [sp, #28]
 800632e:	3502      	adds	r5, #2
 8006330:	1d1a      	adds	r2, r3, #4
 8006332:	681b      	ldr	r3, [r3, #0]
 8006334:	9207      	str	r2, [sp, #28]
 8006336:	2b00      	cmp	r3, #0
 8006338:	db2b      	blt.n	8006392 <_svfiprintf_r+0x186>
 800633a:	9309      	str	r3, [sp, #36]	; 0x24
 800633c:	4e2f      	ldr	r6, [pc, #188]	; (80063fc <_svfiprintf_r+0x1f0>)
 800633e:	2203      	movs	r2, #3
 8006340:	0030      	movs	r0, r6
 8006342:	7829      	ldrb	r1, [r5, #0]
 8006344:	f000 fca5 	bl	8006c92 <memchr>
 8006348:	2800      	cmp	r0, #0
 800634a:	d006      	beq.n	800635a <_svfiprintf_r+0x14e>
 800634c:	2340      	movs	r3, #64	; 0x40
 800634e:	1b80      	subs	r0, r0, r6
 8006350:	4083      	lsls	r3, r0
 8006352:	6822      	ldr	r2, [r4, #0]
 8006354:	3501      	adds	r5, #1
 8006356:	4313      	orrs	r3, r2
 8006358:	6023      	str	r3, [r4, #0]
 800635a:	7829      	ldrb	r1, [r5, #0]
 800635c:	2206      	movs	r2, #6
 800635e:	4828      	ldr	r0, [pc, #160]	; (8006400 <_svfiprintf_r+0x1f4>)
 8006360:	1c6e      	adds	r6, r5, #1
 8006362:	7621      	strb	r1, [r4, #24]
 8006364:	f000 fc95 	bl	8006c92 <memchr>
 8006368:	2800      	cmp	r0, #0
 800636a:	d03c      	beq.n	80063e6 <_svfiprintf_r+0x1da>
 800636c:	4b25      	ldr	r3, [pc, #148]	; (8006404 <_svfiprintf_r+0x1f8>)
 800636e:	2b00      	cmp	r3, #0
 8006370:	d125      	bne.n	80063be <_svfiprintf_r+0x1b2>
 8006372:	2207      	movs	r2, #7
 8006374:	9b07      	ldr	r3, [sp, #28]
 8006376:	3307      	adds	r3, #7
 8006378:	4393      	bics	r3, r2
 800637a:	3308      	adds	r3, #8
 800637c:	9307      	str	r3, [sp, #28]
 800637e:	6963      	ldr	r3, [r4, #20]
 8006380:	9a04      	ldr	r2, [sp, #16]
 8006382:	189b      	adds	r3, r3, r2
 8006384:	6163      	str	r3, [r4, #20]
 8006386:	e764      	b.n	8006252 <_svfiprintf_r+0x46>
 8006388:	4343      	muls	r3, r0
 800638a:	0035      	movs	r5, r6
 800638c:	2101      	movs	r1, #1
 800638e:	189b      	adds	r3, r3, r2
 8006390:	e7a6      	b.n	80062e0 <_svfiprintf_r+0xd4>
 8006392:	2301      	movs	r3, #1
 8006394:	425b      	negs	r3, r3
 8006396:	e7d0      	b.n	800633a <_svfiprintf_r+0x12e>
 8006398:	2300      	movs	r3, #0
 800639a:	200a      	movs	r0, #10
 800639c:	001a      	movs	r2, r3
 800639e:	3501      	adds	r5, #1
 80063a0:	6063      	str	r3, [r4, #4]
 80063a2:	7829      	ldrb	r1, [r5, #0]
 80063a4:	1c6e      	adds	r6, r5, #1
 80063a6:	3930      	subs	r1, #48	; 0x30
 80063a8:	2909      	cmp	r1, #9
 80063aa:	d903      	bls.n	80063b4 <_svfiprintf_r+0x1a8>
 80063ac:	2b00      	cmp	r3, #0
 80063ae:	d0c5      	beq.n	800633c <_svfiprintf_r+0x130>
 80063b0:	9209      	str	r2, [sp, #36]	; 0x24
 80063b2:	e7c3      	b.n	800633c <_svfiprintf_r+0x130>
 80063b4:	4342      	muls	r2, r0
 80063b6:	0035      	movs	r5, r6
 80063b8:	2301      	movs	r3, #1
 80063ba:	1852      	adds	r2, r2, r1
 80063bc:	e7f1      	b.n	80063a2 <_svfiprintf_r+0x196>
 80063be:	aa07      	add	r2, sp, #28
 80063c0:	9200      	str	r2, [sp, #0]
 80063c2:	0021      	movs	r1, r4
 80063c4:	003a      	movs	r2, r7
 80063c6:	4b10      	ldr	r3, [pc, #64]	; (8006408 <_svfiprintf_r+0x1fc>)
 80063c8:	9803      	ldr	r0, [sp, #12]
 80063ca:	e000      	b.n	80063ce <_svfiprintf_r+0x1c2>
 80063cc:	bf00      	nop
 80063ce:	9004      	str	r0, [sp, #16]
 80063d0:	9b04      	ldr	r3, [sp, #16]
 80063d2:	3301      	adds	r3, #1
 80063d4:	d1d3      	bne.n	800637e <_svfiprintf_r+0x172>
 80063d6:	89bb      	ldrh	r3, [r7, #12]
 80063d8:	980d      	ldr	r0, [sp, #52]	; 0x34
 80063da:	065b      	lsls	r3, r3, #25
 80063dc:	d400      	bmi.n	80063e0 <_svfiprintf_r+0x1d4>
 80063de:	e72c      	b.n	800623a <_svfiprintf_r+0x2e>
 80063e0:	2001      	movs	r0, #1
 80063e2:	4240      	negs	r0, r0
 80063e4:	e729      	b.n	800623a <_svfiprintf_r+0x2e>
 80063e6:	aa07      	add	r2, sp, #28
 80063e8:	9200      	str	r2, [sp, #0]
 80063ea:	0021      	movs	r1, r4
 80063ec:	003a      	movs	r2, r7
 80063ee:	4b06      	ldr	r3, [pc, #24]	; (8006408 <_svfiprintf_r+0x1fc>)
 80063f0:	9803      	ldr	r0, [sp, #12]
 80063f2:	f000 f9bf 	bl	8006774 <_printf_i>
 80063f6:	e7ea      	b.n	80063ce <_svfiprintf_r+0x1c2>
 80063f8:	080072da 	.word	0x080072da
 80063fc:	080072e0 	.word	0x080072e0
 8006400:	080072e4 	.word	0x080072e4
 8006404:	00000000 	.word	0x00000000
 8006408:	08006149 	.word	0x08006149

0800640c <__sfputc_r>:
 800640c:	6893      	ldr	r3, [r2, #8]
 800640e:	b510      	push	{r4, lr}
 8006410:	3b01      	subs	r3, #1
 8006412:	6093      	str	r3, [r2, #8]
 8006414:	2b00      	cmp	r3, #0
 8006416:	da04      	bge.n	8006422 <__sfputc_r+0x16>
 8006418:	6994      	ldr	r4, [r2, #24]
 800641a:	42a3      	cmp	r3, r4
 800641c:	db07      	blt.n	800642e <__sfputc_r+0x22>
 800641e:	290a      	cmp	r1, #10
 8006420:	d005      	beq.n	800642e <__sfputc_r+0x22>
 8006422:	6813      	ldr	r3, [r2, #0]
 8006424:	1c58      	adds	r0, r3, #1
 8006426:	6010      	str	r0, [r2, #0]
 8006428:	7019      	strb	r1, [r3, #0]
 800642a:	0008      	movs	r0, r1
 800642c:	bd10      	pop	{r4, pc}
 800642e:	f000 fb77 	bl	8006b20 <__swbuf_r>
 8006432:	0001      	movs	r1, r0
 8006434:	e7f9      	b.n	800642a <__sfputc_r+0x1e>

08006436 <__sfputs_r>:
 8006436:	b5f8      	push	{r3, r4, r5, r6, r7, lr}
 8006438:	0006      	movs	r6, r0
 800643a:	000f      	movs	r7, r1
 800643c:	0014      	movs	r4, r2
 800643e:	18d5      	adds	r5, r2, r3
 8006440:	42ac      	cmp	r4, r5
 8006442:	d101      	bne.n	8006448 <__sfputs_r+0x12>
 8006444:	2000      	movs	r0, #0
 8006446:	e007      	b.n	8006458 <__sfputs_r+0x22>
 8006448:	7821      	ldrb	r1, [r4, #0]
 800644a:	003a      	movs	r2, r7
 800644c:	0030      	movs	r0, r6
 800644e:	f7ff ffdd 	bl	800640c <__sfputc_r>
 8006452:	3401      	adds	r4, #1
 8006454:	1c43      	adds	r3, r0, #1
 8006456:	d1f3      	bne.n	8006440 <__sfputs_r+0xa>
 8006458:	bdf8      	pop	{r3, r4, r5, r6, r7, pc}
	...

0800645c <_vfiprintf_r>:
 800645c:	b5f0      	push	{r4, r5, r6, r7, lr}
 800645e:	b0a1      	sub	sp, #132	; 0x84
 8006460:	000f      	movs	r7, r1
 8006462:	0015      	movs	r5, r2
 8006464:	001e      	movs	r6, r3
 8006466:	9003      	str	r0, [sp, #12]
 8006468:	2800      	cmp	r0, #0
 800646a:	d004      	beq.n	8006476 <_vfiprintf_r+0x1a>
 800646c:	6a03      	ldr	r3, [r0, #32]
 800646e:	2b00      	cmp	r3, #0
 8006470:	d101      	bne.n	8006476 <_vfiprintf_r+0x1a>
 8006472:	f7ff fc07 	bl	8005c84 <__sinit>
 8006476:	6e7b      	ldr	r3, [r7, #100]	; 0x64
 8006478:	07db      	lsls	r3, r3, #31
 800647a:	d405      	bmi.n	8006488 <_vfiprintf_r+0x2c>
 800647c:	89bb      	ldrh	r3, [r7, #12]
 800647e:	059b      	lsls	r3, r3, #22
 8006480:	d402      	bmi.n	8006488 <_vfiprintf_r+0x2c>
 8006482:	6db8      	ldr	r0, [r7, #88]	; 0x58
 8006484:	f7ff fdec 	bl	8006060 <__retarget_lock_acquire_recursive>
 8006488:	89bb      	ldrh	r3, [r7, #12]
 800648a:	071b      	lsls	r3, r3, #28
 800648c:	d502      	bpl.n	8006494 <_vfiprintf_r+0x38>
 800648e:	693b      	ldr	r3, [r7, #16]
 8006490:	2b00      	cmp	r3, #0
 8006492:	d113      	bne.n	80064bc <_vfiprintf_r+0x60>
 8006494:	0039      	movs	r1, r7
 8006496:	9803      	ldr	r0, [sp, #12]
 8006498:	f000 fb84 	bl	8006ba4 <__swsetup_r>
 800649c:	2800      	cmp	r0, #0
 800649e:	d00d      	beq.n	80064bc <_vfiprintf_r+0x60>
 80064a0:	6e7b      	ldr	r3, [r7, #100]	; 0x64
 80064a2:	07db      	lsls	r3, r3, #31
 80064a4:	d503      	bpl.n	80064ae <_vfiprintf_r+0x52>
 80064a6:	2001      	movs	r0, #1
 80064a8:	4240      	negs	r0, r0
 80064aa:	b021      	add	sp, #132	; 0x84
 80064ac:	bdf0      	pop	{r4, r5, r6, r7, pc}
 80064ae:	89bb      	ldrh	r3, [r7, #12]
 80064b0:	059b      	lsls	r3, r3, #22
 80064b2:	d4f8      	bmi.n	80064a6 <_vfiprintf_r+0x4a>
 80064b4:	6db8      	ldr	r0, [r7, #88]	; 0x58
 80064b6:	f7ff fdd4 	bl	8006062 <__retarget_lock_release_recursive>
 80064ba:	e7f4      	b.n	80064a6 <_vfiprintf_r+0x4a>
 80064bc:	2300      	movs	r3, #0
 80064be:	ac08      	add	r4, sp, #32
 80064c0:	6163      	str	r3, [r4, #20]
 80064c2:	3320      	adds	r3, #32
 80064c4:	7663      	strb	r3, [r4, #25]
 80064c6:	3310      	adds	r3, #16
 80064c8:	76a3      	strb	r3, [r4, #26]
 80064ca:	9607      	str	r6, [sp, #28]
 80064cc:	002e      	movs	r6, r5
 80064ce:	7833      	ldrb	r3, [r6, #0]
 80064d0:	2b00      	cmp	r3, #0
 80064d2:	d001      	beq.n	80064d8 <_vfiprintf_r+0x7c>
 80064d4:	2b25      	cmp	r3, #37	; 0x25
 80064d6:	d148      	bne.n	800656a <_vfiprintf_r+0x10e>
 80064d8:	1b73      	subs	r3, r6, r5
 80064da:	9305      	str	r3, [sp, #20]
 80064dc:	42ae      	cmp	r6, r5
 80064de:	d00b      	beq.n	80064f8 <_vfiprintf_r+0x9c>
 80064e0:	002a      	movs	r2, r5
 80064e2:	0039      	movs	r1, r7
 80064e4:	9803      	ldr	r0, [sp, #12]
 80064e6:	f7ff ffa6 	bl	8006436 <__sfputs_r>
 80064ea:	3001      	adds	r0, #1
 80064ec:	d100      	bne.n	80064f0 <_vfiprintf_r+0x94>
 80064ee:	e0af      	b.n	8006650 <_vfiprintf_r+0x1f4>
 80064f0:	6963      	ldr	r3, [r4, #20]
 80064f2:	9a05      	ldr	r2, [sp, #20]
 80064f4:	189b      	adds	r3, r3, r2
 80064f6:	6163      	str	r3, [r4, #20]
 80064f8:	7833      	ldrb	r3, [r6, #0]
 80064fa:	2b00      	cmp	r3, #0
 80064fc:	d100      	bne.n	8006500 <_vfiprintf_r+0xa4>
 80064fe:	e0a7      	b.n	8006650 <_vfiprintf_r+0x1f4>
 8006500:	2201      	movs	r2, #1
 8006502:	2300      	movs	r3, #0
 8006504:	4252      	negs	r2, r2
 8006506:	6062      	str	r2, [r4, #4]
 8006508:	a904      	add	r1, sp, #16
 800650a:	3254      	adds	r2, #84	; 0x54
 800650c:	1852      	adds	r2, r2, r1
 800650e:	1c75      	adds	r5, r6, #1
 8006510:	6023      	str	r3, [r4, #0]
 8006512:	60e3      	str	r3, [r4, #12]
 8006514:	60a3      	str	r3, [r4, #8]
 8006516:	7013      	strb	r3, [r2, #0]
 8006518:	65a3      	str	r3, [r4, #88]	; 0x58
 800651a:	4b59      	ldr	r3, [pc, #356]	; (8006680 <_vfiprintf_r+0x224>)
 800651c:	2205      	movs	r2, #5
 800651e:	0018      	movs	r0, r3
 8006520:	7829      	ldrb	r1, [r5, #0]
 8006522:	9305      	str	r3, [sp, #20]
 8006524:	f000 fbb5 	bl	8006c92 <memchr>
 8006528:	1c6e      	adds	r6, r5, #1
 800652a:	2800      	cmp	r0, #0
 800652c:	d11f      	bne.n	800656e <_vfiprintf_r+0x112>
 800652e:	6822      	ldr	r2, [r4, #0]
 8006530:	06d3      	lsls	r3, r2, #27
 8006532:	d504      	bpl.n	800653e <_vfiprintf_r+0xe2>
 8006534:	2353      	movs	r3, #83	; 0x53
 8006536:	a904      	add	r1, sp, #16
 8006538:	185b      	adds	r3, r3, r1
 800653a:	2120      	movs	r1, #32
 800653c:	7019      	strb	r1, [r3, #0]
 800653e:	0713      	lsls	r3, r2, #28
 8006540:	d504      	bpl.n	800654c <_vfiprintf_r+0xf0>
 8006542:	2353      	movs	r3, #83	; 0x53
 8006544:	a904      	add	r1, sp, #16
 8006546:	185b      	adds	r3, r3, r1
 8006548:	212b      	movs	r1, #43	; 0x2b
 800654a:	7019      	strb	r1, [r3, #0]
 800654c:	782b      	ldrb	r3, [r5, #0]
 800654e:	2b2a      	cmp	r3, #42	; 0x2a
 8006550:	d016      	beq.n	8006580 <_vfiprintf_r+0x124>
 8006552:	002e      	movs	r6, r5
 8006554:	2100      	movs	r1, #0
 8006556:	200a      	movs	r0, #10
 8006558:	68e3      	ldr	r3, [r4, #12]
 800655a:	7832      	ldrb	r2, [r6, #0]
 800655c:	1c75      	adds	r5, r6, #1
 800655e:	3a30      	subs	r2, #48	; 0x30
 8006560:	2a09      	cmp	r2, #9
 8006562:	d94e      	bls.n	8006602 <_vfiprintf_r+0x1a6>
 8006564:	2900      	cmp	r1, #0
 8006566:	d111      	bne.n	800658c <_vfiprintf_r+0x130>
 8006568:	e017      	b.n	800659a <_vfiprintf_r+0x13e>
 800656a:	3601      	adds	r6, #1
 800656c:	e7af      	b.n	80064ce <_vfiprintf_r+0x72>
 800656e:	9b05      	ldr	r3, [sp, #20]
 8006570:	6822      	ldr	r2, [r4, #0]
 8006572:	1ac0      	subs	r0, r0, r3
 8006574:	2301      	movs	r3, #1
 8006576:	4083      	lsls	r3, r0
 8006578:	4313      	orrs	r3, r2
 800657a:	0035      	movs	r5, r6
 800657c:	6023      	str	r3, [r4, #0]
 800657e:	e7cc      	b.n	800651a <_vfiprintf_r+0xbe>
 8006580:	9b07      	ldr	r3, [sp, #28]
 8006582:	1d19      	adds	r1, r3, #4
 8006584:	681b      	ldr	r3, [r3, #0]
 8006586:	9107      	str	r1, [sp, #28]
 8006588:	2b00      	cmp	r3, #0
 800658a:	db01      	blt.n	8006590 <_vfiprintf_r+0x134>
 800658c:	930b      	str	r3, [sp, #44]	; 0x2c
 800658e:	e004      	b.n	800659a <_vfiprintf_r+0x13e>
 8006590:	425b      	negs	r3, r3
 8006592:	60e3      	str	r3, [r4, #12]
 8006594:	2302      	movs	r3, #2
 8006596:	4313      	orrs	r3, r2
 8006598:	6023      	str	r3, [r4, #0]
 800659a:	7833      	ldrb	r3, [r6, #0]
 800659c:	2b2e      	cmp	r3, #46	; 0x2e
 800659e:	d10a      	bne.n	80065b6 <_vfiprintf_r+0x15a>
 80065a0:	7873      	ldrb	r3, [r6, #1]
 80065a2:	2b2a      	cmp	r3, #42	; 0x2a
 80065a4:	d135      	bne.n	8006612 <_vfiprintf_r+0x1b6>
 80065a6:	9b07      	ldr	r3, [sp, #28]
 80065a8:	3602      	adds	r6, #2
 80065aa:	1d1a      	adds	r2, r3, #4
 80065ac:	681b      	ldr	r3, [r3, #0]
 80065ae:	9207      	str	r2, [sp, #28]
 80065b0:	2b00      	cmp	r3, #0
 80065b2:	db2b      	blt.n	800660c <_vfiprintf_r+0x1b0>
 80065b4:	9309      	str	r3, [sp, #36]	; 0x24
 80065b6:	4d33      	ldr	r5, [pc, #204]	; (8006684 <_vfiprintf_r+0x228>)
 80065b8:	2203      	movs	r2, #3
 80065ba:	0028      	movs	r0, r5
 80065bc:	7831      	ldrb	r1, [r6, #0]
 80065be:	f000 fb68 	bl	8006c92 <memchr>
 80065c2:	2800      	cmp	r0, #0
 80065c4:	d006      	beq.n	80065d4 <_vfiprintf_r+0x178>
 80065c6:	2340      	movs	r3, #64	; 0x40
 80065c8:	1b40      	subs	r0, r0, r5
 80065ca:	4083      	lsls	r3, r0
 80065cc:	6822      	ldr	r2, [r4, #0]
 80065ce:	3601      	adds	r6, #1
 80065d0:	4313      	orrs	r3, r2
 80065d2:	6023      	str	r3, [r4, #0]
 80065d4:	7831      	ldrb	r1, [r6, #0]
 80065d6:	2206      	movs	r2, #6
 80065d8:	482b      	ldr	r0, [pc, #172]	; (8006688 <_vfiprintf_r+0x22c>)
 80065da:	1c75      	adds	r5, r6, #1
 80065dc:	7621      	strb	r1, [r4, #24]
 80065de:	f000 fb58 	bl	8006c92 <memchr>
 80065e2:	2800      	cmp	r0, #0
 80065e4:	d043      	beq.n	800666e <_vfiprintf_r+0x212>
 80065e6:	4b29      	ldr	r3, [pc, #164]	; (800668c <_vfiprintf_r+0x230>)
 80065e8:	2b00      	cmp	r3, #0
 80065ea:	d125      	bne.n	8006638 <_vfiprintf_r+0x1dc>
 80065ec:	2207      	movs	r2, #7
 80065ee:	9b07      	ldr	r3, [sp, #28]
 80065f0:	3307      	adds	r3, #7
 80065f2:	4393      	bics	r3, r2
 80065f4:	3308      	adds	r3, #8
 80065f6:	9307      	str	r3, [sp, #28]
 80065f8:	6963      	ldr	r3, [r4, #20]
 80065fa:	9a04      	ldr	r2, [sp, #16]
 80065fc:	189b      	adds	r3, r3, r2
 80065fe:	6163      	str	r3, [r4, #20]
 8006600:	e764      	b.n	80064cc <_vfiprintf_r+0x70>
 8006602:	4343      	muls	r3, r0
 8006604:	002e      	movs	r6, r5
 8006606:	2101      	movs	r1, #1
 8006608:	189b      	adds	r3, r3, r2
 800660a:	e7a6      	b.n	800655a <_vfiprintf_r+0xfe>
 800660c:	2301      	movs	r3, #1
 800660e:	425b      	negs	r3, r3
 8006610:	e7d0      	b.n	80065b4 <_vfiprintf_r+0x158>
 8006612:	2300      	movs	r3, #0
 8006614:	200a      	movs	r0, #10
 8006616:	001a      	movs	r2, r3
 8006618:	3601      	adds	r6, #1
 800661a:	6063      	str	r3, [r4, #4]
 800661c:	7831      	ldrb	r1, [r6, #0]
 800661e:	1c75      	adds	r5, r6, #1
 8006620:	3930      	subs	r1, #48	; 0x30
 8006622:	2909      	cmp	r1, #9
 8006624:	d903      	bls.n	800662e <_vfiprintf_r+0x1d2>
 8006626:	2b00      	cmp	r3, #0
 8006628:	d0c5      	beq.n	80065b6 <_vfiprintf_r+0x15a>
 800662a:	9209      	str	r2, [sp, #36]	; 0x24
 800662c:	e7c3      	b.n	80065b6 <_vfiprintf_r+0x15a>
 800662e:	4342      	muls	r2, r0
 8006630:	002e      	movs	r6, r5
 8006632:	2301      	movs	r3, #1
 8006634:	1852      	adds	r2, r2, r1
 8006636:	e7f1      	b.n	800661c <_vfiprintf_r+0x1c0>
 8006638:	aa07      	add	r2, sp, #28
 800663a:	9200      	str	r2, [sp, #0]
 800663c:	0021      	movs	r1, r4
 800663e:	003a      	movs	r2, r7
 8006640:	4b13      	ldr	r3, [pc, #76]	; (8006690 <_vfiprintf_r+0x234>)
 8006642:	9803      	ldr	r0, [sp, #12]
 8006644:	e000      	b.n	8006648 <_vfiprintf_r+0x1ec>
 8006646:	bf00      	nop
 8006648:	9004      	str	r0, [sp, #16]
 800664a:	9b04      	ldr	r3, [sp, #16]
 800664c:	3301      	adds	r3, #1
 800664e:	d1d3      	bne.n	80065f8 <_vfiprintf_r+0x19c>
 8006650:	6e7b      	ldr	r3, [r7, #100]	; 0x64
 8006652:	07db      	lsls	r3, r3, #31
 8006654:	d405      	bmi.n	8006662 <_vfiprintf_r+0x206>
 8006656:	89bb      	ldrh	r3, [r7, #12]
 8006658:	059b      	lsls	r3, r3, #22
 800665a:	d402      	bmi.n	8006662 <_vfiprintf_r+0x206>
 800665c:	6db8      	ldr	r0, [r7, #88]	; 0x58
 800665e:	f7ff fd00 	bl	8006062 <__retarget_lock_release_recursive>
 8006662:	89bb      	ldrh	r3, [r7, #12]
 8006664:	065b      	lsls	r3, r3, #25
 8006666:	d500      	bpl.n	800666a <_vfiprintf_r+0x20e>
 8006668:	e71d      	b.n	80064a6 <_vfiprintf_r+0x4a>
 800666a:	980d      	ldr	r0, [sp, #52]	; 0x34
 800666c:	e71d      	b.n	80064aa <_vfiprintf_r+0x4e>
 800666e:	aa07      	add	r2, sp, #28
 8006670:	9200      	str	r2, [sp, #0]
 8006672:	0021      	movs	r1, r4
 8006674:	003a      	movs	r2, r7
 8006676:	4b06      	ldr	r3, [pc, #24]	; (8006690 <_vfiprintf_r+0x234>)
 8006678:	9803      	ldr	r0, [sp, #12]
 800667a:	f000 f87b 	bl	8006774 <_printf_i>
 800667e:	e7e3      	b.n	8006648 <_vfiprintf_r+0x1ec>
 8006680:	080072da 	.word	0x080072da
 8006684:	080072e0 	.word	0x080072e0
 8006688:	080072e4 	.word	0x080072e4
 800668c:	00000000 	.word	0x00000000
 8006690:	08006437 	.word	0x08006437

08006694 <_printf_common>:
 8006694:	b5f7      	push	{r0, r1, r2, r4, r5, r6, r7, lr}
 8006696:	0016      	movs	r6, r2
 8006698:	9301      	str	r3, [sp, #4]
 800669a:	688a      	ldr	r2, [r1, #8]
 800669c:	690b      	ldr	r3, [r1, #16]
 800669e:	000c      	movs	r4, r1
 80066a0:	9000      	str	r0, [sp, #0]
 80066a2:	4293      	cmp	r3, r2
 80066a4:	da00      	bge.n	80066a8 <_printf_common+0x14>
 80066a6:	0013      	movs	r3, r2
 80066a8:	0022      	movs	r2, r4
 80066aa:	6033      	str	r3, [r6, #0]
 80066ac:	3243      	adds	r2, #67	; 0x43
 80066ae:	7812      	ldrb	r2, [r2, #0]
 80066b0:	2a00      	cmp	r2, #0
 80066b2:	d001      	beq.n	80066b8 <_printf_common+0x24>
 80066b4:	3301      	adds	r3, #1
 80066b6:	6033      	str	r3, [r6, #0]
 80066b8:	6823      	ldr	r3, [r4, #0]
 80066ba:	069b      	lsls	r3, r3, #26
 80066bc:	d502      	bpl.n	80066c4 <_printf_common+0x30>
 80066be:	6833      	ldr	r3, [r6, #0]
 80066c0:	3302      	adds	r3, #2
 80066c2:	6033      	str	r3, [r6, #0]
 80066c4:	6822      	ldr	r2, [r4, #0]
 80066c6:	2306      	movs	r3, #6
 80066c8:	0015      	movs	r5, r2
 80066ca:	401d      	ands	r5, r3
 80066cc:	421a      	tst	r2, r3
 80066ce:	d027      	beq.n	8006720 <_printf_common+0x8c>
 80066d0:	0023      	movs	r3, r4
 80066d2:	3343      	adds	r3, #67	; 0x43
 80066d4:	781b      	ldrb	r3, [r3, #0]
 80066d6:	1e5a      	subs	r2, r3, #1
 80066d8:	4193      	sbcs	r3, r2
 80066da:	6822      	ldr	r2, [r4, #0]
 80066dc:	0692      	lsls	r2, r2, #26
 80066de:	d430      	bmi.n	8006742 <_printf_common+0xae>
 80066e0:	0022      	movs	r2, r4
 80066e2:	9901      	ldr	r1, [sp, #4]
 80066e4:	9800      	ldr	r0, [sp, #0]
 80066e6:	9d08      	ldr	r5, [sp, #32]
 80066e8:	3243      	adds	r2, #67	; 0x43
 80066ea:	47a8      	blx	r5
 80066ec:	3001      	adds	r0, #1
 80066ee:	d025      	beq.n	800673c <_printf_common+0xa8>
 80066f0:	2206      	movs	r2, #6
 80066f2:	6823      	ldr	r3, [r4, #0]
 80066f4:	2500      	movs	r5, #0
 80066f6:	4013      	ands	r3, r2
 80066f8:	2b04      	cmp	r3, #4
 80066fa:	d105      	bne.n	8006708 <_printf_common+0x74>
 80066fc:	6833      	ldr	r3, [r6, #0]
 80066fe:	68e5      	ldr	r5, [r4, #12]
 8006700:	1aed      	subs	r5, r5, r3
 8006702:	43eb      	mvns	r3, r5
 8006704:	17db      	asrs	r3, r3, #31
 8006706:	401d      	ands	r5, r3
 8006708:	68a3      	ldr	r3, [r4, #8]
 800670a:	6922      	ldr	r2, [r4, #16]
 800670c:	4293      	cmp	r3, r2
 800670e:	dd01      	ble.n	8006714 <_printf_common+0x80>
 8006710:	1a9b      	subs	r3, r3, r2
 8006712:	18ed      	adds	r5, r5, r3
 8006714:	2600      	movs	r6, #0
 8006716:	42b5      	cmp	r5, r6
 8006718:	d120      	bne.n	800675c <_printf_common+0xc8>
 800671a:	2000      	movs	r0, #0
 800671c:	e010      	b.n	8006740 <_printf_common+0xac>
 800671e:	3501      	adds	r5, #1
 8006720:	68e3      	ldr	r3, [r4, #12]
 8006722:	6832      	ldr	r2, [r6, #0]
 8006724:	1a9b      	subs	r3, r3, r2
 8006726:	42ab      	cmp	r3, r5
 8006728:	ddd2      	ble.n	80066d0 <_printf_common+0x3c>
 800672a:	0022      	movs	r2, r4
 800672c:	2301      	movs	r3, #1
 800672e:	9901      	ldr	r1, [sp, #4]
 8006730:	9800      	ldr	r0, [sp, #0]
 8006732:	9f08      	ldr	r7, [sp, #32]
 8006734:	3219      	adds	r2, #25
 8006736:	47b8      	blx	r7
 8006738:	3001      	adds	r0, #1
 800673a:	d1f0      	bne.n	800671e <_printf_common+0x8a>
 800673c:	2001      	movs	r0, #1
 800673e:	4240      	negs	r0, r0
 8006740:	bdfe      	pop	{r1, r2, r3, r4, r5, r6, r7, pc}
 8006742:	2030      	movs	r0, #48	; 0x30
 8006744:	18e1      	adds	r1, r4, r3
 8006746:	3143      	adds	r1, #67	; 0x43
 8006748:	7008      	strb	r0, [r1, #0]
 800674a:	0021      	movs	r1, r4
 800674c:	1c5a      	adds	r2, r3, #1
 800674e:	3145      	adds	r1, #69	; 0x45
 8006750:	7809      	ldrb	r1, [r1, #0]
 8006752:	18a2      	adds	r2, r4, r2
 8006754:	3243      	adds	r2, #67	; 0x43
 8006756:	3302      	adds	r3, #2
 8006758:	7011      	strb	r1, [r2, #0]
 800675a:	e7c1      	b.n	80066e0 <_printf_common+0x4c>
 800675c:	0022      	movs	r2, r4
 800675e:	2301      	movs	r3, #1
 8006760:	9901      	ldr	r1, [sp, #4]
 8006762:	9800      	ldr	r0, [sp, #0]
 8006764:	9f08      	ldr	r7, [sp, #32]
 8006766:	321a      	adds	r2, #26
 8006768:	47b8      	blx	r7
 800676a:	3001      	adds	r0, #1
 800676c:	d0e6      	beq.n	800673c <_printf_common+0xa8>
 800676e:	3601      	adds	r6, #1
 8006770:	e7d1      	b.n	8006716 <_printf_common+0x82>
	...

08006774 <_printf_i>:
 8006774:	b5f0      	push	{r4, r5, r6, r7, lr}
 8006776:	b08b      	sub	sp, #44	; 0x2c
 8006778:	9206      	str	r2, [sp, #24]
 800677a:	000a      	movs	r2, r1
 800677c:	3243      	adds	r2, #67	; 0x43
 800677e:	9307      	str	r3, [sp, #28]
 8006780:	9005      	str	r0, [sp, #20]
 8006782:	9204      	str	r2, [sp, #16]
 8006784:	7e0a      	ldrb	r2, [r1, #24]
 8006786:	000c      	movs	r4, r1
 8006788:	9b10      	ldr	r3, [sp, #64]	; 0x40
 800678a:	2a78      	cmp	r2, #120	; 0x78
 800678c:	d809      	bhi.n	80067a2 <_printf_i+0x2e>
 800678e:	2a62      	cmp	r2, #98	; 0x62
 8006790:	d80b      	bhi.n	80067aa <_printf_i+0x36>
 8006792:	2a00      	cmp	r2, #0
 8006794:	d100      	bne.n	8006798 <_printf_i+0x24>
 8006796:	e0be      	b.n	8006916 <_printf_i+0x1a2>
 8006798:	497c      	ldr	r1, [pc, #496]	; (800698c <_printf_i+0x218>)
 800679a:	9103      	str	r1, [sp, #12]
 800679c:	2a58      	cmp	r2, #88	; 0x58
 800679e:	d100      	bne.n	80067a2 <_printf_i+0x2e>
 80067a0:	e093      	b.n	80068ca <_printf_i+0x156>
 80067a2:	0026      	movs	r6, r4
 80067a4:	3642      	adds	r6, #66	; 0x42
 80067a6:	7032      	strb	r2, [r6, #0]
 80067a8:	e022      	b.n	80067f0 <_printf_i+0x7c>
 80067aa:	0010      	movs	r0, r2
 80067ac:	3863      	subs	r0, #99	; 0x63
 80067ae:	2815      	cmp	r0, #21
 80067b0:	d8f7      	bhi.n	80067a2 <_printf_i+0x2e>
 80067b2:	f7f9 fcbb 	bl	800012c <__gnu_thumb1_case_shi>
 80067b6:	0016      	.short	0x0016
 80067b8:	fff6001f 	.word	0xfff6001f
 80067bc:	fff6fff6 	.word	0xfff6fff6
 80067c0:	001ffff6 	.word	0x001ffff6
 80067c4:	fff6fff6 	.word	0xfff6fff6
 80067c8:	fff6fff6 	.word	0xfff6fff6
 80067cc:	003600a3 	.word	0x003600a3
 80067d0:	fff60083 	.word	0xfff60083
 80067d4:	00b4fff6 	.word	0x00b4fff6
 80067d8:	0036fff6 	.word	0x0036fff6
 80067dc:	fff6fff6 	.word	0xfff6fff6
 80067e0:	0087      	.short	0x0087
 80067e2:	0026      	movs	r6, r4
 80067e4:	681a      	ldr	r2, [r3, #0]
 80067e6:	3642      	adds	r6, #66	; 0x42
 80067e8:	1d11      	adds	r1, r2, #4
 80067ea:	6019      	str	r1, [r3, #0]
 80067ec:	6813      	ldr	r3, [r2, #0]
 80067ee:	7033      	strb	r3, [r6, #0]
 80067f0:	2301      	movs	r3, #1
 80067f2:	e0a2      	b.n	800693a <_printf_i+0x1c6>
 80067f4:	6818      	ldr	r0, [r3, #0]
 80067f6:	6809      	ldr	r1, [r1, #0]
 80067f8:	1d02      	adds	r2, r0, #4
 80067fa:	060d      	lsls	r5, r1, #24
 80067fc:	d50b      	bpl.n	8006816 <_printf_i+0xa2>
 80067fe:	6805      	ldr	r5, [r0, #0]
 8006800:	601a      	str	r2, [r3, #0]
 8006802:	2d00      	cmp	r5, #0
 8006804:	da03      	bge.n	800680e <_printf_i+0x9a>
 8006806:	232d      	movs	r3, #45	; 0x2d
 8006808:	9a04      	ldr	r2, [sp, #16]
 800680a:	426d      	negs	r5, r5
 800680c:	7013      	strb	r3, [r2, #0]
 800680e:	4b5f      	ldr	r3, [pc, #380]	; (800698c <_printf_i+0x218>)
 8006810:	270a      	movs	r7, #10
 8006812:	9303      	str	r3, [sp, #12]
 8006814:	e01b      	b.n	800684e <_printf_i+0xda>
 8006816:	6805      	ldr	r5, [r0, #0]
 8006818:	601a      	str	r2, [r3, #0]
 800681a:	0649      	lsls	r1, r1, #25
 800681c:	d5f1      	bpl.n	8006802 <_printf_i+0x8e>
 800681e:	b22d      	sxth	r5, r5
 8006820:	e7ef      	b.n	8006802 <_printf_i+0x8e>
 8006822:	680d      	ldr	r5, [r1, #0]
 8006824:	6819      	ldr	r1, [r3, #0]
 8006826:	1d08      	adds	r0, r1, #4
 8006828:	6018      	str	r0, [r3, #0]
 800682a:	062e      	lsls	r6, r5, #24
 800682c:	d501      	bpl.n	8006832 <_printf_i+0xbe>
 800682e:	680d      	ldr	r5, [r1, #0]
 8006830:	e003      	b.n	800683a <_printf_i+0xc6>
 8006832:	066d      	lsls	r5, r5, #25
 8006834:	d5fb      	bpl.n	800682e <_printf_i+0xba>
 8006836:	680d      	ldr	r5, [r1, #0]
 8006838:	b2ad      	uxth	r5, r5
 800683a:	4b54      	ldr	r3, [pc, #336]	; (800698c <_printf_i+0x218>)
 800683c:	2708      	movs	r7, #8
 800683e:	9303      	str	r3, [sp, #12]
 8006840:	2a6f      	cmp	r2, #111	; 0x6f
 8006842:	d000      	beq.n	8006846 <_printf_i+0xd2>
 8006844:	3702      	adds	r7, #2
 8006846:	0023      	movs	r3, r4
 8006848:	2200      	movs	r2, #0
 800684a:	3343      	adds	r3, #67	; 0x43
 800684c:	701a      	strb	r2, [r3, #0]
 800684e:	6863      	ldr	r3, [r4, #4]
 8006850:	60a3      	str	r3, [r4, #8]
 8006852:	2b00      	cmp	r3, #0
 8006854:	db03      	blt.n	800685e <_printf_i+0xea>
 8006856:	2104      	movs	r1, #4
 8006858:	6822      	ldr	r2, [r4, #0]
 800685a:	438a      	bics	r2, r1
 800685c:	6022      	str	r2, [r4, #0]
 800685e:	2d00      	cmp	r5, #0
 8006860:	d102      	bne.n	8006868 <_printf_i+0xf4>
 8006862:	9e04      	ldr	r6, [sp, #16]
 8006864:	2b00      	cmp	r3, #0
 8006866:	d00c      	beq.n	8006882 <_printf_i+0x10e>
 8006868:	9e04      	ldr	r6, [sp, #16]
 800686a:	0028      	movs	r0, r5
 800686c:	0039      	movs	r1, r7
 800686e:	f7f9 fced 	bl	800024c <__aeabi_uidivmod>
 8006872:	9b03      	ldr	r3, [sp, #12]
 8006874:	3e01      	subs	r6, #1
 8006876:	5c5b      	ldrb	r3, [r3, r1]
 8006878:	7033      	strb	r3, [r6, #0]
 800687a:	002b      	movs	r3, r5
 800687c:	0005      	movs	r5, r0
 800687e:	429f      	cmp	r7, r3
 8006880:	d9f3      	bls.n	800686a <_printf_i+0xf6>
 8006882:	2f08      	cmp	r7, #8
 8006884:	d109      	bne.n	800689a <_printf_i+0x126>
 8006886:	6823      	ldr	r3, [r4, #0]
 8006888:	07db      	lsls	r3, r3, #31
 800688a:	d506      	bpl.n	800689a <_printf_i+0x126>
 800688c:	6862      	ldr	r2, [r4, #4]
 800688e:	6923      	ldr	r3, [r4, #16]
 8006890:	429a      	cmp	r2, r3
 8006892:	dc02      	bgt.n	800689a <_printf_i+0x126>
 8006894:	2330      	movs	r3, #48	; 0x30
 8006896:	3e01      	subs	r6, #1
 8006898:	7033      	strb	r3, [r6, #0]
 800689a:	9b04      	ldr	r3, [sp, #16]
 800689c:	1b9b      	subs	r3, r3, r6
 800689e:	6123      	str	r3, [r4, #16]
 80068a0:	9b07      	ldr	r3, [sp, #28]
 80068a2:	0021      	movs	r1, r4
 80068a4:	9300      	str	r3, [sp, #0]
 80068a6:	9805      	ldr	r0, [sp, #20]
 80068a8:	9b06      	ldr	r3, [sp, #24]
 80068aa:	aa09      	add	r2, sp, #36	; 0x24
 80068ac:	f7ff fef2 	bl	8006694 <_printf_common>
 80068b0:	3001      	adds	r0, #1
 80068b2:	d147      	bne.n	8006944 <_printf_i+0x1d0>
 80068b4:	2001      	movs	r0, #1
 80068b6:	4240      	negs	r0, r0
 80068b8:	b00b      	add	sp, #44	; 0x2c
 80068ba:	bdf0      	pop	{r4, r5, r6, r7, pc}
 80068bc:	2220      	movs	r2, #32
 80068be:	6809      	ldr	r1, [r1, #0]
 80068c0:	430a      	orrs	r2, r1
 80068c2:	6022      	str	r2, [r4, #0]
 80068c4:	2278      	movs	r2, #120	; 0x78
 80068c6:	4932      	ldr	r1, [pc, #200]	; (8006990 <_printf_i+0x21c>)
 80068c8:	9103      	str	r1, [sp, #12]
 80068ca:	0021      	movs	r1, r4
 80068cc:	3145      	adds	r1, #69	; 0x45
 80068ce:	700a      	strb	r2, [r1, #0]
 80068d0:	6819      	ldr	r1, [r3, #0]
 80068d2:	6822      	ldr	r2, [r4, #0]
 80068d4:	c920      	ldmia	r1!, {r5}
 80068d6:	0610      	lsls	r0, r2, #24
 80068d8:	d402      	bmi.n	80068e0 <_printf_i+0x16c>
 80068da:	0650      	lsls	r0, r2, #25
 80068dc:	d500      	bpl.n	80068e0 <_printf_i+0x16c>
 80068de:	b2ad      	uxth	r5, r5
 80068e0:	6019      	str	r1, [r3, #0]
 80068e2:	07d3      	lsls	r3, r2, #31
 80068e4:	d502      	bpl.n	80068ec <_printf_i+0x178>
 80068e6:	2320      	movs	r3, #32
 80068e8:	4313      	orrs	r3, r2
 80068ea:	6023      	str	r3, [r4, #0]
 80068ec:	2710      	movs	r7, #16
 80068ee:	2d00      	cmp	r5, #0
 80068f0:	d1a9      	bne.n	8006846 <_printf_i+0xd2>
 80068f2:	2220      	movs	r2, #32
 80068f4:	6823      	ldr	r3, [r4, #0]
 80068f6:	4393      	bics	r3, r2
 80068f8:	6023      	str	r3, [r4, #0]
 80068fa:	e7a4      	b.n	8006846 <_printf_i+0xd2>
 80068fc:	681a      	ldr	r2, [r3, #0]
 80068fe:	680d      	ldr	r5, [r1, #0]
 8006900:	1d10      	adds	r0, r2, #4
 8006902:	6949      	ldr	r1, [r1, #20]
 8006904:	6018      	str	r0, [r3, #0]
 8006906:	6813      	ldr	r3, [r2, #0]
 8006908:	062e      	lsls	r6, r5, #24
 800690a:	d501      	bpl.n	8006910 <_printf_i+0x19c>
 800690c:	6019      	str	r1, [r3, #0]
 800690e:	e002      	b.n	8006916 <_printf_i+0x1a2>
 8006910:	066d      	lsls	r5, r5, #25
 8006912:	d5fb      	bpl.n	800690c <_printf_i+0x198>
 8006914:	8019      	strh	r1, [r3, #0]
 8006916:	2300      	movs	r3, #0
 8006918:	9e04      	ldr	r6, [sp, #16]
 800691a:	6123      	str	r3, [r4, #16]
 800691c:	e7c0      	b.n	80068a0 <_printf_i+0x12c>
 800691e:	681a      	ldr	r2, [r3, #0]
 8006920:	1d11      	adds	r1, r2, #4
 8006922:	6019      	str	r1, [r3, #0]
 8006924:	6816      	ldr	r6, [r2, #0]
 8006926:	2100      	movs	r1, #0
 8006928:	0030      	movs	r0, r6
 800692a:	6862      	ldr	r2, [r4, #4]
 800692c:	f000 f9b1 	bl	8006c92 <memchr>
 8006930:	2800      	cmp	r0, #0
 8006932:	d001      	beq.n	8006938 <_printf_i+0x1c4>
 8006934:	1b80      	subs	r0, r0, r6
 8006936:	6060      	str	r0, [r4, #4]
 8006938:	6863      	ldr	r3, [r4, #4]
 800693a:	6123      	str	r3, [r4, #16]
 800693c:	2300      	movs	r3, #0
 800693e:	9a04      	ldr	r2, [sp, #16]
 8006940:	7013      	strb	r3, [r2, #0]
 8006942:	e7ad      	b.n	80068a0 <_printf_i+0x12c>
 8006944:	0032      	movs	r2, r6
 8006946:	6923      	ldr	r3, [r4, #16]
 8006948:	9906      	ldr	r1, [sp, #24]
 800694a:	9805      	ldr	r0, [sp, #20]
 800694c:	9d07      	ldr	r5, [sp, #28]
 800694e:	47a8      	blx	r5
 8006950:	3001      	adds	r0, #1
 8006952:	d0af      	beq.n	80068b4 <_printf_i+0x140>
 8006954:	6823      	ldr	r3, [r4, #0]
 8006956:	079b      	lsls	r3, r3, #30
 8006958:	d415      	bmi.n	8006986 <_printf_i+0x212>
 800695a:	9b09      	ldr	r3, [sp, #36]	; 0x24
 800695c:	68e0      	ldr	r0, [r4, #12]
 800695e:	4298      	cmp	r0, r3
 8006960:	daaa      	bge.n	80068b8 <_printf_i+0x144>
 8006962:	0018      	movs	r0, r3
 8006964:	e7a8      	b.n	80068b8 <_printf_i+0x144>
 8006966:	0022      	movs	r2, r4
 8006968:	2301      	movs	r3, #1
 800696a:	9906      	ldr	r1, [sp, #24]
 800696c:	9805      	ldr	r0, [sp, #20]
 800696e:	9e07      	ldr	r6, [sp, #28]
 8006970:	3219      	adds	r2, #25
 8006972:	47b0      	blx	r6
 8006974:	3001      	adds	r0, #1
 8006976:	d09d      	beq.n	80068b4 <_printf_i+0x140>
 8006978:	3501      	adds	r5, #1
 800697a:	68e3      	ldr	r3, [r4, #12]
 800697c:	9a09      	ldr	r2, [sp, #36]	; 0x24
 800697e:	1a9b      	subs	r3, r3, r2
 8006980:	42ab      	cmp	r3, r5
 8006982:	dcf0      	bgt.n	8006966 <_printf_i+0x1f2>
 8006984:	e7e9      	b.n	800695a <_printf_i+0x1e6>
 8006986:	2500      	movs	r5, #0
 8006988:	e7f7      	b.n	800697a <_printf_i+0x206>
 800698a:	46c0      	nop			; (mov r8, r8)
 800698c:	080072eb 	.word	0x080072eb
 8006990:	080072fc 	.word	0x080072fc

08006994 <__sflush_r>:
 8006994:	b5f7      	push	{r0, r1, r2, r4, r5, r6, r7, lr}
 8006996:	898b      	ldrh	r3, [r1, #12]
 8006998:	0005      	movs	r5, r0
 800699a:	000c      	movs	r4, r1
 800699c:	071a      	lsls	r2, r3, #28
 800699e:	d45c      	bmi.n	8006a5a <__sflush_r+0xc6>
 80069a0:	684a      	ldr	r2, [r1, #4]
 80069a2:	2a00      	cmp	r2, #0
 80069a4:	dc04      	bgt.n	80069b0 <__sflush_r+0x1c>
 80069a6:	6c0a      	ldr	r2, [r1, #64]	; 0x40
 80069a8:	2a00      	cmp	r2, #0
 80069aa:	dc01      	bgt.n	80069b0 <__sflush_r+0x1c>
 80069ac:	2000      	movs	r0, #0
 80069ae:	bdfe      	pop	{r1, r2, r3, r4, r5, r6, r7, pc}
 80069b0:	6ae7      	ldr	r7, [r4, #44]	; 0x2c
 80069b2:	2f00      	cmp	r7, #0
 80069b4:	d0fa      	beq.n	80069ac <__sflush_r+0x18>
 80069b6:	2200      	movs	r2, #0
 80069b8:	2080      	movs	r0, #128	; 0x80
 80069ba:	682e      	ldr	r6, [r5, #0]
 80069bc:	602a      	str	r2, [r5, #0]
 80069be:	001a      	movs	r2, r3
 80069c0:	0140      	lsls	r0, r0, #5
 80069c2:	6a21      	ldr	r1, [r4, #32]
 80069c4:	4002      	ands	r2, r0
 80069c6:	4203      	tst	r3, r0
 80069c8:	d034      	beq.n	8006a34 <__sflush_r+0xa0>
 80069ca:	6d60      	ldr	r0, [r4, #84]	; 0x54
 80069cc:	89a3      	ldrh	r3, [r4, #12]
 80069ce:	075b      	lsls	r3, r3, #29
 80069d0:	d506      	bpl.n	80069e0 <__sflush_r+0x4c>
 80069d2:	6863      	ldr	r3, [r4, #4]
 80069d4:	1ac0      	subs	r0, r0, r3
 80069d6:	6b63      	ldr	r3, [r4, #52]	; 0x34
 80069d8:	2b00      	cmp	r3, #0
 80069da:	d001      	beq.n	80069e0 <__sflush_r+0x4c>
 80069dc:	6c23      	ldr	r3, [r4, #64]	; 0x40
 80069de:	1ac0      	subs	r0, r0, r3
 80069e0:	0002      	movs	r2, r0
 80069e2:	2300      	movs	r3, #0
 80069e4:	0028      	movs	r0, r5
 80069e6:	6ae7      	ldr	r7, [r4, #44]	; 0x2c
 80069e8:	6a21      	ldr	r1, [r4, #32]
 80069ea:	47b8      	blx	r7
 80069ec:	89a2      	ldrh	r2, [r4, #12]
 80069ee:	1c43      	adds	r3, r0, #1
 80069f0:	d106      	bne.n	8006a00 <__sflush_r+0x6c>
 80069f2:	6829      	ldr	r1, [r5, #0]
 80069f4:	291d      	cmp	r1, #29
 80069f6:	d82c      	bhi.n	8006a52 <__sflush_r+0xbe>
 80069f8:	4b2a      	ldr	r3, [pc, #168]	; (8006aa4 <__sflush_r+0x110>)
 80069fa:	410b      	asrs	r3, r1
 80069fc:	07db      	lsls	r3, r3, #31
 80069fe:	d428      	bmi.n	8006a52 <__sflush_r+0xbe>
 8006a00:	2300      	movs	r3, #0
 8006a02:	6063      	str	r3, [r4, #4]
 8006a04:	6923      	ldr	r3, [r4, #16]
 8006a06:	6023      	str	r3, [r4, #0]
 8006a08:	04d2      	lsls	r2, r2, #19
 8006a0a:	d505      	bpl.n	8006a18 <__sflush_r+0x84>
 8006a0c:	1c43      	adds	r3, r0, #1
 8006a0e:	d102      	bne.n	8006a16 <__sflush_r+0x82>
 8006a10:	682b      	ldr	r3, [r5, #0]
 8006a12:	2b00      	cmp	r3, #0
 8006a14:	d100      	bne.n	8006a18 <__sflush_r+0x84>
 8006a16:	6560      	str	r0, [r4, #84]	; 0x54
 8006a18:	6b61      	ldr	r1, [r4, #52]	; 0x34
 8006a1a:	602e      	str	r6, [r5, #0]
 8006a1c:	2900      	cmp	r1, #0
 8006a1e:	d0c5      	beq.n	80069ac <__sflush_r+0x18>
 8006a20:	0023      	movs	r3, r4
 8006a22:	3344      	adds	r3, #68	; 0x44
 8006a24:	4299      	cmp	r1, r3
 8006a26:	d002      	beq.n	8006a2e <__sflush_r+0x9a>
 8006a28:	0028      	movs	r0, r5
 8006a2a:	f7ff fb43 	bl	80060b4 <_free_r>
 8006a2e:	2000      	movs	r0, #0
 8006a30:	6360      	str	r0, [r4, #52]	; 0x34
 8006a32:	e7bc      	b.n	80069ae <__sflush_r+0x1a>
 8006a34:	2301      	movs	r3, #1
 8006a36:	0028      	movs	r0, r5
 8006a38:	47b8      	blx	r7
 8006a3a:	1c43      	adds	r3, r0, #1
 8006a3c:	d1c6      	bne.n	80069cc <__sflush_r+0x38>
 8006a3e:	682b      	ldr	r3, [r5, #0]
 8006a40:	2b00      	cmp	r3, #0
 8006a42:	d0c3      	beq.n	80069cc <__sflush_r+0x38>
 8006a44:	2b1d      	cmp	r3, #29
 8006a46:	d001      	beq.n	8006a4c <__sflush_r+0xb8>
 8006a48:	2b16      	cmp	r3, #22
 8006a4a:	d101      	bne.n	8006a50 <__sflush_r+0xbc>
 8006a4c:	602e      	str	r6, [r5, #0]
 8006a4e:	e7ad      	b.n	80069ac <__sflush_r+0x18>
 8006a50:	89a2      	ldrh	r2, [r4, #12]
 8006a52:	2340      	movs	r3, #64	; 0x40
 8006a54:	4313      	orrs	r3, r2
 8006a56:	81a3      	strh	r3, [r4, #12]
 8006a58:	e7a9      	b.n	80069ae <__sflush_r+0x1a>
 8006a5a:	690e      	ldr	r6, [r1, #16]
 8006a5c:	2e00      	cmp	r6, #0
 8006a5e:	d0a5      	beq.n	80069ac <__sflush_r+0x18>
 8006a60:	680f      	ldr	r7, [r1, #0]
 8006a62:	600e      	str	r6, [r1, #0]
 8006a64:	1bba      	subs	r2, r7, r6
 8006a66:	9201      	str	r2, [sp, #4]
 8006a68:	2200      	movs	r2, #0
 8006a6a:	079b      	lsls	r3, r3, #30
 8006a6c:	d100      	bne.n	8006a70 <__sflush_r+0xdc>
 8006a6e:	694a      	ldr	r2, [r1, #20]
 8006a70:	60a2      	str	r2, [r4, #8]
 8006a72:	9b01      	ldr	r3, [sp, #4]
 8006a74:	2b00      	cmp	r3, #0
 8006a76:	dd99      	ble.n	80069ac <__sflush_r+0x18>
 8006a78:	6aa3      	ldr	r3, [r4, #40]	; 0x28
 8006a7a:	0032      	movs	r2, r6
 8006a7c:	001f      	movs	r7, r3
 8006a7e:	0028      	movs	r0, r5
 8006a80:	9b01      	ldr	r3, [sp, #4]
 8006a82:	6a21      	ldr	r1, [r4, #32]
 8006a84:	47b8      	blx	r7
 8006a86:	2800      	cmp	r0, #0
 8006a88:	dc06      	bgt.n	8006a98 <__sflush_r+0x104>
 8006a8a:	2340      	movs	r3, #64	; 0x40
 8006a8c:	2001      	movs	r0, #1
 8006a8e:	89a2      	ldrh	r2, [r4, #12]
 8006a90:	4240      	negs	r0, r0
 8006a92:	4313      	orrs	r3, r2
 8006a94:	81a3      	strh	r3, [r4, #12]
 8006a96:	e78a      	b.n	80069ae <__sflush_r+0x1a>
 8006a98:	9b01      	ldr	r3, [sp, #4]
 8006a9a:	1836      	adds	r6, r6, r0
 8006a9c:	1a1b      	subs	r3, r3, r0
 8006a9e:	9301      	str	r3, [sp, #4]
 8006aa0:	e7e7      	b.n	8006a72 <__sflush_r+0xde>
 8006aa2:	46c0      	nop			; (mov r8, r8)
 8006aa4:	dfbffffe 	.word	0xdfbffffe

08006aa8 <_fflush_r>:
 8006aa8:	690b      	ldr	r3, [r1, #16]
 8006aaa:	b570      	push	{r4, r5, r6, lr}
 8006aac:	0005      	movs	r5, r0
 8006aae:	000c      	movs	r4, r1
 8006ab0:	2b00      	cmp	r3, #0
 8006ab2:	d102      	bne.n	8006aba <_fflush_r+0x12>
 8006ab4:	2500      	movs	r5, #0
 8006ab6:	0028      	movs	r0, r5
 8006ab8:	bd70      	pop	{r4, r5, r6, pc}
 8006aba:	2800      	cmp	r0, #0
 8006abc:	d004      	beq.n	8006ac8 <_fflush_r+0x20>
 8006abe:	6a03      	ldr	r3, [r0, #32]
 8006ac0:	2b00      	cmp	r3, #0
 8006ac2:	d101      	bne.n	8006ac8 <_fflush_r+0x20>
 8006ac4:	f7ff f8de 	bl	8005c84 <__sinit>
 8006ac8:	220c      	movs	r2, #12
 8006aca:	5ea3      	ldrsh	r3, [r4, r2]
 8006acc:	2b00      	cmp	r3, #0
 8006ace:	d0f1      	beq.n	8006ab4 <_fflush_r+0xc>
 8006ad0:	6e62      	ldr	r2, [r4, #100]	; 0x64
 8006ad2:	07d2      	lsls	r2, r2, #31
 8006ad4:	d404      	bmi.n	8006ae0 <_fflush_r+0x38>
 8006ad6:	059b      	lsls	r3, r3, #22
 8006ad8:	d402      	bmi.n	8006ae0 <_fflush_r+0x38>
 8006ada:	6da0      	ldr	r0, [r4, #88]	; 0x58
 8006adc:	f7ff fac0 	bl	8006060 <__retarget_lock_acquire_recursive>
 8006ae0:	0028      	movs	r0, r5
 8006ae2:	0021      	movs	r1, r4
 8006ae4:	f7ff ff56 	bl	8006994 <__sflush_r>
 8006ae8:	6e63      	ldr	r3, [r4, #100]	; 0x64
 8006aea:	0005      	movs	r5, r0
 8006aec:	07db      	lsls	r3, r3, #31
 8006aee:	d4e2      	bmi.n	8006ab6 <_fflush_r+0xe>
 8006af0:	89a3      	ldrh	r3, [r4, #12]
 8006af2:	059b      	lsls	r3, r3, #22
 8006af4:	d4df      	bmi.n	8006ab6 <_fflush_r+0xe>
 8006af6:	6da0      	ldr	r0, [r4, #88]	; 0x58
 8006af8:	f7ff fab3 	bl	8006062 <__retarget_lock_release_recursive>
 8006afc:	e7db      	b.n	8006ab6 <_fflush_r+0xe>
	...

08006b00 <fiprintf>:
 8006b00:	b40e      	push	{r1, r2, r3}
 8006b02:	b517      	push	{r0, r1, r2, r4, lr}
 8006b04:	4c05      	ldr	r4, [pc, #20]	; (8006b1c <fiprintf+0x1c>)
 8006b06:	ab05      	add	r3, sp, #20
 8006b08:	cb04      	ldmia	r3!, {r2}
 8006b0a:	0001      	movs	r1, r0
 8006b0c:	6820      	ldr	r0, [r4, #0]
 8006b0e:	9301      	str	r3, [sp, #4]
 8006b10:	f7ff fca4 	bl	800645c <_vfiprintf_r>
 8006b14:	bc1e      	pop	{r1, r2, r3, r4}
 8006b16:	bc08      	pop	{r3}
 8006b18:	b003      	add	sp, #12
 8006b1a:	4718      	bx	r3
 8006b1c:	20000208 	.word	0x20000208

08006b20 <__swbuf_r>:
 8006b20:	b5f8      	push	{r3, r4, r5, r6, r7, lr}
 8006b22:	0006      	movs	r6, r0
 8006b24:	000d      	movs	r5, r1
 8006b26:	0014      	movs	r4, r2
 8006b28:	2800      	cmp	r0, #0
 8006b2a:	d004      	beq.n	8006b36 <__swbuf_r+0x16>
 8006b2c:	6a03      	ldr	r3, [r0, #32]
 8006b2e:	2b00      	cmp	r3, #0
 8006b30:	d101      	bne.n	8006b36 <__swbuf_r+0x16>
 8006b32:	f7ff f8a7 	bl	8005c84 <__sinit>
 8006b36:	69a3      	ldr	r3, [r4, #24]
 8006b38:	60a3      	str	r3, [r4, #8]
 8006b3a:	89a3      	ldrh	r3, [r4, #12]
 8006b3c:	071b      	lsls	r3, r3, #28
 8006b3e:	d528      	bpl.n	8006b92 <__swbuf_r+0x72>
 8006b40:	6923      	ldr	r3, [r4, #16]
 8006b42:	2b00      	cmp	r3, #0
 8006b44:	d025      	beq.n	8006b92 <__swbuf_r+0x72>
 8006b46:	6923      	ldr	r3, [r4, #16]
 8006b48:	6820      	ldr	r0, [r4, #0]
 8006b4a:	b2ef      	uxtb	r7, r5
 8006b4c:	1ac0      	subs	r0, r0, r3
 8006b4e:	6963      	ldr	r3, [r4, #20]
 8006b50:	b2ed      	uxtb	r5, r5
 8006b52:	4283      	cmp	r3, r0
 8006b54:	dc05      	bgt.n	8006b62 <__swbuf_r+0x42>
 8006b56:	0021      	movs	r1, r4
 8006b58:	0030      	movs	r0, r6
 8006b5a:	f7ff ffa5 	bl	8006aa8 <_fflush_r>
 8006b5e:	2800      	cmp	r0, #0
 8006b60:	d11d      	bne.n	8006b9e <__swbuf_r+0x7e>
 8006b62:	68a3      	ldr	r3, [r4, #8]
 8006b64:	3001      	adds	r0, #1
 8006b66:	3b01      	subs	r3, #1
 8006b68:	60a3      	str	r3, [r4, #8]
 8006b6a:	6823      	ldr	r3, [r4, #0]
 8006b6c:	1c5a      	adds	r2, r3, #1
 8006b6e:	6022      	str	r2, [r4, #0]
 8006b70:	701f      	strb	r7, [r3, #0]
 8006b72:	6963      	ldr	r3, [r4, #20]
 8006b74:	4283      	cmp	r3, r0
 8006b76:	d004      	beq.n	8006b82 <__swbuf_r+0x62>
 8006b78:	89a3      	ldrh	r3, [r4, #12]
 8006b7a:	07db      	lsls	r3, r3, #31
 8006b7c:	d507      	bpl.n	8006b8e <__swbuf_r+0x6e>
 8006b7e:	2d0a      	cmp	r5, #10
 8006b80:	d105      	bne.n	8006b8e <__swbuf_r+0x6e>
 8006b82:	0021      	movs	r1, r4
 8006b84:	0030      	movs	r0, r6
 8006b86:	f7ff ff8f 	bl	8006aa8 <_fflush_r>
 8006b8a:	2800      	cmp	r0, #0
 8006b8c:	d107      	bne.n	8006b9e <__swbuf_r+0x7e>
 8006b8e:	0028      	movs	r0, r5
 8006b90:	bdf8      	pop	{r3, r4, r5, r6, r7, pc}
 8006b92:	0021      	movs	r1, r4
 8006b94:	0030      	movs	r0, r6
 8006b96:	f000 f805 	bl	8006ba4 <__swsetup_r>
 8006b9a:	2800      	cmp	r0, #0
 8006b9c:	d0d3      	beq.n	8006b46 <__swbuf_r+0x26>
 8006b9e:	2501      	movs	r5, #1
 8006ba0:	426d      	negs	r5, r5
 8006ba2:	e7f4      	b.n	8006b8e <__swbuf_r+0x6e>

08006ba4 <__swsetup_r>:
 8006ba4:	4b30      	ldr	r3, [pc, #192]	; (8006c68 <__swsetup_r+0xc4>)
 8006ba6:	b570      	push	{r4, r5, r6, lr}
 8006ba8:	0005      	movs	r5, r0
 8006baa:	6818      	ldr	r0, [r3, #0]
 8006bac:	000c      	movs	r4, r1
 8006bae:	2800      	cmp	r0, #0
 8006bb0:	d004      	beq.n	8006bbc <__swsetup_r+0x18>
 8006bb2:	6a03      	ldr	r3, [r0, #32]
 8006bb4:	2b00      	cmp	r3, #0
 8006bb6:	d101      	bne.n	8006bbc <__swsetup_r+0x18>
 8006bb8:	f7ff f864 	bl	8005c84 <__sinit>
 8006bbc:	230c      	movs	r3, #12
 8006bbe:	5ee2      	ldrsh	r2, [r4, r3]
 8006bc0:	b293      	uxth	r3, r2
 8006bc2:	0711      	lsls	r1, r2, #28
 8006bc4:	d423      	bmi.n	8006c0e <__swsetup_r+0x6a>
 8006bc6:	06d9      	lsls	r1, r3, #27
 8006bc8:	d407      	bmi.n	8006bda <__swsetup_r+0x36>
 8006bca:	2309      	movs	r3, #9
 8006bcc:	2001      	movs	r0, #1
 8006bce:	602b      	str	r3, [r5, #0]
 8006bd0:	3337      	adds	r3, #55	; 0x37
 8006bd2:	4313      	orrs	r3, r2
 8006bd4:	81a3      	strh	r3, [r4, #12]
 8006bd6:	4240      	negs	r0, r0
 8006bd8:	bd70      	pop	{r4, r5, r6, pc}
 8006bda:	075b      	lsls	r3, r3, #29
 8006bdc:	d513      	bpl.n	8006c06 <__swsetup_r+0x62>
 8006bde:	6b61      	ldr	r1, [r4, #52]	; 0x34
 8006be0:	2900      	cmp	r1, #0
 8006be2:	d008      	beq.n	8006bf6 <__swsetup_r+0x52>
 8006be4:	0023      	movs	r3, r4
 8006be6:	3344      	adds	r3, #68	; 0x44
 8006be8:	4299      	cmp	r1, r3
 8006bea:	d002      	beq.n	8006bf2 <__swsetup_r+0x4e>
 8006bec:	0028      	movs	r0, r5
 8006bee:	f7ff fa61 	bl	80060b4 <_free_r>
 8006bf2:	2300      	movs	r3, #0
 8006bf4:	6363      	str	r3, [r4, #52]	; 0x34
 8006bf6:	2224      	movs	r2, #36	; 0x24
 8006bf8:	89a3      	ldrh	r3, [r4, #12]
 8006bfa:	4393      	bics	r3, r2
 8006bfc:	81a3      	strh	r3, [r4, #12]
 8006bfe:	2300      	movs	r3, #0
 8006c00:	6063      	str	r3, [r4, #4]
 8006c02:	6923      	ldr	r3, [r4, #16]
 8006c04:	6023      	str	r3, [r4, #0]
 8006c06:	2308      	movs	r3, #8
 8006c08:	89a2      	ldrh	r2, [r4, #12]
 8006c0a:	4313      	orrs	r3, r2
 8006c0c:	81a3      	strh	r3, [r4, #12]
 8006c0e:	6923      	ldr	r3, [r4, #16]
 8006c10:	2b00      	cmp	r3, #0
 8006c12:	d10b      	bne.n	8006c2c <__swsetup_r+0x88>
 8006c14:	21a0      	movs	r1, #160	; 0xa0
 8006c16:	2280      	movs	r2, #128	; 0x80
 8006c18:	89a3      	ldrh	r3, [r4, #12]
 8006c1a:	0089      	lsls	r1, r1, #2
 8006c1c:	0092      	lsls	r2, r2, #2
 8006c1e:	400b      	ands	r3, r1
 8006c20:	4293      	cmp	r3, r2
 8006c22:	d003      	beq.n	8006c2c <__swsetup_r+0x88>
 8006c24:	0021      	movs	r1, r4
 8006c26:	0028      	movs	r0, r5
 8006c28:	f000 f89c 	bl	8006d64 <__smakebuf_r>
 8006c2c:	220c      	movs	r2, #12
 8006c2e:	5ea3      	ldrsh	r3, [r4, r2]
 8006c30:	2001      	movs	r0, #1
 8006c32:	001a      	movs	r2, r3
 8006c34:	b299      	uxth	r1, r3
 8006c36:	4002      	ands	r2, r0
 8006c38:	4203      	tst	r3, r0
 8006c3a:	d00f      	beq.n	8006c5c <__swsetup_r+0xb8>
 8006c3c:	2200      	movs	r2, #0
 8006c3e:	60a2      	str	r2, [r4, #8]
 8006c40:	6962      	ldr	r2, [r4, #20]
 8006c42:	4252      	negs	r2, r2
 8006c44:	61a2      	str	r2, [r4, #24]
 8006c46:	2000      	movs	r0, #0
 8006c48:	6922      	ldr	r2, [r4, #16]
 8006c4a:	4282      	cmp	r2, r0
 8006c4c:	d1c4      	bne.n	8006bd8 <__swsetup_r+0x34>
 8006c4e:	0609      	lsls	r1, r1, #24
 8006c50:	d5c2      	bpl.n	8006bd8 <__swsetup_r+0x34>
 8006c52:	2240      	movs	r2, #64	; 0x40
 8006c54:	4313      	orrs	r3, r2
 8006c56:	81a3      	strh	r3, [r4, #12]
 8006c58:	3801      	subs	r0, #1
 8006c5a:	e7bd      	b.n	8006bd8 <__swsetup_r+0x34>
 8006c5c:	0788      	lsls	r0, r1, #30
 8006c5e:	d400      	bmi.n	8006c62 <__swsetup_r+0xbe>
 8006c60:	6962      	ldr	r2, [r4, #20]
 8006c62:	60a2      	str	r2, [r4, #8]
 8006c64:	e7ef      	b.n	8006c46 <__swsetup_r+0xa2>
 8006c66:	46c0      	nop			; (mov r8, r8)
 8006c68:	20000208 	.word	0x20000208

08006c6c <memmove>:
 8006c6c:	b510      	push	{r4, lr}
 8006c6e:	4288      	cmp	r0, r1
 8006c70:	d902      	bls.n	8006c78 <memmove+0xc>
 8006c72:	188b      	adds	r3, r1, r2
 8006c74:	4298      	cmp	r0, r3
 8006c76:	d303      	bcc.n	8006c80 <memmove+0x14>
 8006c78:	2300      	movs	r3, #0
 8006c7a:	e007      	b.n	8006c8c <memmove+0x20>
 8006c7c:	5c8b      	ldrb	r3, [r1, r2]
 8006c7e:	5483      	strb	r3, [r0, r2]
 8006c80:	3a01      	subs	r2, #1
 8006c82:	d2fb      	bcs.n	8006c7c <memmove+0x10>
 8006c84:	bd10      	pop	{r4, pc}
 8006c86:	5ccc      	ldrb	r4, [r1, r3]
 8006c88:	54c4      	strb	r4, [r0, r3]
 8006c8a:	3301      	adds	r3, #1
 8006c8c:	429a      	cmp	r2, r3
 8006c8e:	d1fa      	bne.n	8006c86 <memmove+0x1a>
 8006c90:	e7f8      	b.n	8006c84 <memmove+0x18>

08006c92 <memchr>:
 8006c92:	b2c9      	uxtb	r1, r1
 8006c94:	1882      	adds	r2, r0, r2
 8006c96:	4290      	cmp	r0, r2
 8006c98:	d101      	bne.n	8006c9e <memchr+0xc>
 8006c9a:	2000      	movs	r0, #0
 8006c9c:	4770      	bx	lr
 8006c9e:	7803      	ldrb	r3, [r0, #0]
 8006ca0:	428b      	cmp	r3, r1
 8006ca2:	d0fb      	beq.n	8006c9c <memchr+0xa>
 8006ca4:	3001      	adds	r0, #1
 8006ca6:	e7f6      	b.n	8006c96 <memchr+0x4>

08006ca8 <abort>:
 8006ca8:	2006      	movs	r0, #6
 8006caa:	b510      	push	{r4, lr}
 8006cac:	f000 f8c2 	bl	8006e34 <raise>
 8006cb0:	2001      	movs	r0, #1
 8006cb2:	f7fb fb37 	bl	8002324 <_exit>

08006cb6 <_realloc_r>:
 8006cb6:	b5f7      	push	{r0, r1, r2, r4, r5, r6, r7, lr}
 8006cb8:	0007      	movs	r7, r0
 8006cba:	000e      	movs	r6, r1
 8006cbc:	0014      	movs	r4, r2
 8006cbe:	2900      	cmp	r1, #0
 8006cc0:	d105      	bne.n	8006cce <_realloc_r+0x18>
 8006cc2:	0011      	movs	r1, r2
 8006cc4:	f7fe fece 	bl	8005a64 <_malloc_r>
 8006cc8:	0005      	movs	r5, r0
 8006cca:	0028      	movs	r0, r5
 8006ccc:	bdfe      	pop	{r1, r2, r3, r4, r5, r6, r7, pc}
 8006cce:	2a00      	cmp	r2, #0
 8006cd0:	d103      	bne.n	8006cda <_realloc_r+0x24>
 8006cd2:	f7ff f9ef 	bl	80060b4 <_free_r>
 8006cd6:	0025      	movs	r5, r4
 8006cd8:	e7f7      	b.n	8006cca <_realloc_r+0x14>
 8006cda:	f000 f8ef 	bl	8006ebc <_malloc_usable_size_r>
 8006cde:	9001      	str	r0, [sp, #4]
 8006ce0:	4284      	cmp	r4, r0
 8006ce2:	d803      	bhi.n	8006cec <_realloc_r+0x36>
 8006ce4:	0035      	movs	r5, r6
 8006ce6:	0843      	lsrs	r3, r0, #1
 8006ce8:	42a3      	cmp	r3, r4
 8006cea:	d3ee      	bcc.n	8006cca <_realloc_r+0x14>
 8006cec:	0021      	movs	r1, r4
 8006cee:	0038      	movs	r0, r7
 8006cf0:	f7fe feb8 	bl	8005a64 <_malloc_r>
 8006cf4:	1e05      	subs	r5, r0, #0
 8006cf6:	d0e8      	beq.n	8006cca <_realloc_r+0x14>
 8006cf8:	9b01      	ldr	r3, [sp, #4]
 8006cfa:	0022      	movs	r2, r4
 8006cfc:	429c      	cmp	r4, r3
 8006cfe:	d900      	bls.n	8006d02 <_realloc_r+0x4c>
 8006d00:	001a      	movs	r2, r3
 8006d02:	0031      	movs	r1, r6
 8006d04:	0028      	movs	r0, r5
 8006d06:	f7ff f9ad 	bl	8006064 <memcpy>
 8006d0a:	0031      	movs	r1, r6
 8006d0c:	0038      	movs	r0, r7
 8006d0e:	f7ff f9d1 	bl	80060b4 <_free_r>
 8006d12:	e7da      	b.n	8006cca <_realloc_r+0x14>

08006d14 <__swhatbuf_r>:
 8006d14:	b570      	push	{r4, r5, r6, lr}
 8006d16:	000e      	movs	r6, r1
 8006d18:	001d      	movs	r5, r3
 8006d1a:	230e      	movs	r3, #14
 8006d1c:	5ec9      	ldrsh	r1, [r1, r3]
 8006d1e:	0014      	movs	r4, r2
 8006d20:	b096      	sub	sp, #88	; 0x58
 8006d22:	2900      	cmp	r1, #0
 8006d24:	da0c      	bge.n	8006d40 <__swhatbuf_r+0x2c>
 8006d26:	89b2      	ldrh	r2, [r6, #12]
 8006d28:	2380      	movs	r3, #128	; 0x80
 8006d2a:	0011      	movs	r1, r2
 8006d2c:	4019      	ands	r1, r3
 8006d2e:	421a      	tst	r2, r3
 8006d30:	d013      	beq.n	8006d5a <__swhatbuf_r+0x46>
 8006d32:	2100      	movs	r1, #0
 8006d34:	3b40      	subs	r3, #64	; 0x40
 8006d36:	2000      	movs	r0, #0
 8006d38:	6029      	str	r1, [r5, #0]
 8006d3a:	6023      	str	r3, [r4, #0]
 8006d3c:	b016      	add	sp, #88	; 0x58
 8006d3e:	bd70      	pop	{r4, r5, r6, pc}
 8006d40:	466a      	mov	r2, sp
 8006d42:	f000 f881 	bl	8006e48 <_fstat_r>
 8006d46:	2800      	cmp	r0, #0
 8006d48:	dbed      	blt.n	8006d26 <__swhatbuf_r+0x12>
 8006d4a:	23f0      	movs	r3, #240	; 0xf0
 8006d4c:	9901      	ldr	r1, [sp, #4]
 8006d4e:	021b      	lsls	r3, r3, #8
 8006d50:	4019      	ands	r1, r3
 8006d52:	4b03      	ldr	r3, [pc, #12]	; (8006d60 <__swhatbuf_r+0x4c>)
 8006d54:	18c9      	adds	r1, r1, r3
 8006d56:	424b      	negs	r3, r1
 8006d58:	4159      	adcs	r1, r3
 8006d5a:	2380      	movs	r3, #128	; 0x80
 8006d5c:	00db      	lsls	r3, r3, #3
 8006d5e:	e7ea      	b.n	8006d36 <__swhatbuf_r+0x22>
 8006d60:	ffffe000 	.word	0xffffe000

08006d64 <__smakebuf_r>:
 8006d64:	b5f7      	push	{r0, r1, r2, r4, r5, r6, r7, lr}
 8006d66:	2602      	movs	r6, #2
 8006d68:	898b      	ldrh	r3, [r1, #12]
 8006d6a:	0005      	movs	r5, r0
 8006d6c:	000c      	movs	r4, r1
 8006d6e:	4233      	tst	r3, r6
 8006d70:	d006      	beq.n	8006d80 <__smakebuf_r+0x1c>
 8006d72:	0023      	movs	r3, r4
 8006d74:	3347      	adds	r3, #71	; 0x47
 8006d76:	6023      	str	r3, [r4, #0]
 8006d78:	6123      	str	r3, [r4, #16]
 8006d7a:	2301      	movs	r3, #1
 8006d7c:	6163      	str	r3, [r4, #20]
 8006d7e:	bdf7      	pop	{r0, r1, r2, r4, r5, r6, r7, pc}
 8006d80:	466a      	mov	r2, sp
 8006d82:	ab01      	add	r3, sp, #4
 8006d84:	f7ff ffc6 	bl	8006d14 <__swhatbuf_r>
 8006d88:	9900      	ldr	r1, [sp, #0]
 8006d8a:	0007      	movs	r7, r0
 8006d8c:	0028      	movs	r0, r5
 8006d8e:	f7fe fe69 	bl	8005a64 <_malloc_r>
 8006d92:	2800      	cmp	r0, #0
 8006d94:	d108      	bne.n	8006da8 <__smakebuf_r+0x44>
 8006d96:	220c      	movs	r2, #12
 8006d98:	5ea3      	ldrsh	r3, [r4, r2]
 8006d9a:	059a      	lsls	r2, r3, #22
 8006d9c:	d4ef      	bmi.n	8006d7e <__smakebuf_r+0x1a>
 8006d9e:	2203      	movs	r2, #3
 8006da0:	4393      	bics	r3, r2
 8006da2:	431e      	orrs	r6, r3
 8006da4:	81a6      	strh	r6, [r4, #12]
 8006da6:	e7e4      	b.n	8006d72 <__smakebuf_r+0xe>
 8006da8:	2380      	movs	r3, #128	; 0x80
 8006daa:	89a2      	ldrh	r2, [r4, #12]
 8006dac:	6020      	str	r0, [r4, #0]
 8006dae:	4313      	orrs	r3, r2
 8006db0:	81a3      	strh	r3, [r4, #12]
 8006db2:	9b00      	ldr	r3, [sp, #0]
 8006db4:	6120      	str	r0, [r4, #16]
 8006db6:	6163      	str	r3, [r4, #20]
 8006db8:	9b01      	ldr	r3, [sp, #4]
 8006dba:	2b00      	cmp	r3, #0
 8006dbc:	d00c      	beq.n	8006dd8 <__smakebuf_r+0x74>
 8006dbe:	0028      	movs	r0, r5
 8006dc0:	230e      	movs	r3, #14
 8006dc2:	5ee1      	ldrsh	r1, [r4, r3]
 8006dc4:	f000 f852 	bl	8006e6c <_isatty_r>
 8006dc8:	2800      	cmp	r0, #0
 8006dca:	d005      	beq.n	8006dd8 <__smakebuf_r+0x74>
 8006dcc:	2303      	movs	r3, #3
 8006dce:	89a2      	ldrh	r2, [r4, #12]
 8006dd0:	439a      	bics	r2, r3
 8006dd2:	3b02      	subs	r3, #2
 8006dd4:	4313      	orrs	r3, r2
 8006dd6:	81a3      	strh	r3, [r4, #12]
 8006dd8:	89a3      	ldrh	r3, [r4, #12]
 8006dda:	433b      	orrs	r3, r7
 8006ddc:	81a3      	strh	r3, [r4, #12]
 8006dde:	e7ce      	b.n	8006d7e <__smakebuf_r+0x1a>

08006de0 <_raise_r>:
 8006de0:	b570      	push	{r4, r5, r6, lr}
 8006de2:	0004      	movs	r4, r0
 8006de4:	000d      	movs	r5, r1
 8006de6:	291f      	cmp	r1, #31
 8006de8:	d904      	bls.n	8006df4 <_raise_r+0x14>
 8006dea:	2316      	movs	r3, #22
 8006dec:	6003      	str	r3, [r0, #0]
 8006dee:	2001      	movs	r0, #1
 8006df0:	4240      	negs	r0, r0
 8006df2:	bd70      	pop	{r4, r5, r6, pc}
 8006df4:	6bc3      	ldr	r3, [r0, #60]	; 0x3c
 8006df6:	2b00      	cmp	r3, #0
 8006df8:	d004      	beq.n	8006e04 <_raise_r+0x24>
 8006dfa:	008a      	lsls	r2, r1, #2
 8006dfc:	189b      	adds	r3, r3, r2
 8006dfe:	681a      	ldr	r2, [r3, #0]
 8006e00:	2a00      	cmp	r2, #0
 8006e02:	d108      	bne.n	8006e16 <_raise_r+0x36>
 8006e04:	0020      	movs	r0, r4
 8006e06:	f000 f855 	bl	8006eb4 <_getpid_r>
 8006e0a:	002a      	movs	r2, r5
 8006e0c:	0001      	movs	r1, r0
 8006e0e:	0020      	movs	r0, r4
 8006e10:	f000 f83e 	bl	8006e90 <_kill_r>
 8006e14:	e7ed      	b.n	8006df2 <_raise_r+0x12>
 8006e16:	2000      	movs	r0, #0
 8006e18:	2a01      	cmp	r2, #1
 8006e1a:	d0ea      	beq.n	8006df2 <_raise_r+0x12>
 8006e1c:	1c51      	adds	r1, r2, #1
 8006e1e:	d103      	bne.n	8006e28 <_raise_r+0x48>
 8006e20:	2316      	movs	r3, #22
 8006e22:	3001      	adds	r0, #1
 8006e24:	6023      	str	r3, [r4, #0]
 8006e26:	e7e4      	b.n	8006df2 <_raise_r+0x12>
 8006e28:	2400      	movs	r4, #0
 8006e2a:	0028      	movs	r0, r5
 8006e2c:	601c      	str	r4, [r3, #0]
 8006e2e:	4790      	blx	r2
 8006e30:	0020      	movs	r0, r4
 8006e32:	e7de      	b.n	8006df2 <_raise_r+0x12>

08006e34 <raise>:
 8006e34:	b510      	push	{r4, lr}
 8006e36:	4b03      	ldr	r3, [pc, #12]	; (8006e44 <raise+0x10>)
 8006e38:	0001      	movs	r1, r0
 8006e3a:	6818      	ldr	r0, [r3, #0]
 8006e3c:	f7ff ffd0 	bl	8006de0 <_raise_r>
 8006e40:	bd10      	pop	{r4, pc}
 8006e42:	46c0      	nop			; (mov r8, r8)
 8006e44:	20000208 	.word	0x20000208

08006e48 <_fstat_r>:
 8006e48:	2300      	movs	r3, #0
 8006e4a:	b570      	push	{r4, r5, r6, lr}
 8006e4c:	4d06      	ldr	r5, [pc, #24]	; (8006e68 <_fstat_r+0x20>)
 8006e4e:	0004      	movs	r4, r0
 8006e50:	0008      	movs	r0, r1
 8006e52:	0011      	movs	r1, r2
 8006e54:	602b      	str	r3, [r5, #0]
 8006e56:	f7fb fab4 	bl	80023c2 <_fstat>
 8006e5a:	1c43      	adds	r3, r0, #1
 8006e5c:	d103      	bne.n	8006e66 <_fstat_r+0x1e>
 8006e5e:	682b      	ldr	r3, [r5, #0]
 8006e60:	2b00      	cmp	r3, #0
 8006e62:	d000      	beq.n	8006e66 <_fstat_r+0x1e>
 8006e64:	6023      	str	r3, [r4, #0]
 8006e66:	bd70      	pop	{r4, r5, r6, pc}
 8006e68:	200004e8 	.word	0x200004e8

08006e6c <_isatty_r>:
 8006e6c:	2300      	movs	r3, #0
 8006e6e:	b570      	push	{r4, r5, r6, lr}
 8006e70:	4d06      	ldr	r5, [pc, #24]	; (8006e8c <_isatty_r+0x20>)
 8006e72:	0004      	movs	r4, r0
 8006e74:	0008      	movs	r0, r1
 8006e76:	602b      	str	r3, [r5, #0]
 8006e78:	f7fb fab1 	bl	80023de <_isatty>
 8006e7c:	1c43      	adds	r3, r0, #1
 8006e7e:	d103      	bne.n	8006e88 <_isatty_r+0x1c>
 8006e80:	682b      	ldr	r3, [r5, #0]
 8006e82:	2b00      	cmp	r3, #0
 8006e84:	d000      	beq.n	8006e88 <_isatty_r+0x1c>
 8006e86:	6023      	str	r3, [r4, #0]
 8006e88:	bd70      	pop	{r4, r5, r6, pc}
 8006e8a:	46c0      	nop			; (mov r8, r8)
 8006e8c:	200004e8 	.word	0x200004e8

08006e90 <_kill_r>:
 8006e90:	2300      	movs	r3, #0
 8006e92:	b570      	push	{r4, r5, r6, lr}
 8006e94:	4d06      	ldr	r5, [pc, #24]	; (8006eb0 <_kill_r+0x20>)
 8006e96:	0004      	movs	r4, r0
 8006e98:	0008      	movs	r0, r1
 8006e9a:	0011      	movs	r1, r2
 8006e9c:	602b      	str	r3, [r5, #0]
 8006e9e:	f7fb fa31 	bl	8002304 <_kill>
 8006ea2:	1c43      	adds	r3, r0, #1
 8006ea4:	d103      	bne.n	8006eae <_kill_r+0x1e>
 8006ea6:	682b      	ldr	r3, [r5, #0]
 8006ea8:	2b00      	cmp	r3, #0
 8006eaa:	d000      	beq.n	8006eae <_kill_r+0x1e>
 8006eac:	6023      	str	r3, [r4, #0]
 8006eae:	bd70      	pop	{r4, r5, r6, pc}
 8006eb0:	200004e8 	.word	0x200004e8

08006eb4 <_getpid_r>:
 8006eb4:	b510      	push	{r4, lr}
 8006eb6:	f7fb fa1f 	bl	80022f8 <_getpid>
 8006eba:	bd10      	pop	{r4, pc}

08006ebc <_malloc_usable_size_r>:
 8006ebc:	1f0b      	subs	r3, r1, #4
 8006ebe:	681b      	ldr	r3, [r3, #0]
 8006ec0:	1f18      	subs	r0, r3, #4
 8006ec2:	2b00      	cmp	r3, #0
 8006ec4:	da01      	bge.n	8006eca <_malloc_usable_size_r+0xe>
 8006ec6:	580b      	ldr	r3, [r1, r0]
 8006ec8:	18c0      	adds	r0, r0, r3
 8006eca:	4770      	bx	lr

08006ecc <_init>:
 8006ecc:	b5f8      	push	{r3, r4, r5, r6, r7, lr}
 8006ece:	46c0      	nop			; (mov r8, r8)
 8006ed0:	bcf8      	pop	{r3, r4, r5, r6, r7}
 8006ed2:	bc08      	pop	{r3}
 8006ed4:	469e      	mov	lr, r3
 8006ed6:	4770      	bx	lr

08006ed8 <_fini>:
 8006ed8:	b5f8      	push	{r3, r4, r5, r6, r7, lr}
 8006eda:	46c0      	nop			; (mov r8, r8)
 8006edc:	bcf8      	pop	{r3, r4, r5, r6, r7}
 8006ede:	bc08      	pop	{r3}
 8006ee0:	469e      	mov	lr, r3
 8006ee2:	4770      	bx	lr
